(dp1
S'talk_options'
p2
(lp3
sS'allunits'
p4
(lp5
(dp6
S'ai'
p7
S'None'
p8
sS'growths'
p9
(lp10
I105
aI55
aI35
aI75
aI80
aI80
aI40
aI40
asS'dead'
p11
I00
sS'items'
p12
(lp13
(dp14
S'c_uses'
p15
NsS'locked'
p16
I00
sS'droppable'
p17
I00
sS'uses'
p18
I15
sS'event_combat'
p19
I00
sS'owner'
p20
S'Ophie'
p21
sS'id'
p22
S'Lancereaver'
p23
sa(dp24
g15
Nsg16
I00
sg17
I00
sg18
I21
sg19
I00
sg20
g21
sg22
S'Steel Sword'
p25
sa(dp26
g15
Nsg16
I00
sg17
I00
sg18
I45
sg19
I00
sg20
g21
sg22
S'Iron Sword'
p27
sa(dp28
g15
Nsg16
I00
sg17
I00
sg18
I15
sg19
I00
sg20
g21
sg22
S'Iron Knife'
p29
sa(dp30
g15
Nsg16
I00
sg17
I00
sg18
I3
sg19
I00
sg20
g21
sg22
S'Potion'
p31
sasS'growth_points'
p32
(lp33
I5
aI55
aI35
aI75
aI30
aI30
aI90
aI90
asS'currenthp'
p34
ccopy_reg
_reconstructor
p35
(cCode.UnitObject
Stat
p36
c__builtin__
object
p37
NtRp38
(dp39
S'bonuses'
p40
I5
sS'base_stat'
p41
I31
sbsS'stats'
p42
(lp43
(I31
I5
tp44
a(I13
I2
tp45
a(I6
I0
tp46
a(I15
I0
tp47
a(I18
I0
tp48
a(I13
I0
tp49
a(I8
I0
tp50
a(I7
I0
tp51
a(I7
I0
tp52
a(I6
I0
tp53
asS'event_id'
p54
S'Ophie'
p55
sS'faction'
p56
S'Resistance'
p57
sS'desc'
p58
S'A strong-hearted renegade who often acts before he thinks.'
p59
sS'tags'
p60
(lp61
S'Lord'
p62
asS'status_effects'
p63
(lp64
(dp65
S'count'
p66
NsS'time_left'
p67
NsS'upkeep_sc_count'
p68
NsS'children'
p69
(lp70
sS'parent_id'
p71
NsS'charge'
p72
NsS'rhythm_sc_count'
p73
Nsg22
S'Riposte'
p74
sa(dp75
g66
Nsg67
Nsg68
Nsg69
(lp76
sg71
Nsg72
Nsg73
Nsg22
S'Vantage'
p77
sa(dp78
g66
Nsg67
Nsg68
Nsg69
(lp79
sg71
Nsg72
Nsg73
Nsg22
S'fStrength +2'
p80
sa(dp81
g66
Nsg67
Nsg68
Nsg69
(lp82
sg71
Nsg72
Nsg73
Nsg22
S'fMaximum HP +5'
p83
sa(dp84
g66
Nsg67
Nsg68
Nsg69
(lp85
sg71
Nsg72
I0
sg73
Nsg22
S'Critical'
p86
sasS'records'
p87
(dp88
S'damage'
p89
I0
sS'kills'
p90
I0
sS'healing'
p91
I0
ssS'finished'
p92
I00
sS'u_id'
p93
g21
sS'wexp'
p94
(lp95
I60
aI0
aI0
aI0
aI0
aI0
aI0
asS'name'
p96
S'Ophie'
p97
sS'movement_group'
p98
I0
sS'level'
p99
I15
sS'gender'
p100
S'M'
sS'TRV'
p101
I0
sS'klass'
p102
S'Swordmaster'
p103
sS'exp'
p104
I64
sS'team'
p105
S'player'
p106
sS'position'
p107
Nsa(dp108
g7
S'None'
p109
sg9
(lp110
I65
aI15
aI65
aI40
aI55
aI80
aI25
aI80
asg11
I00
sg12
(lp111
(dp112
g15
Nsg16
I00
sg17
I00
sg18
I22
sg19
I00
sg20
S'Prim'
p113
sg22
S'Shine'
p114
sa(dp115
g15
Nsg16
I00
sg17
I00
sg18
I35
sg19
I00
sg20
g113
sg22
S'Flux'
p116
sa(dp117
g15
Nsg16
I00
sg17
I00
sg18
I15
sg19
I00
sg20
g113
sg22
S'Physic'
p118
sa(dp119
g15
Nsg16
I00
sg17
I00
sg18
I5
sg19
I00
sg20
g113
sg22
S'Rescue'
p120
sasg32
(lp121
I30
aI30
aI30
aI30
aI10
aI10
aI50
aI10
asg34
g35
(g36
g37
NtRp122
(dp123
g40
I5
sg41
I23
sbsg42
(lp124
(I23
I5
tp125
a(I2
I0
tp126
a(I12
I0
tp127
a(I10
I0
tp128
a(I13
I2
tp129
a(I15
I0
tp130
a(I7
I0
tp131
a(I17
I0
tp132
a(I4
I0
tp133
a(I6
I0
tp134
asg54
S'Prim'
p135
sg56
S'Resistance'
p136
sg58
S'A shy but kind-hearted young woman. Has an affinity with the spiritual.'
p137
sg60
(lp138
sg63
(lp139
(dp140
g66
Nsg67
Nsg68
Nsg69
(lp141
sg71
Nsg72
Nsg73
Nsg22
S'Healtouch'
p142
sa(dp143
g66
I1
sg67
Nsg68
Nsg69
(lp144
sg71
Nsg72
Nsg73
Nsg22
S'Miracle'
p145
sa(dp146
g66
Nsg67
Nsg68
Nsg69
(lp147
sg71
Nsg72
Nsg73
Nsg22
S'fMaximum HP +5'
p148
sa(dp149
g66
Nsg67
Nsg68
Nsg69
(lp150
sg71
Nsg72
Nsg73
Nsg22
S'fSpeed +2'
p151
sa(dp152
g66
Nsg67
Nsg68
Nsg69
(lp153
sg71
Nsg72
Nsg73
Nsg22
S'Futuresight'
p154
sasg87
(dp155
g89
I0
sg90
I0
sg91
I0
ssg92
I00
sg93
g113
sg94
(lp156
I0
aI0
aI0
aI0
aI58
aI0
aI16
asg96
S'Prim'
p157
sg98
I5
sg99
I15
sg100
S'F'
sg101
I0
sg102
S'Oracle'
p158
sg104
I37
sg105
S'player'
p159
sg107
Nsa(dp160
g7
S'None'
p161
sg9
(lp162
I105
aI80
aI5
aI60
aI55
aI45
aI35
aI20
asg11
I01
sg12
(lp163
sg32
(lp164
I0
aI50
aI0
aI50
aI0
aI0
aI0
aI50
asg34
g35
(g36
g37
NtRp165
(dp166
g40
I0
sg41
I36
sbsg42
(lp167
(I36
I0
tp168
a(I15
I0
tp169
a(I1
I0
tp170
a(I12
I3
tp171
a(I10
I0
tp172
a(I8
I0
tp173
a(I11
I2
tp174
a(I5
I0
tp175
a(I12
I0
tp176
a(I6
I0
tp177
asg54
S'0'
sg56
S'Resistance'
p178
sg58
S'A jovial former sailor. Always ready for a new adventure.'
p179
sg60
(lp180
sg63
(lp181
(dp182
g66
Nsg67
Nsg68
Nsg69
(lp183
sg71
Nsg72
I0
sg73
Nsg22
S'Cleave'
p184
sa(dp185
g66
Nsg67
Nsg68
Nsg69
(lp186
sg71
Nsg72
I0
sg73
Nsg22
S'Shove'
p187
sa(dp188
g66
Nsg67
Nsg68
Nsg69
(lp189
sg71
Nsg72
Nsg73
Nsg22
S'fSkill +3'
p190
sa(dp191
g66
Nsg67
Nsg68
Nsg69
(lp192
sg71
Nsg72
Nsg73
Nsg22
S'fDefense +2'
p193
sa(dp194
g66
Nsg67
Nsg68
Nsg69
(lp195
sg71
Nsg72
Nsg73
Nsg22
S'Heavy Hitter'
p196
sasg87
(dp197
g89
I0
sg90
I0
sg91
I0
ssg92
I00
sg93
S'Joel'
p198
sg94
(lp199
I0
aI0
aI58
aI16
aI0
aI0
aI0
asg96
S'Joel'
p200
sg98
I4
sg99
I15
sg100
S'M'
sg101
I0
sg102
S'Warrior'
p201
sg104
I67
sg105
S'player'
p202
sg107
Nsa(dp203
g7
S'None'
p204
sg9
(lp205
I80
aI55
aI35
aI80
aI80
aI25
aI20
aI40
asg11
I00
sg12
(lp206
(dp207
g15
Nsg16
I00
sg17
I00
sg18
I26
sg19
I00
sg20
S'Nia'
p208
sg22
S'Oak Bow'
p209
sa(dp210
g15
Nsg16
I00
sg17
I00
sg18
I16
sg19
I00
sg20
g208
sg22
S'Longbow'
p211
sa(dp212
g15
Nsg16
I00
sg17
I00
sg18
I42
sg19
I00
sg20
g208
sg22
S'Willow Bow'
p213
sa(dp214
g15
Nsg16
I00
sg17
I00
sg18
I3
sg19
I00
sg20
g208
sg22
S'Vulnerary'
p215
sasg32
(lp216
I50
aI0
aI0
aI50
aI50
aI0
aI50
aI50
asg34
g35
(g36
g37
NtRp217
(dp218
g40
I5
sg41
I26
sbsg42
(lp219
(I26
I5
tp220
a(I13
I2
tp221
a(I7
I0
tp222
a(I16
I0
tp223
a(I16
I0
tp224
a(I6
I0
tp225
a(I6
I0
tp226
a(I9
I0
tp227
a(I7
I0
tp228
a(I6
I0
tp229
asg54
S'0'
sg56
S'Resistance'
p230
sg58
S'A quiet archer most at home in the wilderness.'
p231
sg60
(lp232
sg63
(lp233
(dp234
g66
Nsg67
Nsg68
Nsg69
(lp235
sg71
Nsg72
Nsg73
Nsg22
S'Prescience'
p236
sa(dp237
g66
Nsg67
Nsg68
Nsg69
(lp238
sg71
Nsg72
I0
sg73
Nsg22
S'Critical'
p239
sa(dp240
g66
Nsg67
Nsg68
Nsg69
(lp241
sg71
Nsg72
Nsg73
Nsg22
g148
sa(dp242
g66
Nsg67
Nsg68
Nsg69
(lp243
sg71
Nsg72
Nsg73
Nsg22
S'fStrength +2'
p244
sa(dp245
g66
Nsg67
Nsg68
Nsg69
(lp246
sg71
Nsg72
Nsg73
Nsg22
S'Longshot'
p247
sasg87
(dp248
g89
I0
sg90
I0
sg91
I0
ssg92
I00
sg93
g208
sg94
(lp249
I0
aI0
aI0
aI64
aI0
aI0
aI0
asg96
S'Nia'
p250
sg98
I0
sg99
I15
sg100
S'F'
sg101
I0
sg102
S'Sniper'
p251
sg104
I39
sg105
S'player'
p252
sg107
Nsa(dp253
g7
S'None'
p254
sg9
(lp255
I60
aI15
aI85
aI40
aI60
aI60
aI20
aI55
asg11
I00
sg12
(lp256
(dp257
g15
Nsg16
I00
sg17
I00
sg18
I30
sg19
I00
sg20
S'Althea'
p258
sg22
S'Wind'
p259
sa(dp260
g15
Nsg16
I00
sg17
I00
sg18
I27
sg19
I00
sg20
g258
sg22
S'Earth'
p261
sa(dp262
g15
Nsg16
I00
sg17
I00
sg18
I21
sg19
I00
sg20
g258
sg22
S'Water'
p263
sa(dp264
g15
Nsg16
I00
sg17
I00
sg18
I13
sg19
I00
sg20
g258
sg22
S'Fire'
p265
sa(dp266
g15
Nsg16
I00
sg17
I00
sg18
I3
sg19
I00
sg20
g258
sg22
S'Vulnerary'
p267
sasg32
(lp268
I90
aI85
aI15
aI10
aI90
aI90
aI30
aI45
asg34
g35
(g36
g37
NtRp269
(dp270
g40
I5
sg41
I21
sbsg42
(lp271
(I21
I5
tp272
a(I2
I0
tp273
a(I17
I2
tp274
a(I9
I0
tp275
a(I13
I4
tp276
a(I13
I0
tp277
a(I8
I0
tp278
a(I12
I0
tp279
a(I4
I0
tp280
a(I6
I0
tp281
asg54
S'0'
sg56
S'Resistance'
p282
sg58
S'A forthright but elegant and refined sorceress.'
p283
sg60
(lp284
sg63
(lp285
(dp286
g66
Nsg67
Nsg68
Nsg69
(lp287
sg71
Nsg72
Nsg73
Nsg22
S'Focus'
p288
sa(dp289
g66
Nsg67
Nsg68
Nsg69
(lp290
sg71
Nsg72
Nsg73
Nsg22
S'fMaximum HP +5'
p291
sa(dp292
g66
Nsg67
Nsg68
Nsg69
(lp293
sg71
Nsg72
Nsg73
Nsg22
S'fMagic +2'
p294
sa(dp295
g66
Nsg67
Nsg68
Nsg69
(lp296
sg71
Nsg72
Nsg73
Nsg22
g151
sa(dp297
g66
Nsg67
Nsg68
Nsg69
(lp298
sg71
Nsg72
I0
sg73
Nsg22
S'Metamagic'
p299
sa(dp300
g66
Nsg67
Nsg68
Nsg69
(lp301
sg71
Nsg72
Nsg73
Nsg22
S'Speed +2'
p302
sasg87
(dp303
g89
I0
sg90
I0
sg91
I0
ssg92
I00
sg93
g258
sg94
(lp304
I0
aI0
aI0
aI0
aI0
aI53
aI0
asg96
S'Althea'
p305
sg98
I5
sg99
I15
sg100
S'F'
sg101
I0
sg102
S'Sage'
p306
sg104
I39
sg105
S'player'
p307
sg107
Nsa(dp308
g7
S'None'
p309
sg9
(lp310
I95
aI65
aI5
aI60
aI60
aI40
aI55
aI40
asg11
I00
sg12
(lp311
(dp312
g15
Nsg16
I00
sg17
I00
sg18
I30
sg19
I00
sg20
S'Drake'
p313
sg22
S'Steel Sword'
p314
sa(dp315
g15
Nsg16
I00
sg17
I00
sg18
I30
sg19
I00
sg20
g313
sg22
S'Steel Lance'
p316
sa(dp317
g15
Nsg16
I00
sg17
I00
sg18
I15
sg19
I00
sg20
g313
sg22
S'Short Spear'
p318
sa(dp319
g15
Nsg16
I00
sg17
I00
sg18
I45
sg19
I00
sg20
g313
sg22
S'Iron Lance'
p320
sa(dp321
g15
Nsg16
I00
sg17
I00
sg18
I3
sg19
I00
sg20
g313
sg22
S'Vulnerary'
p322
sasg32
(lp323
I10
aI70
aI90
aI30
aI30
aI70
aI90
aI70
asg34
g35
(g36
g37
NtRp324
(dp325
g40
I5
sg41
I28
sbsg42
(lp326
(I28
I5
tp327
a(I12
I0
tp328
a(I1
I0
tp329
a(I12
I0
tp330
a(I12
I2
tp331
a(I10
I0
tp332
a(I12
I0
tp333
a(I7
I0
tp334
a(I7
I0
tp335
a(I8
I0
tp336
asg54
S'0'
sg56
S'Resistance'
p337
sg58
S"A disgraced Imperial knight now in Althea's service."
p338
sg60
(lp339
sg63
(lp340
(dp341
g66
Nsg67
Nsg68
Nsg69
(lp342
sg71
Nsg72
Nsg73
Nsg22
S'Canto'
p343
sa(dp344
g66
Nsg67
Nsg68
Nsg69
(lp345
sg71
Nsg72
Nsg73
Nsg22
S'Savior'
p346
sa(dp347
g66
Nsg67
Nsg68
Nsg69
(lp348
sg71
Nsg72
Nsg73
Nsg22
g148
sa(dp349
g66
Nsg67
Nsg68
Nsg69
(lp350
sg71
Nsg72
Nsg73
Nsg22
g151
sa(dp351
g66
Nsg67
Nsg68
Nsg69
(lp352
sg71
Nsg72
Nsg73
Nsg22
S'Charisma'
p353
sasg87
(dp354
g89
I0
sg90
I0
sg91
I0
ssg92
I00
sg93
g313
sg94
(lp355
I27
aI28
aI0
aI0
aI0
aI0
aI0
asg96
S'Drake'
p356
sg98
I2
sg99
I15
sg100
S'M'
sg101
I0
sg102
S'Paladin'
p357
sg104
I66
sg105
S'player'
p358
sg107
Nsa(dp359
g7
S'None'
p360
sg9
(lp361
I95
aI40
aI60
aI55
aI95
aI65
aI35
aI55
asg11
I00
sg12
(lp362
(dp363
g15
Nsg16
I00
sg17
I00
sg18
I9
sg19
I00
sg20
S'Renae'
p364
sg22
S'Superior Edge'
p365
sa(dp366
g15
Nsg16
I00
sg17
I00
sg18
I14
sg19
I00
sg20
g364
sg22
S'Levin Sword'
p367
sa(dp368
g15
Nsg16
I00
sg17
I00
sg18
I40
sg19
I00
sg20
g364
sg22
S'Practice Blade'
p369
sa(dp370
g15
Nsg16
I00
sg17
I00
sg18
I23
sg19
I00
sg20
g364
sg22
S'Iron Sword'
p371
sa(dp372
g15
Nsg16
I00
sg17
I00
sg18
I3
sg19
I00
sg20
g364
sg22
S'Vulnerary'
p373
sasg32
(lp374
I10
aI70
aI30
aI90
aI10
aI70
aI30
aI90
asg34
g35
(g36
g37
NtRp375
(dp376
g40
I5
sg41
I26
sbsg42
(lp377
(I26
I5
tp378
a(I10
I0
tp379
a(I10
I0
tp380
a(I12
I0
tp381
a(I20
I2
tp382
a(I10
I0
tp383
a(I9
I0
tp384
a(I9
I0
tp385
a(I5
I0
tp386
a(I7
I0
tp387
asg54
S'0'
sg56
S'Kerala'
p388
sg58
S'An energetic thief with a kleptomanic streak.'
p389
sg60
(lp390
sg63
(lp391
(dp392
g66
Nsg67
Nsg68
Nsg69
(lp393
sg71
Nsg72
Nsg73
Nsg22
S'Locktouch'
p394
sa(dp395
g66
Nsg67
Nsg68
Nsg69
(lp396
sg71
Nsg72
Nsg73
Nsg22
S'Steal'
p397
sa(dp398
g66
Nsg67
Nsg68
Nsg69
(lp399
sg71
Nsg72
Nsg73
Nsg22
S'fMaximum HP +5'
p400
sa(dp401
g66
Nsg67
Nsg68
Nsg69
(lp402
sg71
Nsg72
Nsg73
Nsg22
g151
sa(dp403
g66
Nsg67
Nsg68
Nsg69
(lp404
sg71
Nsg72
Nsg73
Nsg22
S'Ghost'
p405
sa(dp406
g66
Nsg67
Nsg68
Nsg69
(lp407
sg71
Nsg72
Nsg73
Nsg22
S'Swordbreaker'
p408
sasg87
(dp409
g89
I0
sg90
I0
sg91
I0
ssg92
I00
sg93
g364
sg94
(lp410
I41
aI0
aI0
aI16
aI0
aI0
aI0
asg96
S'Renae'
p411
sg98
I0
sg99
I15
sg100
S'F'
sg101
I0
sg102
S'Assassin'
p412
sg104
I85
sg105
S'player'
p413
sg107
Nsa(dp414
g7
S'None'
p415
sg9
(lp416
I120
aI55
aI25
aI40
aI40
aI45
aI75
aI40
asg11
I00
sg12
(lp417
(dp418
g15
Nsg16
I00
sg17
I00
sg18
I25
sg19
I00
sg20
S'Theo'
p419
sg22
S'Great Lance'
p420
sa(dp421
g15
Nsg16
I00
sg17
I00
sg18
I20
sg19
I00
sg20
g419
sg22
S'Mithril Lance'
p422
sa(dp423
g15
Nsg16
I00
sg17
I00
sg18
I14
sg19
I00
sg20
g419
sg22
S'Axereaver'
p424
sa(dp425
g15
Nsg16
I00
sg17
I00
sg18
I45
sg19
I00
sg20
g419
sg22
S'Iron Lance'
p426
sa(dp427
g15
Nsg16
I00
sg17
I00
sg18
I3
sg19
I00
sg20
g419
sg22
S'Vulnerary'
p428
sasg32
(lp429
I10
aI90
aI50
aI70
aI70
aI10
aI50
aI70
asg34
g35
(g36
g37
NtRp430
(dp431
g40
I0
sg41
I34
sbsg42
(lp432
(I34
I0
tp433
a(I16
I0
tp434
a(I2
I0
tp435
a(I13
I0
tp436
a(I9
I0
tp437
a(I9
I0
tp438
a(I17
I0
tp439
a(I8
I2
tp440
a(I11
I0
tp441
a(I5
I1
tp442
asg54
S'0'
sg56
S'Resistance'
p443
sg58
S'An avid scholar. Interested in esoteric philosophy.'
p444
sg60
(lp445
sg63
(lp446
(dp447
g66
Nsg67
Nsg68
Nsg69
(lp448
sg71
Nsg72
Nsg73
Nsg22
S'Provoke'
p449
sa(dp450
g66
Nsg67
Nsg68
Nsg69
(lp451
sg71
Nsg72
I0
sg73
Nsg22
S'Shove'
p452
sa(dp453
g66
Nsg67
Nsg68
Nsg69
(lp454
sg71
Nsg72
Nsg73
Nsg22
S'fMovement +1'
p455
sa(dp456
g66
Nsg67
Nsg68
Nsg69
(lp457
sg71
Nsg72
Nsg73
Nsg22
S'fResistance +2'
p458
sa(dp459
g66
Nsg67
Nsg68
Nsg69
(lp460
sg71
Nsg72
Nsg73
Nsg22
S'Slow'
p461
sasg87
(dp462
g89
I0
sg90
I0
sg91
I0
ssg92
I00
sg93
g419
sg94
(lp463
I16
aI45
aI0
aI0
aI0
aI0
aI0
asg96
S'Theo'
p464
sg98
I1
sg99
I15
sg100
S'M'
sg101
I0
sg102
S'General'
p465
sg104
I59
sg105
S'player'
p466
sg107
Nsa(dp467
g7
S'None'
p468
sg9
(lp469
I75
aI65
aI65
aI80
aI65
aI35
aI65
aI35
asg11
I00
sg12
(lp470
(dp471
g15
Nsg16
I00
sg17
I00
sg18
I24
sg19
I00
sg20
S'Eliza'
p472
sg22
S'Great Lance'
p473
sa(dp474
g15
Nsg16
I00
sg17
I00
sg18
I19
sg19
I00
sg20
g472
sg22
S'Mithril Lance'
p475
sa(dp476
g15
Nsg16
I00
sg17
I00
sg18
I11
sg19
I00
sg20
g472
sg22
S'Short Spear'
p477
sa(dp478
g15
Nsg16
I00
sg17
I00
sg18
I27
sg19
I00
sg20
g472
sg22
S'Iron Axe'
p479
sa(dp480
g15
Nsg16
I00
sg17
I00
sg18
I3
sg19
I00
sg20
g472
sg22
S'Vulnerary'
p481
sasg32
(lp482
I50
aI30
aI30
aI10
aI30
aI70
aI30
aI70
asg34
g35
(g36
g37
NtRp483
(dp484
g40
I0
sg41
I27
sbsg42
(lp485
(I27
I0
tp486
a(I14
I0
tp487
a(I10
I0
tp488
a(I17
I0
tp489
a(I17
I2
tp490
a(I7
I0
tp491
a(I14
I2
tp492
a(I8
I0
tp493
a(I10
I0
tp494
a(I6
I1
tp495
asg54
S'0'
sg56
S'Resistance'
p496
sg58
S'A moody, sarcastic soldier.'
p497
sg60
(lp498
sg63
(lp499
(dp500
g66
Nsg67
Nsg68
Nsg69
(lp501
sg71
Nsg72
Nsg73
Nsg22
S'Synergy'
p502
sa(dp503
g66
Nsg67
Nsg68
Nsg69
(lp504
sg71
Nsg72
Nsg73
Nsg22
S'fDefense +2'
p505
sa(dp506
g66
Nsg67
Nsg68
Nsg69
(lp507
sg71
Nsg72
Nsg73
Nsg22
S'fSpeed +2'
p508
sa(dp509
g66
Nsg67
Nsg68
Nsg69
(lp510
sg71
Nsg72
Nsg73
Nsg22
S'fMovement +1'
p511
sa(dp512
g66
Nsg67
Nsg68
Nsg69
(lp513
sg71
Nsg72
I0
sg73
Nsg22
S'Luna'
p514
sasg87
(dp515
g89
I0
sg90
I0
sg91
I0
ssg92
I00
sg93
g472
sg94
(lp516
I0
aI44
aI16
aI0
aI0
aI0
aI0
asg96
S'Eliza'
p517
sg98
I1
sg99
I15
sg100
S'F'
sg101
I0
sg102
S'Halberdier'
p518
sg104
I89
sg105
S'player'
p519
sg107
Nsa(dp520
g7
S'None'
p521
sg9
(lp522
I65
aI15
aI35
aI45
aI55
aI55
aI40
aI65
asg11
I00
sg12
(lp523
(dp524
g15
Nsg16
I00
sg17
I00
sg18
I22
sg19
I00
sg20
S'Sam'
p525
sg22
S'Glimmer'
p526
sa(dp527
g15
Nsg16
I00
sg17
I00
sg18
I15
sg19
I00
sg20
g525
sg22
S'Physic'
p528
sa(dp529
g15
Nsg16
I00
sg17
I00
sg18
I10
sg19
I00
sg20
g525
sg22
S'Restore'
p530
sa(dp531
g15
Nsg16
I00
sg17
I00
sg18
I15
sg19
I00
sg20
g525
sg22
S'Mend'
p532
sasg32
(lp533
I40
aI40
aI60
aI20
aI80
aI80
aI90
aI40
asg34
g35
(g36
g37
NtRp534
(dp535
g40
I5
sg41
I26
sbsg42
(lp536
(I26
I5
tp537
a(I4
I0
tp538
a(I11
I0
tp539
a(I12
I0
tp540
a(I13
I2
tp541
a(I10
I0
tp542
a(I8
I0
tp543
a(I14
I0
tp544
a(I11
I0
tp545
a(I7
I0
tp546
asg54
S'Sam'
p547
sg56
S'Resistance'
p548
sg58
S"The resistance's leader. Ambitious and inquisitive."
p549
sg60
(lp550
sg63
(lp551
(dp552
g66
Nsg67
Nsg68
Nsg69
(lp553
sg71
Nsg72
Nsg73
Nsg22
S'Inspiration'
p554
sa(dp555
g66
Nsg67
Nsg68
Nsg69
(lp556
sg71
Nsg72
Nsg73
Nsg22
S'Skill_Aura'
p557
sa(dp558
g66
Nsg67
Nsg68
Nsg69
(lp559
sg71
Nsg72
Nsg73
Nsg22
g400
sa(dp560
g66
Nsg67
Nsg68
Nsg69
(lp561
sg71
Nsg72
Nsg73
Nsg22
g151
sa(dp562
g66
Nsg67
Nsg68
Nsg69
(lp563
sg71
Nsg72
I0
sg73
Nsg22
S'Rally'
p564
sasg87
(dp565
g89
I0
sg90
I0
sg91
I0
ssg92
I00
sg93
g525
sg94
(lp566
I0
aI0
aI0
aI0
aI62
aI0
aI0
asg96
S'Sam'
p567
sg98
I3
sg99
I15
sg100
S'M'
sg101
I0
sg102
S'Strategist'
p568
sg104
I77
sg105
S'player'
p569
sg107
Nsa(dp570
g7
S'None'
p571
sg9
(lp572
I55
aI5
aI65
aI55
aI45
aI35
aI40
aI55
asg11
I00
sg12
(lp573
(dp574
g15
Nsg16
I00
sg17
I00
sg18
I15
sg19
I00
sg20
S'Kayla'
p575
sg22
S'Ruin'
p576
sa(dp577
g15
Nsg16
I00
sg17
I00
sg18
I18
sg19
I00
sg20
g575
sg22
S'Nyx'
p578
sa(dp579
g15
Nsg16
I00
sg17
I00
sg18
I30
sg19
I00
sg20
g575
sg22
S'Flux'
p580
sa(dp581
g15
Nsg16
I00
sg17
I00
sg18
I10
sg19
I00
sg20
g575
sg22
S'Scathe'
p582
sa(dp583
g15
Nsg16
I00
sg17
I00
sg18
I3
sg19
I00
sg20
g575
sg22
S'Vulnerary'
p584
sasg32
(lp585
I80
aI80
aI40
aI80
aI20
aI60
aI90
aI80
asg34
g35
(g36
g37
NtRp586
(dp587
g40
I0
sg41
I26
sbsg42
(lp588
(I26
I0
tp589
a(I1
I0
tp590
a(I13
I0
tp591
a(I13
I0
tp592
a(I11
I2
tp593
a(I8
I0
tp594
a(I9
I0
tp595
a(I12
I0
tp596
a(I8
I0
tp597
a(I5
I1
tp598
asg54
S'Kayla'
p599
sg56
S'Resistance'
p600
sg58
S'A scheming diplomat from the Confederacy.'
p601
sg60
(lp602
sg63
(lp603
(dp604
g66
Nsg67
Nsg68
Nsg69
(lp605
sg71
Nsg72
Nsg73
Nsg22
S'Hex'
p606
sa(dp607
g66
Nsg67
Nsg68
Nsg69
(lp608
sg71
Nsg72
Nsg73
Nsg22
S'Empowered'
p609
sa(dp610
g66
Nsg67
Nsg68
Nsg69
(lp611
sg71
Nsg72
Nsg73
Nsg22
S'fSpeed +2'
p612
sa(dp613
g66
Nsg67
Nsg68
Nsg69
(lp614
sg71
Nsg72
Nsg73
Nsg22
g511
sa(dp615
g66
Nsg67
Nsg68
Nsg69
(lp616
sg71
Nsg72
I0
sg73
Nsg22
S'Metamagic'
p617
sasg87
(dp618
g89
I0
sg90
I0
sg91
I0
ssg92
I00
sg93
g575
sg94
(lp619
I0
aI0
aI0
aI0
aI0
aI0
aI61
asg96
S'Kayla'
p620
sg98
I5
sg99
I15
sg100
S'F'
sg101
I0
sg102
S'Warlock'
p621
sg104
I3
sg105
S'player'
p622
sg107
Nsa(dp623
g7
S'Pursue'
p624
sg9
(lp625
I120
aI65
aI5
aI55
aI40
aI20
aI35
aI20
asg11
I00
sg12
(lp626
(dp627
g15
Nsg16
I00
sg17
I00
sg18
I24
sg19
I00
sg20
S'Coyote'
p628
sg22
S'Steel Axe'
p629
sa(dp630
g15
Nsg16
I00
sg17
I00
sg18
I11
sg19
I00
sg20
g628
sg22
S'Steel Knife'
p631
sa(dp632
g15
Nsg16
I00
sg17
I00
sg18
I35
sg19
I00
sg20
g628
sg22
S'Hatchet'
p633
sa(dp634
g15
Nsg16
I00
sg17
I00
sg18
I12
sg19
I00
sg20
g628
sg22
S'Hand Axe'
p635
sa(dp636
g15
Nsg16
I00
sg17
I00
sg18
I2
sg19
I00
sg20
g628
sg22
S'Potion'
p637
sasg32
(lp638
I50
aI75
aI75
aI25
aI50
aI50
aI25
aI50
asg34
g35
(g36
g37
NtRp639
(dp640
g40
I5
sg41
I30
sbsg42
(lp641
(I30
I5
tp642
a(I12
I2
tp643
a(I0
I0
tp644
a(I16
I0
tp645
a(I13
I0
tp646
a(I5
I0
tp647
a(I9
I0
tp648
a(I5
I0
tp649
a(I8
I0
tp650
a(I6
I0
tp651
asg54
S'0'
sg56
S'Resistance'
p652
sg58
S'A troubled wandererer with a mysterious past.'
p653
sg60
(lp654
sg63
(lp655
(dp656
g66
Nsg67
Nsg68
Nsg69
(lp657
sg71
Nsg72
Nsg73
Nsg22
S'Initiative'
p658
sa(dp659
g66
Nsg67
Nsg68
Nsg69
(lp660
sg71
Nsg72
Nsg73
Nsg22
S'Poise'
p661
sa(dp662
g66
Nsg67
Nsg68
Nsg69
(lp663
sg71
Nsg72
Nsg73
Nsg22
S'fMaximum HP +5'
p664
sa(dp665
g66
Nsg67
Nsg68
Nsg69
(lp666
sg71
Nsg72
Nsg73
Nsg22
g244
sa(dp667
g66
Nsg67
Nsg68
Nsg69
(lp668
sg71
Nsg72
I0
sg73
Nsg22
S'Sol'
p669
sasg87
(dp670
g89
I0
sg90
I0
sg91
I0
ssg92
I00
sg93
g628
sg94
(lp671
I57
aI0
aI16
aI0
aI0
aI0
aI0
asg96
S'Coyote'
p672
sg98
I4
sg99
I15
sg100
S'M'
sg101
I0
sg102
S'Vanguard'
p673
sg104
I84
sg105
S'player'
p674
sg107
NsasS'convoy'
p675
(lp676
(dp677
g15
Nsg16
I00
sg17
I00
sg18
I3
sg19
I00
sg20
I0
sg22
S'Spiritbane'
p678
sa(dp679
g15
Nsg16
I00
sg17
I00
sg18
I1
sg19
I00
sg20
I0
sg22
S'Secret Book'
p680
sa(dp681
g15
Nsg16
I00
sg17
I00
sg18
I1
sg19
I00
sg20
I0
sg22
S'Angelic Robe'
p682
sa(dp683
g15
Nsg16
I00
sg17
I00
sg18
I1
sg19
I00
sg20
I0
sg22
S'Mana Ring'
p684
sa(dp685
g15
Nsg16
I00
sg17
I00
sg18
I1
sg19
I00
sg20
I0
sg22
S'Talisman'
p686
sa(dp687
g15
Nsg16
I00
sg17
I00
sg18
I15
sg19
I00
sg20
I0
sg22
S'Magebane Sword'
p688
sa(dp689
g15
Nsg16
I00
sg17
I00
sg18
I1
sg19
I00
sg20
I0
sg22
S'Speedwings'
p690
sa(dp691
g15
Nsg16
I00
sg17
I00
sg18
I2
sg19
I00
sg20
I0
sg22
S'Spiritbane'
p692
sa(dp693
g15
Nsg16
I00
sg17
I00
sg18
I3
sg19
I00
sg20
I0
sg22
S'Disintegrate'
p694
sa(dp695
g15
Nsg16
I00
sg17
I00
sg18
I14
sg19
I00
sg20
I0
sg22
S'Swordreaver'
p696
sa(dp697
g15
Nsg16
I00
sg17
I00
sg18
I1
sg19
I00
sg20
I0
sg22
S'Energy Ring'
p698
sa(dp699
g15
Nsg16
I00
sg17
I00
sg18
Nsg19
I00
sg20
I0
sg22
S"Prim's Charm"
p700
sa(dp701
g15
Nsg16
I00
sg17
I00
sg18
I10
sg19
I00
sg20
I0
sg22
S'Fortune'
p702
sa(dp703
g15
Nsg16
I00
sg17
I00
sg18
I10
sg19
I00
sg20
I0
sg22
S'Howl'
p704
sa(dp705
g15
Nsg16
I00
sg17
I00
sg18
I1
sg19
I00
sg20
I0
sg22
S'Skeleton Key'
p706
sa(dp707
g15
Nsg16
I00
sg17
I00
sg18
I10
sg19
I00
sg20
I0
sg22
S'Wyrmsfire'
p708
sa(dp709
g15
Nsg16
I00
sg17
I00
sg18
I20
sg19
I00
sg20
I0
sg22
S'Javelin'
p710
sa(dp711
g15
Nsg16
I00
sg17
I00
sg18
I10
sg19
I00
sg20
I0
sg22
S'Fortune'
p712
sa(dp713
g15
Nsg16
I00
sg17
I00
sg18
I26
sg19
I00
sg20
I0
sg22
S'Heal'
p714
sa(dp715
g15
Nsg16
I00
sg17
I00
sg18
I15
sg19
I00
sg20
I0
sg22
S'Corona'
p716
sa(dp717
g15
Nsg16
I00
sg17
I00
sg18
I20
sg19
I00
sg20
I0
sg22
S'Javelin'
p718
sa(dp719
g15
Nsg16
I00
sg17
I00
sg18
I23
sg19
I00
sg20
I0
sg22
S'Hatchet'
p720
sa(dp721
g15
Nsg16
I00
sg17
I00
sg18
I4
sg19
I00
sg20
I0
sg22
S'Mend'
p722
sa(dp723
g15
Nsg16
I00
sg17
I00
sg18
I18
sg19
I00
sg20
I0
sg22
S'Wind'
p724
sa(dp725
g15
Nsg16
I00
sg17
I00
sg18
I13
sg19
I00
sg20
I0
sg22
S'Javelin'
p726
sa(dp727
g15
Nsg16
I00
sg17
I00
sg18
I4
sg19
I00
sg20
I0
sg22
S'Wyrmsfire'
p728
sa(dp729
g15
Nsg16
I00
sg17
I00
sg18
I3
sg19
I00
sg20
I0
sg22
S'Scathe'
p730
sa(dp731
g15
Nsg16
I00
sg17
I00
sg18
I2
sg19
I00
sg20
I0
sg22
S'Vulnerary'
p732
sa(dp733
g15
Nsg16
I00
sg17
I00
sg18
I20
sg19
I00
sg20
I0
sg22
S'Slim Lance'
p734
sa(dp735
g15
Nsg16
I00
sg17
I00
sg18
I1
sg19
I00
sg20
I0
sg22
S'Energy Ring'
p736
sa(dp737
g15
Nsg16
I00
sg17
I00
sg18
Nsg19
I00
sg20
I0
sg22
S"Althea's Charm"
p738
sa(dp739
g15
Nsg16
I00
sg17
I00
sg18
I1
sg19
I00
sg20
I0
sg22
S'Secret Book'
p740
sasS'groups'
p741
(dp742
sS'allreinforcements'
p743
(dp744
sS'base_conversations'
p745
ccollections
OrderedDict
p746
((ltRp747
sS'playtime'
p748
I35949806
sS'message'
p749
(lp750
sS'unlocked_lore'
p751
(lp752
S'Sam'
p753
aS'Joel'
p754
aS'Prim'
p755
aS'Ophie'
p756
aS'Althea'
p757
aS'Drake'
p758
aS'Nia'
p759
aS'Renae'
p760
aS'Theo'
p761
aS'Kerala'
p762
aS'Empire'
p763
aS'Eliza'
p764
aS'Podoma'
p765
aS'Rajas'
p766
aS'Ulver'
p767
aS'Vagnius'
p768
aS'CFS'
p769
aS'Kayla'
p770
aS'CFS'
p771
aS'Kayla'
p772
aS'Tyrana'
p773
aS'Coyote'
p774
asS'statistics'
p775
(lp776
g35
(cCode.CustomObjects
LevelStatistic
p777
g37
NtRp778
(dp779
S'turncount'
p780
I4
sg42
(dp781
g97
(dp782
S'damage'
p783
I13
sS'kills'
p784
I2
sS'healing'
p785
I0
ssg157
(dp786
g783
I8
sg784
I0
sg785
I7
sssg96
S'Prologue'
p787
sbag35
(g777
g37
NtRp788
(dp789
g780
I4
sg42
(dp790
g97
(dp791
g783
I39
sg784
I4
sg785
I0
ssg200
(dp792
g783
I48
sg784
I1
sg785
I0
ssg250
(dp793
g783
I30
sg784
I2
sg785
I0
ssg157
(dp794
g783
I8
sg784
I2
sg785
I12
sssg96
S'Chapter I'
p795
sbag35
(g777
g37
NtRp796
(dp797
g780
I9
sg42
(dp798
g305
(dp799
S'damage'
p800
I67
sS'kills'
p801
I3
sS'healing'
p802
I0
ssg157
(dp803
S'damage'
p804
I4
sS'kills'
p805
I0
sS'healing'
p806
I43
ssg200
(dp807
g804
I52
sg805
I4
sg806
I0
ssg250
(dp808
g804
I14
sg805
I2
sg806
I0
ssg356
(dp809
g800
I44
sg801
I3
sg802
I0
ssg97
(dp810
g804
I21
sg805
I3
sg806
I0
sssg96
S'Chapter II'
p811
sbag35
(g777
g37
NtRp812
(dp813
g780
I15
sg42
(dp814
g464
(dp815
S'damage'
p816
I81
sS'kills'
p817
I1
sS'healing'
p818
I0
ssg305
(dp819
S'damage'
p820
I45
sS'kills'
p821
I5
sS'healing'
p822
I0
ssg157
(dp823
g820
I16
sg821
I0
sg822
I61
ssg200
(dp824
g820
I64
sg821
I3
sg822
I0
ssg250
(dp825
g820
I58
sg821
I3
sg822
I0
ssg411
(dp826
g816
I8
sg817
I3
sg818
I0
ssg356
(dp827
g820
I35
sg821
I2
sg822
I0
ssg97
(dp828
g820
I70
sg821
I6
sg822
I0
sssg96
S'Chapter III'
p829
sbag35
(g777
g37
NtRp830
(dp831
g780
I9
sg42
(dp832
g464
(dp833
S'damage'
p834
I61
sS'kills'
p835
I4
sS'healing'
p836
I0
ssg305
(dp837
g834
I125
sg835
I8
sg836
I0
ssg157
(dp838
g834
I5
sg835
I0
sg836
I44
ssg200
(dp839
g834
I47
sg835
I2
sg836
I0
ssg250
(dp840
g834
I51
sg835
I2
sg836
I0
ssg411
(dp841
g834
I54
sg835
I5
sg836
I0
ssg356
(dp842
g834
I58
sg835
I2
sg836
I0
ssg97
(dp843
g834
I47
sg835
I5
sg836
I0
ssg517
(dp844
S'damage'
p845
I52
sS'kills'
p846
I7
sS'healing'
p847
I0
sssg96
S'Chapter IV'
p848
sbag35
(g777
g37
NtRp849
(dp850
g780
I15
sg42
(dp851
g464
(dp852
S'damage'
p853
I18
sS'kills'
p854
I3
sS'healing'
p855
I0
ssg305
(dp856
g853
I137
sg854
I7
sg855
I0
ssg157
(dp857
g853
I0
sg854
I0
sg855
I73
ssg567
(dp858
S'damage'
p859
I43
sS'kills'
p860
I2
sS'healing'
p861
I8
ssg200
(dp862
g853
I41
sg854
I0
sg855
I0
ssg250
(dp863
g853
I25
sg854
I3
sg855
I0
ssg411
(dp864
g853
I132
sg854
I6
sg855
I0
ssg356
(dp865
g853
I24
sg854
I1
sg855
I0
ssg620
(dp866
g859
I45
sg860
I1
sg861
I0
ssg97
(dp867
g853
I69
sg854
I5
sg855
I0
ssg517
(dp868
g853
I20
sg854
I3
sg855
I0
sssg96
S'Chapter V'
p869
sbag35
(g777
g37
NtRp870
(dp871
g780
I20
sg42
(dp872
g464
(dp873
S'damage'
p874
I83
sS'kills'
p875
I4
sS'healing'
p876
I0
ssg305
(dp877
g874
I175
sg875
I6
sg876
I0
ssg157
(dp878
g874
I33
sg875
I1
sg876
I113
ssg567
(dp879
g874
I72
sg875
I5
sg876
I51
ssg200
(dp880
g874
I123
sg875
I5
sg876
I0
ssg250
(dp881
g874
I118
sg875
I9
sg876
I0
ssg411
(dp882
g874
I33
sg875
I2
sg876
I0
ssg356
(dp883
g874
I39
sg875
I4
sg876
I0
ssg620
(dp884
g874
I115
sg875
I5
sg876
I0
ssg672
(dp885
S'damage'
p886
I83
sS'kills'
p887
I3
sS'healing'
p888
I0
ssg97
(dp889
g874
I152
sg875
I12
sg876
I0
ssg517
(dp890
g874
I97
sg875
I6
sg876
I0
sssg96
S'Chapter VI'
p891
sbag35
(g777
g37
NtRp892
(dp893
g780
I1
sg42
(dp894
g464
(dp895
S'damage'
p896
I0
sS'kills'
p897
I0
sS'healing'
p898
I0
ssg305
(dp899
g896
I0
sg897
I0
sg898
I0
ssg157
(dp900
g896
I0
sg897
I0
sg898
I0
ssg567
(dp901
g896
I0
sg897
I0
sg898
I0
ssg200
(dp902
g896
I0
sg897
I0
sg898
I0
ssg250
(dp903
g896
I0
sg897
I0
sg898
I0
ssg411
(dp904
g896
I0
sg897
I0
sg898
I0
ssg356
(dp905
g896
I0
sg897
I0
sg898
I0
ssg620
(dp906
g896
I0
sg897
I0
sg898
I0
ssg672
(dp907
g896
I0
sg897
I0
sg898
I0
ssg97
(dp908
g896
I0
sg897
I0
sg898
I0
ssg517
(dp909
g896
I0
sg897
I0
sg898
I0
sssg96
S'Chapter VII'
p910
sbag35
(g777
g37
NtRp911
(dp912
g780
I1
sg42
(dp913
g464
(dp914
S'damage'
p915
I0
sS'kills'
p916
I0
sS'healing'
p917
I0
ssg305
(dp918
g915
I0
sg916
I0
sg917
I0
ssg157
(dp919
g915
I0
sg916
I0
sg917
I0
ssg567
(dp920
g915
I0
sg916
I0
sg917
I0
ssg200
(dp921
g915
I0
sg916
I0
sg917
I0
ssg250
(dp922
g915
I0
sg916
I0
sg917
I0
ssg411
(dp923
g915
I0
sg916
I0
sg917
I0
ssg356
(dp924
g915
I0
sg916
I0
sg917
I0
ssg620
(dp925
g915
I0
sg916
I0
sg917
I0
ssg672
(dp926
g915
I0
sg916
I0
sg917
I0
ssg97
(dp927
g915
I0
sg916
I0
sg917
I0
ssg517
(dp928
g915
I0
sg916
I0
sg917
I0
sssg96
S'Chapter VIII'
p929
sbag35
(g777
g37
NtRp930
(dp931
g780
I1
sg42
(dp932
g464
(dp933
S'damage'
p934
I0
sS'kills'
p935
I0
sS'healing'
p936
I0
ssg305
(dp937
g934
I0
sg935
I0
sg936
I0
ssg157
(dp938
g934
I0
sg935
I0
sg936
I0
ssg567
(dp939
g934
I0
sg935
I0
sg936
I0
ssg200
(dp940
g934
I0
sg935
I0
sg936
I0
ssg250
(dp941
g934
I0
sg935
I0
sg936
I0
ssg411
(dp942
g934
I0
sg935
I0
sg936
I0
ssg356
(dp943
g934
I0
sg935
I0
sg936
I0
ssg620
(dp944
g934
I0
sg935
I0
sg936
I0
ssg672
(dp945
g934
I0
sg935
I0
sg936
I0
ssg97
(dp946
g934
I0
sg935
I0
sg936
I0
ssg517
(dp947
g934
I0
sg935
I0
sg936
I0
sssg96
S'Chapter IX'
p948
sbasS'market_items'
p949
c__builtin__
set
p950
((lp951
S'Nyx'
p952
aS'Great Bow'
p953
aS'Mithril Lance'
p954
aS'Ruin'
p955
aS'Mithril Axe'
p956
aS'Oak Longbow'
p957
aS'Wyrmsfire'
p958
aS'Glimmer'
p959
aS'Mend'
p960
aS'Spiritbane'
p961
aS'Yew Bow'
p962
aS'Potion'
p963
aS'Fire'
p964
aS'Heal'
p965
aS'Great Lance'
p966
aS'Water'
p967
aS'Hand Axe'
p968
aS'Great Axe'
p969
aS'Physic'
p970
aS'Iron Sword'
p971
aS'Shine'
p972
aS'Short Spear'
p973
aS'Iron Lance'
p974
aS'Hex'
p975
aS'Hatchet'
p976
aS'Vulnerary'
p977
aS'Willow Bow'
p978
aS'Barkskin'
p979
aS'Corona'
p980
aS'Flux'
p981
aS'Slim Lance'
p982
aS'Mithril Sword'
p983
aS'Elixir'
p984
aS'Short Axe'
p985
aS'Wind'
p986
aS'Steel Lance'
p987
aS'Longbow'
p988
aS'Iron Knife'
p989
aS'Scathe'
p990
aS'Oak Bow'
p991
aS'Steel Sword'
p992
aS'Javelin'
p993
aS'Steel Axe'
p994
aS'Earth'
p995
aS'Great Sword'
p996
aS'Steel Knife'
p997
aS'Iron Axe'
p998
atRp999
sS'support'
p1000
NsS'event_triggers'
p1001
(lp1002
sS'objective'
p1003
NsS'metaDataObj_changes'
p1004
(lp1005
sS'counters'
p1006
(dp1007
S'Dead_Wagons'
p1008
I12
sS'line_cross'
p1009
I12
sS'level'
p1010
I10
sS'money'
p1011
I123
sS'switches'
p1012
I2
sS'Civ_Escape'
p1013
I2
sS'Escaped_Wagons'
p1014
I0
ssS'map'
p1015
NsS'state_list'
p1016
((lp1017
S'turn_change'
p1018
a(ltp1019
sS'prefabs'
p1020
(lp1021
sS'phase_info'
p1022
(I0
I3
tp1023
sg780
I0
sS'game_constants'
p1024
(lp1025
S'Convoy'
p1026
as.