(dp1
S'talk_options'
p2
(lp3
sS'allunits'
p4
(lp5
(dp6
S'ai'
p7
S'None'
p8
sS'growths'
p9
(lp10
I105
aI55
aI35
aI75
aI80
aI80
aI40
aI40
asS'dead'
p11
I00
sS'items'
p12
(lp13
(dp14
S'c_uses'
p15
NsS'locked'
p16
I00
sS'droppable'
p17
I00
sS'uses'
p18
I15
sS'event_combat'
p19
I00
sS'owner'
p20
S'Ophie'
p21
sS'id'
p22
S'Magebane Sword'
p23
sa(dp24
g15
Nsg16
I00
sg17
I00
sg18
I30
sg19
I00
sg20
g21
sg22
S'Brave Sword'
p25
sa(dp26
g15
Nsg16
I00
sg17
I00
sg18
I15
sg19
I00
sg20
g21
sg22
S'Lancereaver'
p27
sa(dp28
g15
Nsg16
I00
sg17
I00
sg18
I40
sg19
I00
sg20
g21
sg22
S'Practice Blade'
p29
sa(dp30
g15
Nsg16
I00
sg17
I00
sg18
I15
sg19
I00
sg20
g21
sg22
S'Iron Knife'
p31
sasS'growth_points'
p32
(lp33
I5
aI55
aI35
aI75
aI30
aI30
aI90
aI90
asS'currenthp'
p34
I36
sS'stats'
p35
(lp36
(I31
I5
tp37
a(I15
I2
tp38
a(I6
I0
tp39
a(I15
I0
tp40
a(I18
I0
tp41
a(I13
I0
tp42
a(I8
I0
tp43
a(I7
I10
tp44
a(I7
I0
tp45
a(I6
I0
tp46
asS'event_id'
p47
S'Ophie'
p48
sS'faction'
p49
S'Resistance'
p50
sS'desc'
p51
S'A strong-hearted renegade who often acts before he thinks.'
p52
sS'tags'
p53
(lp54
S'Lord'
p55
asS'status_effects'
p56
(lp57
(dp58
S'count'
p59
NsS'time_left'
p60
NsS'upkeep_sc_count'
p61
NsS'children'
p62
(lp63
sS'parent_id'
p64
NsS'charge'
p65
NsS'rhythm_sc_count'
p66
Nsg22
S'Riposte'
p67
sa(dp68
g59
Nsg60
Nsg61
Nsg62
(lp69
sg64
Nsg65
Nsg66
Nsg22
S'Vantage'
p70
sa(dp71
g59
Nsg60
Nsg61
Nsg62
(lp72
sg64
Nsg65
Nsg66
Nsg22
S'fStrength +2'
p73
sa(dp74
g59
Nsg60
Nsg61
Nsg62
(lp75
sg64
Nsg65
Nsg66
Nsg22
S'fMaximum HP +5'
p76
sa(dp77
g59
Nsg60
Nsg61
Nsg62
(lp78
sg64
Nsg65
I0
sg66
Nsg22
S'Critical'
p79
sa(dp80
g59
Nsg60
Nsg61
Nsg62
(lp81
sg64
Nsg65
Nsg66
Nsg22
S'Resistance +10'
p82
sasS'records'
p83
(dp84
S'damage'
p85
I0
sS'kills'
p86
I0
sS'healing'
p87
I0
ssS'finished'
p88
I00
sS'u_id'
p89
g21
sS'wexp'
p90
(lp91
I80
aI0
aI0
aI0
aI0
aI0
aI0
asS'name'
p92
S'Ophie'
p93
sS'movement_group'
p94
I0
sS'level'
p95
I15
sS'gender'
p96
S'M'
sS'TRV'
p97
I0
sS'klass'
p98
S'Swordmaster'
p99
sS'exp'
p100
I64
sS'team'
p101
S'player'
p102
sS'position'
p103
(I14
I21
tp104
sa(dp105
g7
S'None'
p106
sg9
(lp107
I65
aI15
aI65
aI40
aI55
aI80
aI25
aI80
asg11
I00
sg12
(lp108
(dp109
g15
Nsg16
I00
sg17
I00
sg18
I5
sg19
I00
sg20
S'Prim'
p110
sg22
S'Rescue'
p111
sa(dp112
g15
Nsg16
I00
sg17
I00
sg18
I15
sg19
I00
sg20
g110
sg22
S'Physic'
p113
sa(dp114
g15
Nsg16
I00
sg17
I00
sg18
I10
sg19
I00
sg20
g110
sg22
S'Fortune'
p115
sa(dp116
g15
Nsg16
I00
sg17
I00
sg18
I26
sg19
I00
sg20
g110
sg22
S'Heal'
p117
sa(dp118
g15
Nsg16
I00
sg17
I00
sg18
I22
sg19
I00
sg20
g110
sg22
S'Shine'
p119
sasg32
(lp120
I30
aI30
aI30
aI30
aI10
aI10
aI50
aI10
asg34
ccopy_reg
_reconstructor
p121
(cCode.UnitObject
Stat
p122
c__builtin__
object
p123
NtRp124
(dp125
S'bonuses'
p126
I5
sS'base_stat'
p127
I23
sbsg35
(lp128
(I23
I5
tp129
a(I2
I0
tp130
a(I12
I0
tp131
a(I10
I0
tp132
a(I13
I2
tp133
a(I15
I0
tp134
a(I7
I0
tp135
a(I17
I0
tp136
a(I4
I0
tp137
a(I6
I0
tp138
asg47
S'Prim'
p139
sg49
S'Resistance'
p140
sg51
S'A shy but kind-hearted young woman. Has an affinity with the spiritual.'
p141
sg53
(lp142
sg56
(lp143
(dp144
g59
Nsg60
Nsg61
Nsg62
(lp145
sg64
Nsg65
Nsg66
Nsg22
S'Healtouch'
p146
sa(dp147
g59
I1
sg60
Nsg61
Nsg62
(lp148
sg64
Nsg65
Nsg66
Nsg22
S'Miracle'
p149
sa(dp150
g59
Nsg60
Nsg61
Nsg62
(lp151
sg64
Nsg65
Nsg66
Nsg22
S'fMaximum HP +5'
p152
sa(dp153
g59
Nsg60
Nsg61
Nsg62
(lp154
sg64
Nsg65
Nsg66
Nsg22
S'fSpeed +2'
p155
sa(dp156
g59
Nsg60
Nsg61
Nsg62
(lp157
sg64
Nsg65
Nsg66
Nsg22
S'Futuresight'
p158
sasg83
(dp159
g85
I0
sg86
I0
sg87
I0
ssg88
I00
sg89
g110
sg90
(lp160
I0
aI0
aI0
aI0
aI83
aI0
aI41
asg92
S'Prim'
p161
sg94
I5
sg95
I15
sg96
S'F'
sg97
I0
sg98
S'Oracle'
p162
sg100
I37
sg101
S'player'
p163
sg103
(I12
I23
tp164
sa(dp165
g7
S'None'
p166
sg9
(lp167
I105
aI80
aI5
aI60
aI55
aI45
aI35
aI20
asg11
I01
sg12
(lp168
sg32
(lp169
I0
aI50
aI0
aI50
aI0
aI0
aI0
aI50
asg34
g121
(g122
g123
NtRp170
(dp171
g126
I0
sg127
I36
sbsg35
(lp172
(I36
I0
tp173
a(I15
I0
tp174
a(I1
I0
tp175
a(I12
I3
tp176
a(I10
I0
tp177
a(I8
I0
tp178
a(I11
I2
tp179
a(I5
I0
tp180
a(I12
I0
tp181
a(I6
I0
tp182
asg47
S'0'
sg49
S'Resistance'
p183
sg51
S'A jovial former sailor. Always ready for a new adventure.'
p184
sg53
(lp185
sg56
(lp186
(dp187
g59
Nsg60
Nsg61
Nsg62
(lp188
sg64
Nsg65
I0
sg66
Nsg22
S'Cleave'
p189
sa(dp190
g59
Nsg60
Nsg61
Nsg62
(lp191
sg64
Nsg65
I0
sg66
Nsg22
S'Shove'
p192
sa(dp193
g59
Nsg60
Nsg61
Nsg62
(lp194
sg64
Nsg65
Nsg66
Nsg22
S'fSkill +3'
p195
sa(dp196
g59
Nsg60
Nsg61
Nsg62
(lp197
sg64
Nsg65
Nsg66
Nsg22
S'fDefense +2'
p198
sa(dp199
g59
Nsg60
Nsg61
Nsg62
(lp200
sg64
Nsg65
Nsg66
Nsg22
S'Heavy Hitter'
p201
sasg83
(dp202
g85
I0
sg86
I0
sg87
I0
ssg88
I00
sg89
S'Joel'
p203
sg90
(lp204
I0
aI0
aI58
aI16
aI0
aI0
aI0
asg92
S'Joel'
p205
sg94
I4
sg95
I15
sg96
S'M'
sg97
I0
sg98
S'Warrior'
p206
sg100
I67
sg101
S'player'
p207
sg103
Nsa(dp208
g7
S'None'
p209
sg9
(lp210
I80
aI55
aI35
aI80
aI80
aI25
aI20
aI40
asg11
I00
sg12
(lp211
(dp212
g15
Nsg16
I00
sg17
I00
sg18
I30
sg19
I00
sg20
S'Nia'
p213
sg22
S'Brave Bow'
p214
sa(dp215
g15
Nsg16
I00
sg17
I00
sg18
I16
sg19
I00
sg20
g213
sg22
S'Longbow'
p216
sa(dp217
g15
Nsg16
I00
sg17
I00
sg18
I26
sg19
I00
sg20
g213
sg22
S'Oak Bow'
p218
sa(dp219
g15
Nsg16
I00
sg17
I00
sg18
I42
sg19
I00
sg20
g213
sg22
S'Willow Bow'
p220
sa(dp221
g15
Nsg16
I00
sg17
I00
sg18
I3
sg19
I00
sg20
g213
sg22
S'Vulnerary'
p222
sasg32
(lp223
I50
aI0
aI0
aI50
aI50
aI0
aI50
aI50
asg34
I31
sg35
(lp224
(I26
I5
tp225
a(I15
I2
tp226
a(I7
I0
tp227
a(I16
I0
tp228
a(I16
I0
tp229
a(I6
I0
tp230
a(I6
I0
tp231
a(I9
I0
tp232
a(I7
I0
tp233
a(I6
I0
tp234
asg47
S'0'
sg49
S'Resistance'
p235
sg51
S'A quiet archer most at home in the wilderness.'
p236
sg53
(lp237
sg56
(lp238
(dp239
g59
Nsg60
Nsg61
Nsg62
(lp240
sg64
Nsg65
Nsg66
Nsg22
S'Prescience'
p241
sa(dp242
g59
Nsg60
Nsg61
Nsg62
(lp243
sg64
Nsg65
I0
sg66
Nsg22
S'Critical'
p244
sa(dp245
g59
Nsg60
Nsg61
Nsg62
(lp246
sg64
Nsg65
Nsg66
Nsg22
g152
sa(dp247
g59
Nsg60
Nsg61
Nsg62
(lp248
sg64
Nsg65
Nsg66
Nsg22
S'fStrength +2'
p249
sa(dp250
g59
Nsg60
Nsg61
Nsg62
(lp251
sg64
Nsg65
Nsg66
Nsg22
S'Longshot'
p252
sasg83
(dp253
g85
I0
sg86
I0
sg87
I0
ssg88
I00
sg89
g213
sg90
(lp254
I0
aI0
aI0
aI89
aI0
aI0
aI0
asg92
S'Nia'
p255
sg94
I0
sg95
I15
sg96
S'F'
sg97
I0
sg98
S'Sniper'
p256
sg100
I39
sg101
S'player'
p257
sg103
(I13
I20
tp258
sa(dp259
g7
S'None'
p260
sg9
(lp261
I60
aI15
aI85
aI40
aI60
aI60
aI20
aI55
asg11
I00
sg12
(lp262
(dp263
g15
Nsg16
I00
sg17
I00
sg18
Nsg19
I00
sg20
S'Althea'
p264
sg22
S"Prim's Charm"
p265
sa(dp266
g15
Nsg16
I00
sg17
I00
sg18
I10
sg19
I00
sg20
g264
sg22
S'Wyrmsfire'
p267
sa(dp268
g15
Nsg16
I00
sg17
I00
sg18
I30
sg19
I00
sg20
g264
sg22
S'Wind'
p269
sa(dp270
g15
Nsg16
I00
sg17
I00
sg18
I27
sg19
I00
sg20
g264
sg22
S'Earth'
p271
sa(dp272
g15
Nsg16
I00
sg17
I00
sg18
I21
sg19
I00
sg20
g264
sg22
S'Water'
p273
sasg32
(lp274
I90
aI85
aI15
aI10
aI90
aI90
aI30
aI45
asg34
I26
sg35
(lp275
(I21
I5
tp276
a(I2
I0
tp277
a(I17
I2
tp278
a(I12
I0
tp279
a(I13
I2
tp280
a(I13
I0
tp281
a(I8
I0
tp282
a(I12
I0
tp283
a(I4
I0
tp284
a(I6
I0
tp285
asg47
S'0'
sg49
S'Resistance'
p286
sg51
S'A forthright but elegant and refined sorceress.'
p287
sg53
(lp288
sg56
(lp289
(dp290
g59
Nsg60
Nsg61
Nsg62
(lp291
sg64
Nsg65
Nsg66
Nsg22
S'Focus'
p292
sa(dp293
g59
Nsg60
Nsg61
Nsg62
(lp294
sg64
Nsg65
Nsg66
Nsg22
S'fMaximum HP +5'
p295
sa(dp296
g59
Nsg60
Nsg61
Nsg62
(lp297
sg64
Nsg65
Nsg66
Nsg22
S'fMagic +2'
p298
sa(dp299
g59
Nsg60
Nsg61
Nsg62
(lp300
sg64
Nsg65
Nsg66
Nsg22
g155
sa(dp301
g59
Nsg60
Nsg61
Nsg62
(lp302
sg64
Nsg65
I0
sg66
Nsg22
S'Metamagic'
p303
sa(dp304
g59
Nsg60
Nsg61
Nsg62
(lp305
sg64
Nsg65
Nsg66
Nsg22
S'Underdog'
p306
sasg83
(dp307
g85
I0
sg86
I0
sg87
I0
ssg88
I00
sg89
g264
sg90
(lp308
I0
aI0
aI0
aI0
aI0
aI78
aI0
asg92
S'Althea'
p309
sg94
I5
sg95
I15
sg96
S'F'
sg97
I0
sg98
S'Sage'
p310
sg100
I39
sg101
S'player'
p311
sg103
(I14
I23
tp312
sa(dp313
g7
S'None'
p314
sg9
(lp315
I95
aI65
aI5
aI60
aI60
aI40
aI55
aI40
asg11
I00
sg12
(lp316
(dp317
g15
Nsg16
I00
sg17
I00
sg18
I19
sg19
I00
sg20
S'Drake'
p318
sg22
S'Mithril Lance'
p319
sa(dp320
g15
Nsg16
I00
sg17
I00
sg18
I20
sg19
I00
sg20
g318
sg22
S'Javelin'
p321
sa(dp322
g15
Nsg16
I00
sg17
I00
sg18
I30
sg19
I00
sg20
g318
sg22
S'Steel Lance'
p323
sa(dp324
g15
Nsg16
I00
sg17
I00
sg18
I45
sg19
I00
sg20
g318
sg22
S'Iron Lance'
p325
sa(dp326
g15
Nsg16
I00
sg17
I00
sg18
I2
sg19
I00
sg20
g318
sg22
S'Spiritbane'
p327
sasg32
(lp328
I10
aI70
aI90
aI30
aI30
aI70
aI90
aI70
asg34
g121
(g122
g123
NtRp329
(dp330
g126
I5
sg127
I28
sbsg35
(lp331
(I28
I5
tp332
a(I12
I0
tp333
a(I1
I0
tp334
a(I12
I0
tp335
a(I12
I2
tp336
a(I10
I0
tp337
a(I12
I0
tp338
a(I7
I0
tp339
a(I7
I0
tp340
a(I8
I0
tp341
asg47
S'0'
sg49
S'Resistance'
p342
sg51
S"A disgraced Imperial knight now in Althea's service."
p343
sg53
(lp344
sg56
(lp345
(dp346
g59
Nsg60
Nsg61
Nsg62
(lp347
sg64
Nsg65
Nsg66
Nsg22
S'Canto'
p348
sa(dp349
g59
Nsg60
Nsg61
Nsg62
(lp350
sg64
Nsg65
Nsg66
Nsg22
S'Savior'
p351
sa(dp352
g59
Nsg60
Nsg61
Nsg62
(lp353
sg64
Nsg65
Nsg66
Nsg22
g152
sa(dp354
g59
Nsg60
Nsg61
Nsg62
(lp355
sg64
Nsg65
Nsg66
Nsg22
g155
sa(dp356
g59
Nsg60
Nsg61
Nsg62
(lp357
sg64
Nsg65
Nsg66
Nsg22
S'Charisma'
p358
sasg83
(dp359
g85
I0
sg86
I0
sg87
I0
ssg88
I00
sg89
g318
sg90
(lp360
I52
aI53
aI0
aI0
aI0
aI0
aI0
asg92
S'Drake'
p361
sg94
I2
sg95
I15
sg96
S'M'
sg97
I0
sg98
S'Paladin'
p362
sg100
I66
sg101
S'player'
p363
sg103
(I13
I22
tp364
sa(dp365
g7
S'None'
p366
sg9
(lp367
I95
aI40
aI60
aI55
aI95
aI65
aI35
aI55
asg11
I00
sg12
(lp368
(dp369
g15
Nsg16
I00
sg17
I00
sg18
I14
sg19
I00
sg20
S'Renae'
p370
sg22
S'Levin Sword'
p371
sa(dp372
g15
Nsg16
I00
sg17
I00
sg18
I11
sg19
I00
sg20
g370
sg22
S'Steel Knife'
p373
sa(dp374
g15
Nsg16
I00
sg17
I00
sg18
I21
sg19
I00
sg20
g370
sg22
S'Steel Sword'
p375
sa(dp376
g15
Nsg16
I00
sg17
I00
sg18
I23
sg19
I00
sg20
g370
sg22
S'Iron Sword'
p377
sa(dp378
g15
Nsg16
I00
sg17
I00
sg18
I3
sg19
I00
sg20
g370
sg22
S'Spiritbane'
p379
sasg32
(lp380
I10
aI70
aI30
aI90
aI10
aI70
aI30
aI90
asg34
g121
(g122
g123
NtRp381
(dp382
g126
I5
sg127
I26
sbsg35
(lp383
(I26
I5
tp384
a(I10
I0
tp385
a(I10
I0
tp386
a(I12
I0
tp387
a(I20
I2
tp388
a(I10
I0
tp389
a(I9
I0
tp390
a(I9
I0
tp391
a(I5
I0
tp392
a(I7
I0
tp393
asg47
S'0'
sg49
S'Kerala'
p394
sg51
S'An energetic thief with a kleptomanic streak.'
p395
sg53
(lp396
sg56
(lp397
(dp398
g59
Nsg60
Nsg61
Nsg62
(lp399
sg64
Nsg65
Nsg66
Nsg22
S'Locktouch'
p400
sa(dp401
g59
Nsg60
Nsg61
Nsg62
(lp402
sg64
Nsg65
Nsg66
Nsg22
S'Steal'
p403
sa(dp404
g59
Nsg60
Nsg61
Nsg62
(lp405
sg64
Nsg65
Nsg66
Nsg22
S'fMaximum HP +5'
p406
sa(dp407
g59
Nsg60
Nsg61
Nsg62
(lp408
sg64
Nsg65
Nsg66
Nsg22
g155
sa(dp409
g59
Nsg60
Nsg61
Nsg62
(lp410
sg64
Nsg65
Nsg66
Nsg22
S'Ghost'
p411
sasg83
(dp412
g85
I0
sg86
I0
sg87
I0
ssg88
I00
sg89
g370
sg90
(lp413
I66
aI0
aI0
aI41
aI0
aI0
aI0
asg92
S'Renae'
p414
sg94
I0
sg95
I15
sg96
S'F'
sg97
I0
sg98
S'Assassin'
p415
sg100
I85
sg101
S'player'
p416
sg103
(I10
I23
tp417
sa(dp418
g7
S'None'
p419
sg9
(lp420
I120
aI55
aI25
aI40
aI40
aI45
aI75
aI40
asg11
I00
sg12
(lp421
(dp422
g15
Nsg16
I00
sg17
I00
sg18
I20
sg19
I00
sg20
S'Theo'
p423
sg22
S'Mithril Lance'
p424
sa(dp425
g15
Nsg16
I00
sg17
I00
sg18
I11
sg19
I00
sg20
g423
sg22
S'Short Spear'
p426
sa(dp427
g15
Nsg16
I00
sg17
I00
sg18
I20
sg19
I00
sg20
g423
sg22
S'Slim Lance'
p428
sa(dp429
g15
Nsg16
I00
sg17
I00
sg18
I30
sg19
I00
sg20
g423
sg22
S'Steel Sword'
p430
sa(dp431
g15
Nsg16
I00
sg17
I00
sg18
I2
sg19
I00
sg20
g423
sg22
S'Potion'
p432
sasg32
(lp433
I10
aI90
aI50
aI70
aI70
aI10
aI50
aI70
asg34
g121
(g122
g123
NtRp434
(dp435
g126
I0
sg127
I34
sbsg35
(lp436
(I34
I0
tp437
a(I16
I0
tp438
a(I2
I0
tp439
a(I13
I0
tp440
a(I9
I0
tp441
a(I9
I0
tp442
a(I17
I0
tp443
a(I8
I2
tp444
a(I11
I0
tp445
a(I5
I1
tp446
asg47
S'0'
sg49
S'Resistance'
p447
sg51
S'An avid scholar. Interested in esoteric philosophy.'
p448
sg53
(lp449
sg56
(lp450
(dp451
g59
Nsg60
Nsg61
Nsg62
(lp452
sg64
Nsg65
Nsg66
Nsg22
S'Provoke'
p453
sa(dp454
g59
Nsg60
Nsg61
Nsg62
(lp455
sg64
Nsg65
I0
sg66
Nsg22
S'Shove'
p456
sa(dp457
g59
Nsg60
Nsg61
Nsg62
(lp458
sg64
Nsg65
Nsg66
Nsg22
S'fMovement +1'
p459
sa(dp460
g59
Nsg60
Nsg61
Nsg62
(lp461
sg64
Nsg65
Nsg66
Nsg22
S'fResistance +2'
p462
sa(dp463
g59
Nsg60
Nsg61
Nsg62
(lp464
sg64
Nsg65
Nsg66
Nsg22
S'Slow'
p465
sasg83
(dp466
g85
I0
sg86
I0
sg87
I0
ssg88
I00
sg89
g423
sg90
(lp467
I41
aI70
aI0
aI0
aI0
aI0
aI0
asg92
S'Theo'
p468
sg94
I1
sg95
I15
sg96
S'M'
sg97
I0
sg98
S'General'
p469
sg100
I59
sg101
S'player'
p470
sg103
(I13
I24
tp471
sa(dp472
g7
S'None'
p473
sg9
(lp474
I75
aI65
aI65
aI80
aI65
aI35
aI65
aI35
asg11
I00
sg12
(lp475
(dp476
g15
Nsg16
I00
sg17
I00
sg18
I14
sg19
I00
sg20
S'Eliza'
p477
sg22
S'Swordreaver'
p478
sa(dp479
g15
Nsg16
I00
sg17
I00
sg18
I24
sg19
I00
sg20
g477
sg22
S'Steel Axe'
p480
sa(dp481
g15
Nsg16
I00
sg17
I00
sg18
I25
sg19
I00
sg20
g477
sg22
S'Great Lance'
p482
sa(dp483
g15
Nsg16
I00
sg17
I00
sg18
I15
sg19
I00
sg20
g477
sg22
S'Short Spear'
p484
sa(dp485
g15
Nsg16
I00
sg17
I00
sg18
I14
sg19
I00
sg20
g477
sg22
S'Axereaver'
p486
sasg32
(lp487
I50
aI30
aI30
aI10
aI30
aI70
aI30
aI70
asg34
g121
(g122
g123
NtRp488
(dp489
g126
I0
sg127
I27
sbsg35
(lp490
(I27
I0
tp491
a(I14
I0
tp492
a(I10
I0
tp493
a(I17
I0
tp494
a(I17
I2
tp495
a(I7
I0
tp496
a(I14
I2
tp497
a(I8
I0
tp498
a(I10
I0
tp499
a(I6
I1
tp500
asg47
S'0'
sg49
S'Resistance'
p501
sg51
S'A moody, sarcastic soldier.'
p502
sg53
(lp503
sg56
(lp504
(dp505
g59
Nsg60
Nsg61
Nsg62
(lp506
sg64
Nsg65
Nsg66
Nsg22
S'Synergy'
p507
sa(dp508
g59
Nsg60
Nsg61
Nsg62
(lp509
sg64
Nsg65
Nsg66
Nsg22
S'fDefense +2'
p510
sa(dp511
g59
Nsg60
Nsg61
Nsg62
(lp512
sg64
Nsg65
Nsg66
Nsg22
S'fSpeed +2'
p513
sa(dp514
g59
Nsg60
Nsg61
Nsg62
(lp515
sg64
Nsg65
Nsg66
Nsg22
S'fMovement +1'
p516
sa(dp517
g59
Nsg60
Nsg61
Nsg62
(lp518
sg64
Nsg65
I0
sg66
Nsg22
S'Luna'
p519
sasg83
(dp520
g85
I0
sg86
I0
sg87
I0
ssg88
I00
sg89
g477
sg90
(lp521
I0
aI69
aI41
aI0
aI0
aI0
aI0
asg92
S'Eliza'
p522
sg94
I1
sg95
I15
sg96
S'F'
sg97
I0
sg98
S'Halberdier'
p523
sg100
I89
sg101
S'player'
p524
sg103
(I11
I20
tp525
sa(dp526
g7
S'None'
p527
sg9
(lp528
I65
aI15
aI35
aI45
aI55
aI55
aI40
aI65
asg11
I00
sg12
(lp529
(dp530
g15
Nsg16
I00
sg17
I00
sg18
Nsg19
I00
sg20
S'Sam'
p531
sg22
S"Althea's Charm"
p532
sa(dp533
g15
Nsg16
I00
sg17
I00
sg18
I15
sg19
I00
sg20
g531
sg22
S'Corona'
p534
sa(dp535
g15
Nsg16
I00
sg17
I00
sg18
I15
sg19
I00
sg20
g531
sg22
S'Physic'
p536
sa(dp537
g15
Nsg16
I00
sg17
I00
sg18
I10
sg19
I00
sg20
g531
sg22
S'Fortune'
p538
sa(dp539
g15
Nsg16
I00
sg17
I00
sg18
I15
sg19
I00
sg20
g531
sg22
S'Mend'
p540
sasg32
(lp541
I40
aI40
aI60
aI20
aI80
aI80
aI90
aI40
asg34
I36
sg35
(lp542
(I31
I5
tp543
a(I4
I0
tp544
a(I13
I0
tp545
a(I12
I0
tp546
a(I15
I2
tp547
a(I10
I10
tp548
a(I8
I0
tp549
a(I14
I0
tp550
a(I11
I0
tp551
a(I7
I0
tp552
asg47
S'Sam'
p553
sg49
S'Resistance'
p554
sg51
S"The resistance's leader. Ambitious and inquisitive."
p555
sg53
(lp556
sg56
(lp557
(dp558
g59
Nsg60
Nsg61
Nsg62
(lp559
sg64
Nsg65
Nsg66
Nsg22
S'Inspiration'
p560
sa(dp561
g59
Nsg60
Nsg61
Nsg62
(lp562
sg64
Nsg65
Nsg66
Nsg22
S'Skill_Aura'
p563
sa(dp564
g59
Nsg60
Nsg61
Nsg62
(lp565
sg64
Nsg65
Nsg66
Nsg22
g406
sa(dp566
g59
Nsg60
Nsg61
Nsg62
(lp567
sg64
Nsg65
Nsg66
Nsg22
g155
sa(dp568
g59
Nsg60
Nsg61
Nsg62
(lp569
sg64
Nsg65
I0
sg66
Nsg22
S'Rally'
p570
sa(dp571
g59
Nsg60
Nsg61
Nsg62
(lp572
sg64
Nsg65
Nsg66
Nsg22
S'Luck +10'
p573
sasg83
(dp574
g85
I0
sg86
I0
sg87
I0
ssg88
I00
sg89
g531
sg90
(lp575
I0
aI0
aI0
aI0
aI87
aI0
aI0
asg92
S'Sam'
p576
sg94
I3
sg95
I15
sg96
S'M'
sg97
I0
sg98
S'Strategist'
p577
sg100
I77
sg101
S'player'
p578
sg103
(I11
I22
tp579
sa(dp580
g7
S'None'
p581
sg9
(lp582
I55
aI5
aI65
aI55
aI45
aI35
aI40
aI55
asg11
I00
sg12
(lp583
(dp584
g15
Nsg16
I00
sg17
I00
sg18
I3
sg19
I00
sg20
S'Kayla'
p585
sg22
S'Disintegrate'
p586
sa(dp587
g15
Nsg16
I00
sg17
I00
sg18
I10
sg19
I00
sg20
g585
sg22
S'Howl'
p588
sa(dp589
g15
Nsg16
I00
sg17
I00
sg18
I10
sg19
I00
sg20
g585
sg22
S'Scathe'
p590
sa(dp591
g15
Nsg16
I00
sg17
I00
sg18
I15
sg19
I00
sg20
g585
sg22
S'Ruin'
p592
sa(dp593
g15
Nsg16
I00
sg17
I00
sg18
I35
sg19
I00
sg20
g585
sg22
S'Flux'
p594
sasg32
(lp595
I80
aI80
aI40
aI80
aI20
aI60
aI90
aI80
asg34
I26
sg35
(lp596
(I26
I0
tp597
a(I1
I0
tp598
a(I13
I0
tp599
a(I16
I0
tp600
a(I11
I2
tp601
a(I8
I0
tp602
a(I9
I0
tp603
a(I14
I0
tp604
a(I8
I0
tp605
a(I5
I1
tp606
asg47
S'Kayla'
p607
sg49
S'Resistance'
p608
sg51
S'A scheming diplomat from the Confederacy.'
p609
sg53
(lp610
sg56
(lp611
(dp612
g59
Nsg60
Nsg61
Nsg62
(lp613
sg64
Nsg65
Nsg66
Nsg22
S'Hex'
p614
sa(dp615
g59
Nsg60
Nsg61
Nsg62
(lp616
sg64
Nsg65
Nsg66
Nsg22
S'Empowered'
p617
sa(dp618
g59
Nsg60
Nsg61
Nsg62
(lp619
sg64
Nsg65
Nsg66
Nsg22
S'fSpeed +2'
p620
sa(dp621
g59
Nsg60
Nsg61
Nsg62
(lp622
sg64
Nsg65
Nsg66
Nsg22
g516
sa(dp623
g59
Nsg60
Nsg61
Nsg62
(lp624
sg64
Nsg65
I0
sg66
Nsg22
S'Metamagic'
p625
sasg83
(dp626
g85
I0
sg86
I0
sg87
I0
ssg88
I00
sg89
g585
sg90
(lp627
I0
aI0
aI0
aI0
aI0
aI0
aI86
asg92
S'Kayla'
p628
sg94
I5
sg95
I15
sg96
S'F'
sg97
I0
sg98
S'Warlock'
p629
sg100
I3
sg101
S'player'
p630
sg103
(I12
I21
tp631
sa(dp632
g7
S'Pursue'
p633
sg9
(lp634
I120
aI65
aI5
aI55
aI40
aI20
aI35
aI20
asg11
I00
sg12
(lp635
(dp636
g15
Nsg16
I00
sg17
I00
sg18
I9
sg19
I00
sg20
S'Coyote'
p637
sg22
S'Superior Edge'
p638
sa(dp639
g15
Nsg16
I00
sg17
I00
sg18
I12
sg19
I00
sg20
g637
sg22
S'Hand Axe'
p640
sa(dp641
g15
Nsg16
I00
sg17
I00
sg18
I45
sg19
I00
sg20
g637
sg22
S'Iron Sword'
p642
sa(dp643
g15
Nsg16
I00
sg17
I00
sg18
I27
sg19
I00
sg20
g637
sg22
S'Iron Axe'
p644
sa(dp645
g15
Nsg16
I00
sg17
I00
sg18
I3
sg19
I00
sg20
g637
sg22
S'Potion'
p646
sasg32
(lp647
I50
aI75
aI75
aI25
aI50
aI50
aI25
aI50
asg34
g121
(g122
g123
NtRp648
(dp649
g126
I5
sg127
I30
sbsg35
(lp650
(I30
I5
tp651
a(I12
I2
tp652
a(I0
I0
tp653
a(I16
I0
tp654
a(I13
I0
tp655
a(I5
I0
tp656
a(I9
I0
tp657
a(I5
I0
tp658
a(I8
I0
tp659
a(I6
I0
tp660
asg47
S'0'
sg49
S'Resistance'
p661
sg51
S'A troubled wandererer with a mysterious past.'
p662
sg53
(lp663
sg56
(lp664
(dp665
g59
Nsg60
Nsg61
Nsg62
(lp666
sg64
Nsg65
Nsg66
Nsg22
S'Initiative'
p667
sa(dp668
g59
Nsg60
Nsg61
Nsg62
(lp669
sg64
Nsg65
Nsg66
Nsg22
S'Poise'
p670
sa(dp671
g59
Nsg60
Nsg61
Nsg62
(lp672
sg64
Nsg65
Nsg66
Nsg22
S'fMaximum HP +5'
p673
sa(dp674
g59
Nsg60
Nsg61
Nsg62
(lp675
sg64
Nsg65
Nsg66
Nsg22
g249
sa(dp676
g59
Nsg60
Nsg61
Nsg62
(lp677
sg64
Nsg65
I0
sg66
Nsg22
S'Sol'
p678
sa(dp679
g59
Nsg60
Nsg61
Nsg62
(lp680
sg64
Nsg65
Nsg66
Nsg22
S'Swordbreaker'
p681
sasg83
(dp682
g85
I0
sg86
I0
sg87
I0
ssg88
I00
sg89
g637
sg90
(lp683
I77
aI0
aI36
aI0
aI0
aI0
aI0
asg92
S'Coyote'
p684
sg94
I4
sg95
I15
sg96
S'M'
sg97
I0
sg98
S'Vanguard'
p685
sg100
I84
sg101
S'player'
p686
sg103
(I10
I21
tp687
sa(dp688
g7
S'DoNothing'
p689
sg9
(lp690
I0
aI0
aI0
aI0
aI0
aI0
aI0
aI0
asg11
I00
sg12
(lp691
(dp692
g15
Nsg16
I00
sg17
I00
sg18
Nsg19
I00
sg20
S'Ulver'
p693
sg22
S'Makara'
p694
sasg32
(lp695
I50
aI50
aI50
aI50
aI50
aI50
aI50
aI50
asg34
I80
sg35
(lp696
(I80
I0
tp697
a(I19
I5
tp698
a(I7
I5
tp699
a(I20
I5
tp700
a(I16
I5
tp701
a(I13
I0
tp702
a(I20
I5
tp703
a(I18
I5
tp704
a(I10
I0
tp705
a(I6
I0
tp706
asg47
S'0'
sg49
S'Empire'
p707
sg51
S'Hard-nosed Imperial Duke occupying Kerala.'
p708
sg53
(lp709
S'Boss'
p710
asg56
(lp711
(dp712
g59
Nsg60
Nsg61
Nsg62
(lp713
sg64
Nsg65
Nsg66
Nsg22
S'Provoke'
p714
sa(dp715
g59
Nsg60
Nsg61
Nsg62
(lp716
sg64
Nsg65
I0
sg66
Nsg22
S'Shove'
p717
sa(dp718
g59
Nsg60
Nsg61
Nsg62
(lp719
sg64
Nsg65
Nsg66
Nsg22
S'Slow'
p720
sa(dp721
g59
Nsg60
Nsg61
Nsg62
(lp722
sg64
Nsg65
Nsg66
Nsg22
S'Resist_Status'
p723
sa(dp724
g59
Nsg60
Nsg61
Nsg62
(lp725
sg64
Nsg65
Nsg66
Nsg22
S'Reflect'
p726
sa(dp727
g59
Nsg60
Nsg61
Nsg62
(lp728
sg64
Nsg65
Nsg66
Nsg22
S'Imperial Wards'
p729
sasg83
(dp730
g85
I0
sg86
I0
sg87
I0
ssg88
I00
sg89
g693
sg90
(lp731
I76
aI76
aI76
aI0
aI0
aI0
aI0
asg92
S'Ulver'
p732
sg94
I1
sg95
I25
sg96
S'M'
sg97
I0
sg98
S'Duke'
p733
sg100
I0
sg101
S'enemy'
p734
sg103
(I12
I3
tp735
sa(dp736
g7
S'DoNothing'
p737
sg9
(lp738
I105
aI65
aI15
aI65
aI60
aI35
aI35
aI20
asg11
I00
sg12
(lp739
(dp740
g15
Nsg16
I00
sg17
I00
sg18
I45
sg19
I00
sg20
I143
sg22
S'Iron Lance'
p741
sasg32
(lp742
I50
aI50
aI50
aI50
aI50
aI50
aI50
aI50
asg34
I13
sg35
(lp743
(I13
I0
tp744
a(I2
I0
tp745
a(I0
I0
tp746
a(I4
I0
tp747
a(I0
I0
tp748
a(I0
I0
tp749
a(I0
I0
tp750
a(I0
I0
tp751
a(I5
I0
tp752
a(I5
I0
tp753
asg47
S'soldier1'
p754
sg49
S'Empire'
p755
sg51
S"Duke Ulver's elite guard"
p756
sg53
(lp757
sg56
(lp758
(dp759
g59
Nsg60
Nsg61
Nsg62
(lp760
sg64
Nsg65
Nsg66
Nsg22
S'Synergy'
p761
sasg83
(dp762
g85
I0
sg86
I0
sg87
I0
ssg88
I00
sg89
I143
sg90
(lp763
I0
aI1
aI0
aI0
aI0
aI0
aI0
asg92
S'Claw'
p764
sg94
I4
sg95
I1
sg96
S'M'
sg97
I0
sg98
S'Soldier'
p765
sg100
I0
sg101
S'enemy'
p766
sg103
Nsa(dp767
g7
S'DoNothing'
p768
sg9
(lp769
I0
aI0
aI100
aI0
aI0
aI0
aI0
aI0
asg11
I00
sg12
(lp770
(dp771
g15
Nsg16
I00
sg17
I00
sg18
I15
sg19
I00
sg20
S'Adjutant'
p772
sg22
S'Corona'
p773
sa(dp774
g15
Nsg16
I00
sg17
I00
sg18
I15
sg19
I00
sg20
g772
sg22
S'Physic'
p775
sasg32
(lp776
I50
aI50
aI50
aI50
aI50
aI50
aI50
aI50
asg34
I34
sg35
(lp777
(I34
I0
tp778
a(I3
I5
tp779
a(I11
I5
tp780
a(I15
I5
tp781
a(I13
I5
tp782
a(I7
I0
tp783
a(I11
I5
tp784
a(I13
I5
tp785
a(I11
I0
tp786
a(I7
I0
tp787
asg47
S'0'
sg49
S'Empire'
p788
sg51
S"Duke Ulver's loyal assistant."
p789
sg53
(lp790
S'Boss'
p791
asg56
(lp792
(dp793
g59
Nsg60
Nsg61
Nsg62
(lp794
sg64
Nsg65
Nsg66
Nsg22
S'Inspiration'
p795
sa(dp796
g59
Nsg60
Nsg61
Nsg62
(lp797
sg64
Nsg65
Nsg66
Nsg22
S'Skill_Aura'
p798
sa(dp799
g59
Nsg60
Nsg61
Nsg62
(lp800
sg64
Nsg65
I0
sg66
Nsg22
S'Rally'
p801
sa(dp802
g59
Nsg60
Nsg61
Nsg62
(lp803
sg64
Nsg65
Nsg66
Nsg22
S'Imperial Wards'
p804
sasg83
(dp805
g85
I0
sg86
I0
sg87
I0
ssg88
I00
sg89
g772
sg90
(lp806
I0
aI0
aI0
aI0
aI76
aI0
aI0
asg92
S'Adjutant'
p807
sg94
I3
sg95
I20
sg96
S'M'
sg97
I0
sg98
S'Strategist'
p808
sg100
I0
sg101
S'enemy'
p809
sg103
(I11
I3
tp810
sa(dp811
g7
S'Pursue'
p812
sg9
(lp813
I105
aI65
aI15
aI65
aI60
aI35
aI35
aI20
asg11
I00
sg12
(lp814
(dp815
g15
Nsg16
I00
sg17
I00
sg18
I25
sg19
I00
sg20
I144
sg22
S'Great Lance'
p816
sa(dp817
g15
Nsg16
I00
sg17
I00
sg18
I10
sg19
I00
sg20
I144
sg22
S'Long Spear'
p818
sasg32
(lp819
I135
aI55
aI105
aI55
aI70
aI145
aI145
aI90
asg34
I34
sg35
(lp820
(I34
I0
tp821
a(I15
I0
tp822
a(I3
I0
tp823
a(I17
I3
tp824
a(I12
I0
tp825
a(I5
I0
tp826
a(I10
I0
tp827
a(I5
I0
tp828
a(I10
I0
tp829
a(I6
I0
tp830
asg47
S'br1'
p831
sg49
g755
sg51
g756
sg53
(lp832
sg56
(lp833
(dp834
g59
Nsg60
Nsg61
Nsg62
(lp835
sg64
Nsg65
Nsg66
Nsg22
g761
sa(dp836
g59
Nsg60
Nsg61
Nsg62
(lp837
sg64
Nsg65
I0
sg66
Nsg22
S'Luna'
p838
sa(dp839
g59
Nsg60
Nsg61
Nsg62
(lp840
sg64
Nsg65
Nsg66
Nsg22
S'fSkill +3'
p841
sasg83
(dp842
g85
I0
sg86
I0
sg87
I0
ssg88
I00
sg89
I144
sg90
(lp843
I0
aI76
aI16
aI0
aI0
aI0
aI0
asg92
g764
sg94
I1
sg95
I18
sg96
S'M'
sg97
I0
sg98
S'Halberdier'
p844
sg100
I0
sg101
S'enemy'
p845
sg103
Nsa(dp846
g7
S'Pursue'
p847
sg9
(lp848
I105
aI65
aI15
aI65
aI60
aI35
aI35
aI20
asg11
I00
sg12
(lp849
(dp850
g15
Nsg16
I00
sg17
I00
sg18
I25
sg19
I00
sg20
I145
sg22
S'Great Lance'
p851
sa(dp852
g15
Nsg16
I00
sg17
I00
sg18
I10
sg19
I00
sg20
I145
sg22
S'Long Spear'
p853
sasg32
(lp854
I135
aI55
aI105
aI55
aI70
aI145
aI145
aI90
asg34
I34
sg35
(lp855
(I34
I0
tp856
a(I15
I0
tp857
a(I3
I0
tp858
a(I17
I3
tp859
a(I12
I0
tp860
a(I5
I0
tp861
a(I10
I0
tp862
a(I5
I0
tp863
a(I10
I0
tp864
a(I6
I0
tp865
asg47
S'br2'
p866
sg49
g755
sg51
g756
sg53
(lp867
sg56
(lp868
(dp869
g59
Nsg60
Nsg61
Nsg62
(lp870
sg64
Nsg65
Nsg66
Nsg22
g761
sa(dp871
g59
Nsg60
Nsg61
Nsg62
(lp872
sg64
Nsg65
I0
sg66
Nsg22
g838
sa(dp873
g59
Nsg60
Nsg61
Nsg62
(lp874
sg64
Nsg65
Nsg66
Nsg22
S'fSkill +3'
p875
sasg83
(dp876
g85
I0
sg86
I0
sg87
I0
ssg88
I00
sg89
I145
sg90
(lp877
I0
aI76
aI16
aI0
aI0
aI0
aI0
asg92
g764
sg94
I1
sg95
I18
sg96
S'M'
sg97
I0
sg98
S'Halberdier'
p878
sg100
I0
sg101
S'enemy'
p879
sg103
Nsa(dp880
g7
S'Pursue'
p881
sg9
(lp882
I95
aI45
aI40
aI55
aI45
aI45
aI20
aI25
asg11
I00
sg12
(lp883
(dp884
g15
Nsg16
I00
sg17
I00
sg18
I25
sg19
I00
sg20
I146
sg22
S'Great Bow'
p885
sasg32
(lp886
I65
aI115
aI130
aI85
aI115
aI115
aI90
aI75
asg34
I32
sg35
(lp887
(I32
I0
tp888
a(I13
I0
tp889
a(I7
I0
tp890
a(I13
I3
tp891
a(I12
I0
tp892
a(I7
I0
tp893
a(I7
I0
tp894
a(I7
I0
tp895
a(I7
I0
tp896
a(I6
I0
tp897
asg47
S'br3'
p898
sg49
g755
sg51
g756
sg53
(lp899
sg56
(lp900
(dp901
g59
Nsg60
Nsg61
Nsg62
(lp902
sg64
Nsg65
Nsg66
Nsg22
S'Prescience'
p903
sa(dp904
g59
Nsg60
Nsg61
Nsg62
(lp905
sg64
Nsg65
I0
sg66
Nsg22
S'Critical'
p906
sa(dp907
g59
Nsg60
Nsg61
Nsg62
(lp908
sg64
Nsg65
Nsg66
Nsg22
S'Longshot'
p909
sa(dp910
g59
Nsg60
Nsg61
Nsg62
(lp911
sg64
Nsg65
Nsg66
Nsg22
S'fSkill +3'
p912
sasg83
(dp913
g85
I0
sg86
I0
sg87
I0
ssg88
I00
sg89
I146
sg90
(lp914
I0
aI0
aI0
aI41
aI0
aI0
aI0
asg92
g764
sg94
I0
sg95
I18
sg96
S'M'
sg97
I0
sg98
S'Sniper'
p915
sg100
I0
sg101
S'enemy'
p916
sg103
Nsa(dp917
g7
S'Pursue'
p918
sg9
(lp919
I95
aI45
aI40
aI55
aI45
aI45
aI20
aI25
asg11
I00
sg12
(lp920
(dp921
g15
Nsg16
I00
sg17
I00
sg18
I25
sg19
I00
sg20
I147
sg22
S'Great Bow'
p922
sasg32
(lp923
I65
aI115
aI130
aI85
aI115
aI115
aI90
aI75
asg34
I32
sg35
(lp924
(I32
I0
tp925
a(I13
I0
tp926
a(I7
I0
tp927
a(I13
I3
tp928
a(I12
I0
tp929
a(I7
I0
tp930
a(I7
I0
tp931
a(I7
I0
tp932
a(I7
I0
tp933
a(I6
I0
tp934
asg47
S'br4'
p935
sg49
g755
sg51
g756
sg53
(lp936
sg56
(lp937
(dp938
g59
Nsg60
Nsg61
Nsg62
(lp939
sg64
Nsg65
Nsg66
Nsg22
g903
sa(dp940
g59
Nsg60
Nsg61
Nsg62
(lp941
sg64
Nsg65
I0
sg66
Nsg22
g906
sa(dp942
g59
Nsg60
Nsg61
Nsg62
(lp943
sg64
Nsg65
Nsg66
Nsg22
g909
sa(dp944
g59
Nsg60
Nsg61
Nsg62
(lp945
sg64
Nsg65
Nsg66
Nsg22
S'fSkill +3'
p946
sasg83
(dp947
g85
I0
sg86
I0
sg87
I0
ssg88
I00
sg89
I147
sg90
(lp948
I0
aI0
aI0
aI41
aI0
aI0
aI0
asg92
g764
sg94
I0
sg95
I18
sg96
S'M'
sg97
I0
sg98
S'Sniper'
p949
sg100
I0
sg101
S'enemy'
p950
sg103
Nsa(dp951
g7
S'Pursue'
p952
sg9
(lp953
I65
aI15
aI40
aI55
aI45
aI60
aI15
aI65
asg11
I00
sg12
(lp954
(dp955
g15
Nsg16
I00
sg17
I00
sg18
I15
sg19
I00
sg20
I148
sg22
S'Corona'
p956
sa(dp957
g15
Nsg16
I00
sg17
I00
sg18
I15
sg19
I00
sg20
I148
sg22
S'Ruin'
p958
sa(dp959
g15
Nsg16
I00
sg17
I00
sg18
I15
sg19
I00
sg20
I148
sg22
S'Physic'
p960
sasg32
(lp961
I55
aI105
aI130
aI85
aI115
aI70
aI105
aI55
asg34
I25
sg35
(lp962
(I25
I0
tp963
a(I2
I0
tp964
a(I9
I0
tp965
a(I12
I0
tp966
a(I9
I0
tp967
a(I10
I0
tp968
a(I5
I0
tp969
a(I17
I2
tp970
a(I4
I0
tp971
a(I6
I0
tp972
asg47
S'tl1'
p973
sg49
g755
sg51
g756
sg53
(lp974
sg56
(lp975
(dp976
g59
Nsg60
Nsg61
Nsg62
(lp977
sg64
Nsg65
Nsg66
Nsg22
S'Healtouch'
p978
sa(dp979
g59
I1
sg60
Nsg61
Nsg62
(lp980
sg64
Nsg65
Nsg66
Nsg22
S'Miracle'
p981
sa(dp982
g59
Nsg60
Nsg61
Nsg62
(lp983
sg64
Nsg65
Nsg66
Nsg22
S'Futuresight'
p984
sa(dp985
g59
Nsg60
Nsg61
Nsg62
(lp986
sg64
Nsg65
Nsg66
Nsg22
S'fResistance +2'
p987
sasg83
(dp988
g85
I0
sg86
I0
sg87
I0
ssg88
I00
sg89
I148
sg90
(lp989
I0
aI0
aI0
aI0
aI76
aI0
aI41
asg92
g764
sg94
I5
sg95
I18
sg96
S'M'
sg97
I0
sg98
S'Oracle'
p990
sg100
I0
sg101
S'enemy'
p991
sg103
Nsa(dp992
g7
S'Pursue'
p993
sg9
(lp994
I65
aI15
aI40
aI55
aI45
aI60
aI15
aI65
asg11
I00
sg12
(lp995
(dp996
g15
Nsg16
I00
sg17
I00
sg18
I15
sg19
I00
sg20
I149
sg22
S'Corona'
p997
sa(dp998
g15
Nsg16
I00
sg17
I00
sg18
I15
sg19
I00
sg20
I149
sg22
S'Ruin'
p999
sa(dp1000
g15
Nsg16
I00
sg17
I00
sg18
I15
sg19
I00
sg20
I149
sg22
S'Physic'
p1001
sasg32
(lp1002
I55
aI105
aI130
aI85
aI115
aI70
aI105
aI55
asg34
I25
sg35
(lp1003
(I25
I0
tp1004
a(I2
I0
tp1005
a(I9
I0
tp1006
a(I12
I0
tp1007
a(I9
I0
tp1008
a(I10
I0
tp1009
a(I5
I0
tp1010
a(I17
I2
tp1011
a(I4
I0
tp1012
a(I6
I0
tp1013
asg47
S'tl2'
p1014
sg49
g755
sg51
g756
sg53
(lp1015
sg56
(lp1016
(dp1017
g59
Nsg60
Nsg61
Nsg62
(lp1018
sg64
Nsg65
Nsg66
Nsg22
g978
sa(dp1019
g59
I1
sg60
Nsg61
Nsg62
(lp1020
sg64
Nsg65
Nsg66
Nsg22
g981
sa(dp1021
g59
Nsg60
Nsg61
Nsg62
(lp1022
sg64
Nsg65
Nsg66
Nsg22
g984
sa(dp1023
g59
Nsg60
Nsg61
Nsg62
(lp1024
sg64
Nsg65
Nsg66
Nsg22
S'fResistance +2'
p1025
sasg83
(dp1026
g85
I0
sg86
I0
sg87
I0
ssg88
I00
sg89
I149
sg90
(lp1027
I0
aI0
aI0
aI0
aI76
aI0
aI41
asg92
g764
sg94
I5
sg95
I18
sg96
S'M'
sg97
I0
sg98
S'Oracle'
p1028
sg100
I0
sg101
S'enemy'
p1029
sg103
Nsa(dp1030
g7
S'Pursue'
p1031
sg9
(lp1032
I100
aI45
aI5
aI55
aI35
aI40
aI20
aI35
asg11
I00
sg12
(lp1033
(dp1034
g15
Nsg16
I00
sg17
I00
sg18
I20
sg19
I00
sg20
I150
sg22
S'Mithril Lance'
p1035
sa(dp1036
g15
Nsg16
I00
sg17
I00
sg18
I20
sg19
I00
sg20
I150
sg22
S'Mithril Sword'
p1037
sasg32
(lp1038
I50
aI115
aI135
aI85
aI145
aI130
aI90
aI145
asg34
I32
sg35
(lp1039
(I32
I0
tp1040
a(I11
I0
tp1041
a(I2
I0
tp1042
a(I12
I0
tp1043
a(I12
I0
tp1044
a(I6
I0
tp1045
a(I9
I0
tp1046
a(I9
I2
tp1047
a(I11
I0
tp1048
a(I8
I0
tp1049
asg47
S'tl3'
p1050
sg49
g755
sg51
g756
sg53
(lp1051
sg56
(lp1052
(dp1053
g59
Nsg60
Nsg61
Nsg62
(lp1054
sg64
Nsg65
Nsg66
Nsg22
S'Canto'
p1055
sa(dp1056
g59
Nsg60
Nsg61
Nsg62
(lp1057
sg64
Nsg65
Nsg66
Nsg22
S'Savior'
p1058
sa(dp1059
g59
Nsg60
Nsg61
Nsg62
(lp1060
sg64
Nsg65
Nsg66
Nsg22
S'Charisma'
p1061
sa(dp1062
g59
Nsg60
Nsg61
Nsg62
(lp1063
sg64
Nsg65
Nsg66
Nsg22
S'fResistance +2'
p1064
sasg83
(dp1065
g85
I0
sg86
I0
sg87
I0
ssg88
I00
sg89
I150
sg90
(lp1066
I41
aI41
aI0
aI0
aI0
aI0
aI0
asg92
g764
sg94
I2
sg95
I18
sg96
S'M'
sg97
I0
sg98
S'Paladin'
p1067
sg100
I0
sg101
S'enemy'
p1068
sg103
Nsa(dp1069
g7
S'Pursue'
p1070
sg9
(lp1071
I100
aI45
aI5
aI55
aI35
aI40
aI20
aI35
asg11
I00
sg12
(lp1072
(dp1073
g15
Nsg16
I00
sg17
I00
sg18
I20
sg19
I00
sg20
I151
sg22
S'Mithril Lance'
p1074
sa(dp1075
g15
Nsg16
I00
sg17
I00
sg18
I20
sg19
I00
sg20
I151
sg22
S'Mithril Sword'
p1076
sasg32
(lp1077
I50
aI115
aI135
aI85
aI145
aI130
aI90
aI145
asg34
I32
sg35
(lp1078
(I32
I0
tp1079
a(I11
I0
tp1080
a(I2
I0
tp1081
a(I12
I0
tp1082
a(I12
I0
tp1083
a(I6
I0
tp1084
a(I9
I0
tp1085
a(I9
I2
tp1086
a(I11
I0
tp1087
a(I8
I0
tp1088
asg47
S'tl4'
p1089
sg49
g755
sg51
g756
sg53
(lp1090
sg56
(lp1091
(dp1092
g59
Nsg60
Nsg61
Nsg62
(lp1093
sg64
Nsg65
Nsg66
Nsg22
g1055
sa(dp1094
g59
Nsg60
Nsg61
Nsg62
(lp1095
sg64
Nsg65
Nsg66
Nsg22
g1058
sa(dp1096
g59
Nsg60
Nsg61
Nsg62
(lp1097
sg64
Nsg65
Nsg66
Nsg22
g1061
sa(dp1098
g59
Nsg60
Nsg61
Nsg62
(lp1099
sg64
Nsg65
Nsg66
Nsg22
S'fResistance +2'
p1100
sasg83
(dp1101
g85
I0
sg86
I0
sg87
I0
ssg88
I00
sg89
I151
sg90
(lp1102
I41
aI41
aI0
aI0
aI0
aI0
aI0
asg92
g764
sg94
I2
sg95
I18
sg96
S'M'
sg97
I0
sg98
S'Paladin'
p1103
sg100
I0
sg101
S'enemy'
p1104
sg103
Nsa(dp1105
g7
S'Pursue'
p1106
sg9
(lp1107
I95
aI45
aI35
aI55
aI55
aI40
aI20
aI25
asg11
I00
sg12
(lp1108
(dp1109
g15
Nsg16
I00
sg17
I00
sg18
I15
sg19
I00
sg20
I152
sg22
S'Adamant Sword'
p1110
sasg32
(lp1111
I65
aI115
aI145
aI85
aI85
aI130
aI90
aI75
asg34
I32
sg35
(lp1112
(I32
I0
tp1113
a(I12
I0
tp1114
a(I8
I0
tp1115
a(I15
I0
tp1116
a(I16
I2
tp1117
a(I6
I0
tp1118
a(I6
I0
tp1119
a(I6
I0
tp1120
a(I7
I0
tp1121
a(I6
I0
tp1122
asg47
S'bl1'
p1123
sg49
g755
sg51
g756
sg53
(lp1124
sg56
(lp1125
(dp1126
g59
Nsg60
Nsg61
Nsg62
(lp1127
sg64
Nsg65
Nsg66
Nsg22
S'Riposte'
p1128
sa(dp1129
g59
Nsg60
Nsg61
Nsg62
(lp1130
sg64
Nsg65
Nsg66
Nsg22
S'Vantage'
p1131
sa(dp1132
g59
Nsg60
Nsg61
Nsg62
(lp1133
sg64
Nsg65
I0
sg66
Nsg22
S'Critical'
p1134
sa(dp1135
g59
Nsg60
Nsg61
Nsg62
(lp1136
sg64
Nsg65
Nsg66
Nsg22
S'fSpeed +2'
p1137
sasg83
(dp1138
g85
I0
sg86
I0
sg87
I0
ssg88
I00
sg89
I152
sg90
(lp1139
I76
aI0
aI0
aI0
aI0
aI0
aI0
asg92
g764
sg94
I0
sg95
I18
sg96
S'M'
sg97
I0
sg98
S'Swordmaster'
p1140
sg100
I0
sg101
S'enemy'
p1141
sg103
Nsa(dp1142
g7
S'Pursue'
p1143
sg9
(lp1144
I95
aI45
aI35
aI55
aI55
aI40
aI20
aI25
asg11
I00
sg12
(lp1145
(dp1146
g15
Nsg16
I00
sg17
I00
sg18
I15
sg19
I00
sg20
I153
sg22
S'Adamant Sword'
p1147
sasg32
(lp1148
I65
aI115
aI145
aI85
aI85
aI130
aI90
aI75
asg34
I32
sg35
(lp1149
(I32
I0
tp1150
a(I12
I0
tp1151
a(I8
I0
tp1152
a(I15
I0
tp1153
a(I16
I2
tp1154
a(I6
I0
tp1155
a(I6
I0
tp1156
a(I6
I0
tp1157
a(I7
I0
tp1158
a(I6
I0
tp1159
asg47
S'bl2'
p1160
sg49
g755
sg51
g756
sg53
(lp1161
sg56
(lp1162
(dp1163
g59
Nsg60
Nsg61
Nsg62
(lp1164
sg64
Nsg65
Nsg66
Nsg22
g1128
sa(dp1165
g59
Nsg60
Nsg61
Nsg62
(lp1166
sg64
Nsg65
Nsg66
Nsg22
g1131
sa(dp1167
g59
Nsg60
Nsg61
Nsg62
(lp1168
sg64
Nsg65
I0
sg66
Nsg22
g1134
sa(dp1169
g59
Nsg60
Nsg61
Nsg62
(lp1170
sg64
Nsg65
Nsg66
Nsg22
S'fSpeed +2'
p1171
sasg83
(dp1172
g85
I0
sg86
I0
sg87
I0
ssg88
I00
sg89
I153
sg90
(lp1173
I76
aI0
aI0
aI0
aI0
aI0
aI0
asg92
g764
sg94
I0
sg95
I18
sg96
S'M'
sg97
I0
sg98
S'Swordmaster'
p1174
sg100
I0
sg101
S'enemy'
p1175
sg103
Nsa(dp1176
g7
S'Pursue'
p1177
sg9
(lp1178
I85
aI45
aI35
aI55
aI95
aI45
aI25
aI40
asg11
I00
sg12
(lp1179
(dp1180
g15
Nsg16
I00
sg17
I00
sg18
I15
sg19
I00
sg20
I154
sg22
S'Adamant Lance'
p1181
sasg32
(lp1182
I95
aI115
aI145
aI85
aI65
aI115
aI75
aI130
asg34
I28
sg35
(lp1183
(I28
I0
tp1184
a(I11
I0
tp1185
a(I7
I0
tp1186
a(I12
I0
tp1187
a(I19
I2
tp1188
a(I7
I0
tp1189
a(I7
I0
tp1190
a(I10
I0
tp1191
a(I8
I0
tp1192
a(I7
I0
tp1193
asg47
S'bl3'
p1194
sg49
g755
sg51
g756
sg53
(lp1195
sg56
(lp1196
(dp1197
g59
Nsg60
Nsg61
Nsg62
(lp1198
sg64
Nsg65
Nsg66
Nsg22
S'Fleet_of_Foot'
p1199
sa(dp1200
g59
Nsg60
Nsg61
Nsg62
(lp1201
sg64
Nsg65
Nsg66
Nsg22
S'Evasion'
p1202
sa(dp1203
g59
Nsg60
Nsg61
Nsg62
(lp1204
sg64
Nsg65
Nsg66
Nsg22
S'Canto_Plus'
p1205
sa(dp1206
g59
Nsg60
Nsg61
Nsg62
(lp1207
sg64
Nsg65
Nsg66
Nsg22
S'fSpeed +2'
p1208
sasg83
(dp1209
g85
I0
sg86
I0
sg87
I0
ssg88
I00
sg89
I154
sg90
(lp1210
I0
aI76
aI0
aI0
aI0
aI0
aI0
asg92
g764
sg94
I0
sg95
I18
sg96
S'M'
sg97
I0
sg98
S'Dragoon'
p1211
sg100
I0
sg101
S'enemy'
p1212
sg103
Nsa(dp1213
g7
S'Pursue'
p1214
sg9
(lp1215
I85
aI45
aI35
aI55
aI95
aI45
aI25
aI40
asg11
I00
sg12
(lp1216
(dp1217
g15
Nsg16
I00
sg17
I00
sg18
I15
sg19
I00
sg20
I155
sg22
S'Adamant Lance'
p1218
sasg32
(lp1219
I95
aI115
aI145
aI85
aI65
aI115
aI75
aI130
asg34
I28
sg35
(lp1220
(I28
I0
tp1221
a(I11
I0
tp1222
a(I7
I0
tp1223
a(I12
I0
tp1224
a(I19
I2
tp1225
a(I7
I0
tp1226
a(I7
I0
tp1227
a(I10
I0
tp1228
a(I8
I0
tp1229
a(I7
I0
tp1230
asg47
S'bl4'
p1231
sg49
g755
sg51
g756
sg53
(lp1232
sg56
(lp1233
(dp1234
g59
Nsg60
Nsg61
Nsg62
(lp1235
sg64
Nsg65
Nsg66
Nsg22
g1199
sa(dp1236
g59
Nsg60
Nsg61
Nsg62
(lp1237
sg64
Nsg65
Nsg66
Nsg22
g1202
sa(dp1238
g59
Nsg60
Nsg61
Nsg62
(lp1239
sg64
Nsg65
Nsg66
Nsg22
g1205
sa(dp1240
g59
Nsg60
Nsg61
Nsg62
(lp1241
sg64
Nsg65
Nsg66
Nsg22
S'fSpeed +2'
p1242
sasg83
(dp1243
g85
I0
sg86
I0
sg87
I0
ssg88
I00
sg89
I155
sg90
(lp1244
I0
aI76
aI0
aI0
aI0
aI0
aI0
asg92
g764
sg94
I0
sg95
I18
sg96
S'M'
sg97
I0
sg98
S'Dragoon'
p1245
sg100
I0
sg101
S'enemy'
p1246
sg103
Nsa(dp1247
g7
S'Pursue'
p1248
sg9
(lp1249
I100
aI65
aI5
aI45
aI35
aI20
aI15
aI25
asg11
I00
sg12
(lp1250
(dp1251
g15
Nsg16
I00
sg17
I00
sg18
I25
sg19
I00
sg20
I156
sg22
S'Great Axe'
p1252
sa(dp1253
g15
Nsg16
I00
sg17
I00
sg18
I10
sg19
I00
sg20
I156
sg22
S'Tomahawk'
p1254
sasg32
(lp1255
I50
aI55
aI135
aI115
aI145
aI90
aI105
aI75
asg34
I34
sg35
(lp1256
(I34
I0
tp1257
a(I15
I2
tp1258
a(I0
I0
tp1259
a(I9
I0
tp1260
a(I10
I0
tp1261
a(I3
I0
tp1262
a(I6
I0
tp1263
a(I6
I0
tp1264
a(I13
I0
tp1265
a(I6
I0
tp1266
asg47
S'tr1'
p1267
sg49
g755
sg51
g756
sg53
(lp1268
sg56
(lp1269
(dp1270
g59
Nsg60
Nsg61
Nsg62
(lp1271
sg64
Nsg65
Nsg66
Nsg22
S'Prescience'
p1272
sa(dp1273
g59
Nsg60
Nsg61
Nsg62
(lp1274
sg64
Nsg65
I0
sg66
Nsg22
S'Shove'
p1275
sa(dp1276
g59
Nsg60
Nsg61
Nsg62
(lp1277
sg64
Nsg65
Nsg66
Nsg22
S'Regeneration'
p1278
sa(dp1279
g59
Nsg60
Nsg61
Nsg62
(lp1280
sg64
Nsg65
Nsg66
Nsg22
S'fStrength +2'
p1281
sasg83
(dp1282
g85
I0
sg86
I0
sg87
I0
ssg88
I00
sg89
I156
sg90
(lp1283
I0
aI0
aI76
aI0
aI0
aI0
aI0
asg92
g764
sg94
I4
sg95
I18
sg96
S'M'
sg97
I0
sg98
S'Berserker'
p1284
sg100
I0
sg101
S'enemy'
p1285
sg103
Nsa(dp1286
g7
S'Pursue'
p1287
sg9
(lp1288
I100
aI65
aI5
aI45
aI35
aI20
aI15
aI25
asg11
I00
sg12
(lp1289
(dp1290
g15
Nsg16
I00
sg17
I00
sg18
I25
sg19
I00
sg20
I157
sg22
S'Great Axe'
p1291
sa(dp1292
g15
Nsg16
I00
sg17
I00
sg18
I10
sg19
I00
sg20
I157
sg22
S'Tomahawk'
p1293
sasg32
(lp1294
I50
aI55
aI135
aI115
aI145
aI90
aI105
aI75
asg34
I34
sg35
(lp1295
(I34
I0
tp1296
a(I15
I2
tp1297
a(I0
I0
tp1298
a(I9
I0
tp1299
a(I10
I0
tp1300
a(I3
I0
tp1301
a(I6
I0
tp1302
a(I6
I0
tp1303
a(I13
I0
tp1304
a(I6
I0
tp1305
asg47
S'tr2'
p1306
sg49
g755
sg51
g756
sg53
(lp1307
sg56
(lp1308
(dp1309
g59
Nsg60
Nsg61
Nsg62
(lp1310
sg64
Nsg65
Nsg66
Nsg22
g1272
sa(dp1311
g59
Nsg60
Nsg61
Nsg62
(lp1312
sg64
Nsg65
I0
sg66
Nsg22
g1275
sa(dp1313
g59
Nsg60
Nsg61
Nsg62
(lp1314
sg64
Nsg65
Nsg66
Nsg22
g1278
sa(dp1315
g59
Nsg60
Nsg61
Nsg62
(lp1316
sg64
Nsg65
Nsg66
Nsg22
S'fStrength +2'
p1317
sasg83
(dp1318
g85
I0
sg86
I0
sg87
I0
ssg88
I00
sg89
I157
sg90
(lp1319
I0
aI0
aI76
aI0
aI0
aI0
aI0
asg92
g764
sg94
I4
sg95
I18
sg96
S'M'
sg97
I0
sg98
S'Berserker'
p1320
sg100
I0
sg101
S'enemy'
p1321
sg103
Nsa(dp1322
g7
S'Pursue'
p1323
sg9
(lp1324
I115
aI75
aI15
aI45
aI40
aI20
aI25
aI20
asg11
I00
sg12
(lp1325
(dp1326
g15
Nsg16
I00
sg17
I00
sg18
I15
sg19
I00
sg20
I158
sg22
S'Adamant Axe'
p1327
sa(dp1328
g15
Nsg16
I00
sg17
I00
sg18
I20
sg19
I00
sg20
I158
sg22
S'Yew Bow'
p1329
sasg32
(lp1330
I105
aI125
aI105
aI115
aI130
aI90
aI75
aI90
asg34
I37
sg35
(lp1331
(I37
I0
tp1332
a(I16
I2
tp1333
a(I2
I0
tp1334
a(I10
I0
tp1335
a(I9
I0
tp1336
a(I3
I0
tp1337
a(I8
I0
tp1338
a(I5
I0
tp1339
a(I12
I0
tp1340
a(I6
I0
tp1341
asg47
S'tr3'
p1342
sg49
g755
sg51
g756
sg53
(lp1343
sg56
(lp1344
(dp1345
g59
Nsg60
Nsg61
Nsg62
(lp1346
sg64
Nsg65
I0
sg66
Nsg22
S'Cleave'
p1347
sa(dp1348
g59
Nsg60
Nsg61
Nsg62
(lp1349
sg64
Nsg65
I0
sg66
Nsg22
S'Shove'
p1350
sa(dp1351
g59
Nsg60
Nsg61
Nsg62
(lp1352
sg64
Nsg65
Nsg66
Nsg22
S'Heavy Hitter'
p1353
sa(dp1354
g59
Nsg60
Nsg61
Nsg62
(lp1355
sg64
Nsg65
Nsg66
Nsg22
S'fStrength +2'
p1356
sasg83
(dp1357
g85
I0
sg86
I0
sg87
I0
ssg88
I00
sg89
I158
sg90
(lp1358
I0
aI0
aI76
aI41
aI0
aI0
aI0
asg92
g764
sg94
I4
sg95
I18
sg96
S'M'
sg97
I0
sg98
S'Warrior'
p1359
sg100
I0
sg101
S'enemy'
p1360
sg103
Nsa(dp1361
g7
S'Pursue'
p1362
sg9
(lp1363
I115
aI75
aI15
aI45
aI40
aI20
aI25
aI20
asg11
I00
sg12
(lp1364
(dp1365
g15
Nsg16
I00
sg17
I00
sg18
I15
sg19
I00
sg20
I159
sg22
S'Adamant Axe'
p1366
sa(dp1367
g15
Nsg16
I00
sg17
I00
sg18
I20
sg19
I00
sg20
I159
sg22
S'Yew Bow'
p1368
sasg32
(lp1369
I105
aI125
aI105
aI115
aI130
aI90
aI75
aI90
asg34
I37
sg35
(lp1370
(I37
I0
tp1371
a(I16
I2
tp1372
a(I2
I0
tp1373
a(I10
I0
tp1374
a(I9
I0
tp1375
a(I3
I0
tp1376
a(I8
I0
tp1377
a(I5
I0
tp1378
a(I12
I0
tp1379
a(I6
I0
tp1380
asg47
S'tr4'
p1381
sg49
g755
sg51
g756
sg53
(lp1382
sg56
(lp1383
(dp1384
g59
Nsg60
Nsg61
Nsg62
(lp1385
sg64
Nsg65
I0
sg66
Nsg22
g1347
sa(dp1386
g59
Nsg60
Nsg61
Nsg62
(lp1387
sg64
Nsg65
I0
sg66
Nsg22
g1350
sa(dp1388
g59
Nsg60
Nsg61
Nsg62
(lp1389
sg64
Nsg65
Nsg66
Nsg22
g1353
sa(dp1390
g59
Nsg60
Nsg61
Nsg62
(lp1391
sg64
Nsg65
Nsg66
Nsg22
S'fStrength +2'
p1392
sasg83
(dp1393
g85
I0
sg86
I0
sg87
I0
ssg88
I00
sg89
I159
sg90
(lp1394
I0
aI0
aI76
aI41
aI0
aI0
aI0
asg92
g764
sg94
I4
sg95
I18
sg96
S'M'
sg97
I0
sg98
S'Warrior'
p1395
sg100
I0
sg101
S'enemy'
p1396
sg103
Nsa(dp1397
g7
S'Pursue'
p1398
sg9
(lp1399
I105
aI55
aI15
aI40
aI20
aI35
aI55
aI35
asg11
I00
sg12
(lp1400
(dp1401
g15
Nsg16
I00
sg17
I00
sg18
I25
sg19
I00
sg20
I160
sg22
S'Great Sword'
p1402
sa(dp1403
g15
Nsg16
I00
sg17
I00
sg18
I15
sg19
I00
sg20
I160
sg22
S'Adamant Lance'
p1404
sasg32
(lp1405
I135
aI85
aI105
aI130
aI90
aI145
aI85
aI145
asg34
I32
sg35
(lp1406
(I32
I0
tp1407
a(I14
I0
tp1408
a(I2
I0
tp1409
a(I10
I0
tp1410
a(I7
I0
tp1411
a(I5
I0
tp1412
a(I17
I2
tp1413
a(I9
I0
tp1414
a(I11
I0
tp1415
a(I5
I0
tp1416
asg47
S'l1'
p1417
sg49
g755
sg51
g756
sg53
(lp1418
sg56
(lp1419
(dp1420
g59
Nsg60
Nsg61
Nsg62
(lp1421
sg64
Nsg65
Nsg66
Nsg22
g714
sa(dp1422
g59
Nsg60
Nsg61
Nsg62
(lp1423
sg64
Nsg65
I0
sg66
Nsg22
g717
sa(dp1424
g59
Nsg60
Nsg61
Nsg62
(lp1425
sg64
Nsg65
Nsg66
Nsg22
g720
sa(dp1426
g59
Nsg60
Nsg61
Nsg62
(lp1427
sg64
Nsg65
Nsg66
Nsg22
S'fDefense +2'
p1428
sasg83
(dp1429
g85
I0
sg86
I0
sg87
I0
ssg88
I00
sg89
I160
sg90
(lp1430
I41
aI76
aI0
aI0
aI0
aI0
aI0
asg92
g764
sg94
I1
sg95
I18
sg96
S'M'
sg97
I0
sg98
S'General'
p1431
sg100
I0
sg101
S'enemy'
p1432
sg103
Nsa(dp1433
g7
S'Pursue'
p1434
sg9
(lp1435
I105
aI55
aI15
aI40
aI20
aI35
aI55
aI35
asg11
I00
sg12
(lp1436
(dp1437
g15
Nsg16
I00
sg17
I00
sg18
I25
sg19
I00
sg20
I161
sg22
S'Great Sword'
p1438
sa(dp1439
g15
Nsg16
I00
sg17
I00
sg18
I15
sg19
I00
sg20
I161
sg22
S'Adamant Lance'
p1440
sasg32
(lp1441
I135
aI85
aI105
aI130
aI90
aI145
aI85
aI145
asg34
I32
sg35
(lp1442
(I32
I0
tp1443
a(I14
I0
tp1444
a(I2
I0
tp1445
a(I10
I0
tp1446
a(I7
I0
tp1447
a(I5
I0
tp1448
a(I17
I2
tp1449
a(I9
I0
tp1450
a(I11
I0
tp1451
a(I5
I0
tp1452
asg47
S'l2'
p1453
sg49
g755
sg51
g756
sg53
(lp1454
sg56
(lp1455
(dp1456
g59
Nsg60
Nsg61
Nsg62
(lp1457
sg64
Nsg65
Nsg66
Nsg22
g714
sa(dp1458
g59
Nsg60
Nsg61
Nsg62
(lp1459
sg64
Nsg65
I0
sg66
Nsg22
g717
sa(dp1460
g59
Nsg60
Nsg61
Nsg62
(lp1461
sg64
Nsg65
Nsg66
Nsg22
g720
sa(dp1462
g59
Nsg60
Nsg61
Nsg62
(lp1463
sg64
Nsg65
Nsg66
Nsg22
S'fDefense +2'
p1464
sasg83
(dp1465
g85
I0
sg86
I0
sg87
I0
ssg88
I00
sg89
I161
sg90
(lp1466
I41
aI76
aI0
aI0
aI0
aI0
aI0
asg92
g764
sg94
I1
sg95
I18
sg96
S'M'
sg97
I0
sg98
S'General'
p1467
sg100
I0
sg101
S'enemy'
p1468
sg103
Nsa(dp1469
g7
S'Pursue'
p1470
sg9
(lp1471
I105
aI60
aI15
aI45
aI35
aI35
aI35
aI25
asg11
I00
sg12
(lp1472
(dp1473
g15
Nsg16
I00
sg17
I00
sg18
I20
sg19
I00
sg20
I162
sg22
S'Mithril Axe'
p1474
sa(dp1475
g15
Nsg16
I00
sg17
I00
sg18
I20
sg19
I00
sg20
I162
sg22
S'Mithril Lance'
p1476
sasg32
(lp1477
I135
aI70
aI105
aI115
aI145
aI145
aI145
aI75
asg34
I35
sg35
(lp1478
(I35
I0
tp1479
a(I15
I0
tp1480
a(I2
I0
tp1481
a(I12
I0
tp1482
a(I10
I0
tp1483
a(I5
I0
tp1484
a(I10
I2
tp1485
a(I6
I0
tp1486
a(I9
I0
tp1487
a(I7
I0
tp1488
asg47
S'l3'
p1489
sg49
g755
sg51
g756
sg53
(lp1490
S'Flying'
p1491
asg56
(lp1492
(dp1493
g59
Nsg60
Nsg61
Nsg62
(lp1494
sg64
Nsg65
Nsg66
Nsg22
S'Flying'
p1495
sa(dp1496
g59
Nsg60
Nsg61
Nsg62
(lp1497
sg64
Nsg65
Nsg66
Nsg22
S'Empowered'
p1498
sa(dp1499
g59
Nsg60
Nsg61
Nsg62
(lp1500
sg64
Nsg65
Nsg66
Nsg22
S'Defense_Aura'
p1501
sa(dp1502
g59
Nsg60
Nsg61
Nsg62
(lp1503
sg64
Nsg65
Nsg66
Nsg22
S'fDefense +2'
p1504
sasg83
(dp1505
g85
I0
sg86
I0
sg87
I0
ssg88
I00
sg89
I162
sg90
(lp1506
I0
aI41
aI41
aI0
aI0
aI0
aI0
asg92
g764
sg94
I2
sg95
I18
sg96
S'M'
sg97
I0
sg98
S'Dracolord'
p1507
sg100
I0
sg101
S'enemy'
p1508
sg103
Nsa(dp1509
g7
S'Pursue'
p1510
sg9
(lp1511
I105
aI60
aI15
aI45
aI35
aI35
aI35
aI25
asg11
I00
sg12
(lp1512
(dp1513
g15
Nsg16
I00
sg17
I00
sg18
I20
sg19
I00
sg20
I163
sg22
S'Mithril Axe'
p1514
sa(dp1515
g15
Nsg16
I00
sg17
I00
sg18
I20
sg19
I00
sg20
I163
sg22
S'Mithril Lance'
p1516
sasg32
(lp1517
I135
aI70
aI105
aI115
aI145
aI145
aI145
aI75
asg34
I35
sg35
(lp1518
(I35
I0
tp1519
a(I15
I0
tp1520
a(I2
I0
tp1521
a(I12
I0
tp1522
a(I10
I0
tp1523
a(I5
I0
tp1524
a(I10
I2
tp1525
a(I6
I0
tp1526
a(I9
I0
tp1527
a(I7
I0
tp1528
asg47
S'l4'
p1529
sg49
g755
sg51
g756
sg53
(lp1530
g1491
asg56
(lp1531
(dp1532
g59
Nsg60
Nsg61
Nsg62
(lp1533
sg64
Nsg65
Nsg66
Nsg22
g1495
sa(dp1534
g59
Nsg60
Nsg61
Nsg62
(lp1535
sg64
Nsg65
Nsg66
Nsg22
g1498
sa(dp1536
g59
Nsg60
Nsg61
Nsg62
(lp1537
sg64
Nsg65
Nsg66
Nsg22
g1501
sa(dp1538
g59
Nsg60
Nsg61
Nsg62
(lp1539
sg64
Nsg65
Nsg66
Nsg22
S'fDefense +2'
p1540
sasg83
(dp1541
g85
I0
sg86
I0
sg87
I0
ssg88
I00
sg89
I163
sg90
(lp1542
I0
aI41
aI41
aI0
aI0
aI0
aI0
asg92
g764
sg94
I2
sg95
I18
sg96
S'M'
sg97
I0
sg98
S'Dracolord'
p1543
sg100
I0
sg101
S'enemy'
p1544
sg103
Nsa(dp1545
g7
S'Pursue'
p1546
sg9
(lp1547
I75
aI15
aI65
aI45
aI65
aI40
aI20
aI45
asg11
I00
sg12
(lp1548
(dp1549
g15
Nsg16
I00
sg17
I00
sg18
I15
sg19
I00
sg20
I164
sg22
S'Aether'
p1550
sa(dp1551
g15
Nsg16
I00
sg17
I00
sg18
I5
sg19
I00
sg20
I164
sg22
S'Fireball'
p1552
sasg32
(lp1553
I125
aI105
aI55
aI115
aI55
aI130
aI90
aI115
asg34
I26
sg35
(lp1554
(I26
I0
tp1555
a(I2
I0
tp1556
a(I13
I2
tp1557
a(I9
I0
tp1558
a(I13
I0
tp1559
a(I6
I0
tp1560
a(I7
I2
tp1561
a(I12
I2
tp1562
a(I5
I0
tp1563
a(I6
I0
tp1564
asg47
S'r1'
p1565
sg49
g755
sg51
g756
sg53
(lp1566
sg56
(lp1567
(dp1568
g59
Nsg60
Nsg61
Nsg62
(lp1569
sg64
Nsg65
Nsg66
Nsg22
S'Defense +2'
p1570
sa(dp1571
g59
Nsg60
Nsg61
Nsg62
(lp1572
sg64
Nsg65
Nsg66
Nsg22
S'Resistance +2'
p1573
sa(dp1574
g59
Nsg60
Nsg61
Nsg62
(lp1575
sg64
Nsg65
Nsg66
Nsg22
S'Focus'
p1576
sa(dp1577
g59
Nsg60
Nsg61
Nsg62
(lp1578
sg64
Nsg65
Nsg66
Nsg22
S'Conductance'
p1579
sa(dp1580
g59
Nsg60
Nsg61
Nsg62
(lp1581
sg64
Nsg65
I0
sg66
Nsg22
S'Metamagic'
p1582
sa(dp1583
g59
Nsg60
Nsg61
Nsg62
(lp1584
sg64
Nsg65
Nsg66
Nsg22
S'fMagic +2'
p1585
sasg83
(dp1586
g85
I0
sg86
I0
sg87
I0
ssg88
I00
sg89
I164
sg90
(lp1587
I0
aI0
aI0
aI0
aI0
aI76
aI0
asg92
g764
sg94
I5
sg95
I18
sg96
S'M'
sg97
I0
sg98
S'Sage'
p1588
sg100
I0
sg101
S'enemy'
p1589
sg103
Nsa(dp1590
g7
S'Pursue'
p1591
sg9
(lp1592
I75
aI15
aI65
aI45
aI65
aI40
aI20
aI45
asg11
I00
sg12
(lp1593
(dp1594
g15
Nsg16
I00
sg17
I00
sg18
I15
sg19
I00
sg20
I165
sg22
S'Aether'
p1595
sa(dp1596
g15
Nsg16
I00
sg17
I00
sg18
I5
sg19
I00
sg20
I165
sg22
S'Fireball'
p1597
sasg32
(lp1598
I125
aI105
aI55
aI115
aI55
aI130
aI90
aI115
asg34
I26
sg35
(lp1599
(I26
I0
tp1600
a(I2
I0
tp1601
a(I13
I2
tp1602
a(I9
I0
tp1603
a(I13
I0
tp1604
a(I6
I0
tp1605
a(I7
I2
tp1606
a(I12
I2
tp1607
a(I5
I0
tp1608
a(I6
I0
tp1609
asg47
S'r2'
p1610
sg49
g755
sg51
g756
sg53
(lp1611
sg56
(lp1612
(dp1613
g59
Nsg60
Nsg61
Nsg62
(lp1614
sg64
Nsg65
Nsg66
Nsg22
S'Defense +2'
p1615
sa(dp1616
g59
Nsg60
Nsg61
Nsg62
(lp1617
sg64
Nsg65
Nsg66
Nsg22
S'Resistance +2'
p1618
sa(dp1619
g59
Nsg60
Nsg61
Nsg62
(lp1620
sg64
Nsg65
Nsg66
Nsg22
g1576
sa(dp1621
g59
Nsg60
Nsg61
Nsg62
(lp1622
sg64
Nsg65
Nsg66
Nsg22
g1579
sa(dp1623
g59
Nsg60
Nsg61
Nsg62
(lp1624
sg64
Nsg65
I0
sg66
Nsg22
g1582
sa(dp1625
g59
Nsg60
Nsg61
Nsg62
(lp1626
sg64
Nsg65
Nsg66
Nsg22
S'fMagic +2'
p1627
sasg83
(dp1628
g85
I0
sg86
I0
sg87
I0
ssg88
I00
sg89
I165
sg90
(lp1629
I0
aI0
aI0
aI0
aI0
aI76
aI0
asg92
g764
sg94
I5
sg95
I18
sg96
S'M'
sg97
I0
sg98
S'Sage'
p1630
sg100
I0
sg101
S'enemy'
p1631
sg103
Nsa(dp1632
g7
S'Pursue'
p1633
sg9
(lp1634
I65
aI20
aI85
aI45
aI40
aI25
aI25
aI55
asg11
I00
sg12
(lp1635
(dp1636
g15
Nsg16
I00
sg17
I00
sg18
I10
sg19
I00
sg20
I166
sg22
S'Howl'
p1637
sa(dp1638
g15
Nsg16
I00
sg17
I00
sg18
I3
sg19
I00
sg20
I166
sg22
S'Disintegrate'
p1639
sasg32
(lp1640
I55
aI90
aI95
aI115
aI130
aI75
aI75
aI85
asg34
I26
sg35
(lp1641
(I26
I0
tp1642
a(I4
I0
tp1643
a(I16
I2
tp1644
a(I10
I0
tp1645
a(I10
I0
tp1646
a(I4
I0
tp1647
a(I7
I0
tp1648
a(I14
I0
tp1649
a(I8
I0
tp1650
a(I5
I0
tp1651
asg47
S'r3'
p1652
sg49
g755
sg51
g756
sg53
(lp1653
sg56
(lp1654
(dp1655
g59
Nsg60
Nsg61
Nsg62
(lp1656
sg64
Nsg65
Nsg66
Nsg22
S'Hex'
p1657
sa(dp1658
g59
Nsg60
Nsg61
Nsg62
(lp1659
sg64
Nsg65
Nsg66
Nsg22
S'Empowered'
p1660
sa(dp1661
g59
Nsg60
Nsg61
Nsg62
(lp1662
sg64
Nsg65
I0
sg66
Nsg22
S'Metamagic'
p1663
sa(dp1664
g59
Nsg60
Nsg61
Nsg62
(lp1665
sg64
Nsg65
Nsg66
Nsg22
S'fMagic +2'
p1666
sasg83
(dp1667
g85
I0
sg86
I0
sg87
I0
ssg88
I00
sg89
I166
sg90
(lp1668
I0
aI0
aI0
aI0
aI0
aI0
aI76
asg92
g764
sg94
I5
sg95
I18
sg96
S'M'
sg97
I0
sg98
S'Warlock'
p1669
sg100
I0
sg101
S'enemy'
p1670
sg103
Nsa(dp1671
g7
S'Pursue'
p1672
sg9
(lp1673
I65
aI20
aI85
aI45
aI40
aI25
aI25
aI55
asg11
I00
sg12
(lp1674
(dp1675
g15
Nsg16
I00
sg17
I00
sg18
I10
sg19
I00
sg20
I167
sg22
S'Howl'
p1676
sa(dp1677
g15
Nsg16
I00
sg17
I00
sg18
I3
sg19
I00
sg20
I167
sg22
S'Disintegrate'
p1678
sasg32
(lp1679
I55
aI90
aI95
aI115
aI130
aI75
aI75
aI85
asg34
I26
sg35
(lp1680
(I26
I0
tp1681
a(I4
I0
tp1682
a(I16
I2
tp1683
a(I10
I0
tp1684
a(I10
I0
tp1685
a(I4
I0
tp1686
a(I7
I0
tp1687
a(I14
I0
tp1688
a(I8
I0
tp1689
a(I5
I0
tp1690
asg47
S'r4'
p1691
sg49
g755
sg51
g756
sg53
(lp1692
sg56
(lp1693
(dp1694
g59
Nsg60
Nsg61
Nsg62
(lp1695
sg64
Nsg65
Nsg66
Nsg22
g1657
sa(dp1696
g59
Nsg60
Nsg61
Nsg62
(lp1697
sg64
Nsg65
Nsg66
Nsg22
g1660
sa(dp1698
g59
Nsg60
Nsg61
Nsg62
(lp1699
sg64
Nsg65
I0
sg66
Nsg22
g1663
sa(dp1700
g59
Nsg60
Nsg61
Nsg62
(lp1701
sg64
Nsg65
Nsg66
Nsg22
S'fMagic +2'
p1702
sasg83
(dp1703
g85
I0
sg86
I0
sg87
I0
ssg88
I00
sg89
I167
sg90
(lp1704
I0
aI0
aI0
aI0
aI0
aI0
aI76
asg92
g764
sg94
I5
sg95
I18
sg96
S'M'
sg97
I0
sg98
S'Warlock'
p1705
sg100
I0
sg101
S'enemy'
p1706
sg103
Nsa(dp1707
g7
S'Pursue'
p1708
sg9
(lp1709
I105
aI55
aI15
aI55
aI45
aI40
aI25
aI25
asg11
I00
sg12
(lp1710
(dp1711
g15
Nsg16
I00
sg17
I00
sg18
I15
sg19
I00
sg20
I168
sg22
S'Adamant Sword'
p1712
sa(dp1713
g15
Nsg16
I00
sg17
I00
sg18
I15
sg19
I00
sg20
I168
sg22
S'Short Axe'
p1714
sasg32
(lp1715
I135
aI85
aI105
aI85
aI115
aI130
aI75
aI75
asg34
I33
sg35
(lp1716
(I33
I0
tp1717
a(I12
I0
tp1718
a(I2
I0
tp1719
a(I16
I0
tp1720
a(I14
I0
tp1721
a(I6
I0
tp1722
a(I9
I0
tp1723
a(I6
I0
tp1724
a(I8
I0
tp1725
a(I6
I1
tp1726
asg47
S'b1'
p1727
sg49
g755
sg51
g756
sg53
(lp1728
sg56
(lp1729
(dp1730
g59
Nsg60
Nsg61
Nsg62
(lp1731
sg64
Nsg65
Nsg66
Nsg22
S'Initiative'
p1732
sa(dp1733
g59
Nsg60
Nsg61
Nsg62
(lp1734
sg64
Nsg65
Nsg66
Nsg22
S'Poise'
p1735
sa(dp1736
g59
Nsg60
Nsg61
Nsg62
(lp1737
sg64
Nsg65
I0
sg66
Nsg22
S'Sol'
p1738
sa(dp1739
g59
Nsg60
Nsg61
Nsg62
(lp1740
sg64
Nsg65
Nsg66
Nsg22
S'fMovement +1'
p1741
sasg83
(dp1742
g85
I0
sg86
I0
sg87
I0
ssg88
I00
sg89
I168
sg90
(lp1743
I76
aI0
aI16
aI0
aI0
aI0
aI0
asg92
g764
sg94
I4
sg95
I18
sg96
S'M'
sg97
I0
sg98
S'Vanguard'
p1744
sg100
I0
sg101
S'enemy'
p1745
sg103
Nsa(dp1746
g7
S'Pursue'
p1747
sg9
(lp1748
I105
aI55
aI15
aI55
aI45
aI40
aI25
aI25
asg11
I00
sg12
(lp1749
(dp1750
g15
Nsg16
I00
sg17
I00
sg18
I15
sg19
I00
sg20
I169
sg22
S'Adamant Sword'
p1751
sa(dp1752
g15
Nsg16
I00
sg17
I00
sg18
I15
sg19
I00
sg20
I169
sg22
S'Short Axe'
p1753
sasg32
(lp1754
I135
aI85
aI105
aI85
aI115
aI130
aI75
aI75
asg34
I33
sg35
(lp1755
(I33
I0
tp1756
a(I12
I0
tp1757
a(I2
I0
tp1758
a(I16
I0
tp1759
a(I14
I0
tp1760
a(I6
I0
tp1761
a(I9
I0
tp1762
a(I6
I0
tp1763
a(I8
I0
tp1764
a(I6
I1
tp1765
asg47
S'b2'
p1766
sg49
g755
sg51
g756
sg53
(lp1767
sg56
(lp1768
(dp1769
g59
Nsg60
Nsg61
Nsg62
(lp1770
sg64
Nsg65
Nsg66
Nsg22
g1732
sa(dp1771
g59
Nsg60
Nsg61
Nsg62
(lp1772
sg64
Nsg65
Nsg66
Nsg22
g1735
sa(dp1773
g59
Nsg60
Nsg61
Nsg62
(lp1774
sg64
Nsg65
I0
sg66
Nsg22
g1738
sa(dp1775
g59
Nsg60
Nsg61
Nsg62
(lp1776
sg64
Nsg65
Nsg66
Nsg22
S'fMovement +1'
p1777
sasg83
(dp1778
g85
I0
sg86
I0
sg87
I0
ssg88
I00
sg89
I169
sg90
(lp1779
I76
aI0
aI16
aI0
aI0
aI0
aI0
asg92
g764
sg94
I4
sg95
I18
sg96
S'M'
sg97
I0
sg98
S'Vanguard'
p1780
sg100
I0
sg101
S'enemy'
p1781
sg103
Nsa(dp1782
g7
S'Pursue'
p1783
sg9
(lp1784
I65
aI40
aI35
aI60
aI55
aI55
aI5
aI35
asg11
I00
sg12
(lp1785
(dp1786
g15
Nsg16
I00
sg17
I00
sg18
I10
sg19
I00
sg20
I170
sg22
S'Mithril Knife'
p1787
sa(dp1788
g15
Nsg16
I00
sg17
I00
sg18
I10
sg19
I00
sg20
I170
sg22
S'Yew Longbow'
p1789
sasg32
(lp1790
I55
aI130
aI145
aI70
aI85
aI85
aI135
aI145
asg34
I25
sg35
(lp1791
(I25
I0
tp1792
a(I10
I0
tp1793
a(I7
I0
tp1794
a(I15
I0
tp1795
a(I17
I0
tp1796
a(I9
I0
tp1797
a(I3
I0
tp1798
a(I8
I0
tp1799
a(I5
I0
tp1800
a(I7
I1
tp1801
asg47
S'b3'
p1802
sg49
g755
sg51
g756
sg53
(lp1803
sg56
(lp1804
(dp1805
g59
Nsg60
Nsg61
Nsg62
(lp1806
sg64
Nsg65
Nsg66
Nsg22
S'Locktouch'
p1807
sa(dp1808
g59
Nsg60
Nsg61
Nsg62
(lp1809
sg64
Nsg65
Nsg66
Nsg22
S'Steal'
p1810
sa(dp1811
g59
Nsg60
Nsg61
Nsg62
(lp1812
sg64
Nsg65
Nsg66
Nsg22
S'Ghost'
p1813
sa(dp1814
g59
Nsg60
Nsg61
Nsg62
(lp1815
sg64
Nsg65
Nsg66
Nsg22
S'fMovement +1'
p1816
sasg83
(dp1817
g85
I0
sg86
I0
sg87
I0
ssg88
I00
sg89
I170
sg90
(lp1818
I76
aI0
aI0
aI76
aI0
aI0
aI0
asg92
g764
sg94
I0
sg95
I18
sg96
S'M'
sg97
I0
sg98
S'Assassin'
p1819
sg100
I0
sg101
S'enemy'
p1820
sg103
Nsa(dp1821
g7
S'Pursue'
p1822
sg9
(lp1823
I65
aI40
aI35
aI60
aI55
aI55
aI5
aI35
asg11
I00
sg12
(lp1824
(dp1825
g15
Nsg16
I00
sg17
I00
sg18
I10
sg19
I00
sg20
I171
sg22
S'Mithril Knife'
p1826
sa(dp1827
g15
Nsg16
I00
sg17
I00
sg18
I10
sg19
I00
sg20
I171
sg22
S'Yew Longbow'
p1828
sasg32
(lp1829
I55
aI130
aI145
aI70
aI85
aI85
aI135
aI145
asg34
I25
sg35
(lp1830
(I25
I0
tp1831
a(I10
I0
tp1832
a(I7
I0
tp1833
a(I15
I0
tp1834
a(I17
I0
tp1835
a(I9
I0
tp1836
a(I3
I0
tp1837
a(I8
I0
tp1838
a(I5
I0
tp1839
a(I7
I1
tp1840
asg47
S'b4'
p1841
sg49
g755
sg51
g756
sg53
(lp1842
sg56
(lp1843
(dp1844
g59
Nsg60
Nsg61
Nsg62
(lp1845
sg64
Nsg65
Nsg66
Nsg22
g1807
sa(dp1846
g59
Nsg60
Nsg61
Nsg62
(lp1847
sg64
Nsg65
Nsg66
Nsg22
g1810
sa(dp1848
g59
Nsg60
Nsg61
Nsg62
(lp1849
sg64
Nsg65
Nsg66
Nsg22
g1813
sa(dp1850
g59
Nsg60
Nsg61
Nsg62
(lp1851
sg64
Nsg65
Nsg66
Nsg22
S'fMovement +1'
p1852
sasg83
(dp1853
g85
I0
sg86
I0
sg87
I0
ssg88
I00
sg89
I171
sg90
(lp1854
I76
aI0
aI0
aI76
aI0
aI0
aI0
asg92
g764
sg94
I0
sg95
I18
sg96
S'M'
sg97
I0
sg98
S'Assassin'
p1855
sg100
I0
sg101
S'enemy'
p1856
sg103
Nsa(dp1857
g7
S'Support'
p1858
sg9
(lp1859
I55
aI20
aI40
aI60
aI75
aI60
aI15
aI40
asg11
I00
sg12
(lp1860
(dp1861
g15
Nsg16
I00
sg17
I00
sg18
I15
sg19
I00
sg20
I172
sg22
S'Corona'
p1862
sa(dp1863
g15
Nsg16
I00
sg17
I00
sg18
I15
sg19
I00
sg20
I172
sg22
S'Physic'
p1864
sa(dp1865
g15
Nsg16
I00
sg17
I00
sg18
I5
sg19
I00
sg20
I172
sg22
S'Silence'
p1866
sasg32
(lp1867
I85
aI90
aI130
aI70
aI125
aI70
aI105
aI130
asg34
I22
sg35
(lp1868
(I22
I0
tp1869
a(I3
I0
tp1870
a(I9
I0
tp1871
a(I13
I0
tp1872
a(I15
I0
tp1873
a(I10
I0
tp1874
a(I5
I0
tp1875
a(I11
I0
tp1876
a(I11
I0
tp1877
a(I7
I0
tp1878
asg47
S's1'
p1879
sg49
g755
sg51
g756
sg53
(lp1880
sg56
(lp1881
(dp1882
g59
Nsg60
Nsg61
Nsg62
(lp1883
sg64
Nsg65
Nsg66
Nsg22
g795
sa(dp1884
g59
Nsg60
Nsg61
Nsg62
(lp1885
sg64
Nsg65
Nsg66
Nsg22
g798
sa(dp1886
g59
Nsg60
Nsg61
Nsg62
(lp1887
sg64
Nsg65
I0
sg66
Nsg22
g801
sasg83
(dp1888
g85
I0
sg86
I0
sg87
I0
ssg88
I00
sg89
I172
sg90
(lp1889
I0
aI0
aI0
aI0
aI76
aI0
aI0
asg92
g764
sg94
I3
sg95
I18
sg96
S'M'
sg97
I0
sg98
S'Strategist'
p1890
sg100
I0
sg101
S'enemy'
p1891
sg103
NsasS'convoy'
p1892
(lp1893
(dp1894
g15
Nsg16
I00
sg17
I00
sg18
I1
sg19
I00
sg20
I0
sg22
S'Skeleton Key'
p1895
sa(dp1896
g15
Nsg16
I00
sg17
I00
sg18
I20
sg19
I00
sg20
I0
sg22
S'Javelin'
p1897
sa(dp1898
g15
Nsg16
I00
sg17
I00
sg18
I35
sg19
I00
sg20
I0
sg22
S'Hatchet'
p1899
sa(dp1900
g15
Nsg16
I00
sg17
I00
sg18
I13
sg19
I00
sg20
I0
sg22
S'Javelin'
p1901
sa(dp1902
g15
Nsg16
I00
sg17
I00
sg18
I4
sg19
I00
sg20
I0
sg22
S'Wyrmsfire'
p1903
sa(dp1904
g15
Nsg16
I00
sg17
I00
sg18
I30
sg19
I00
sg20
I0
sg22
S'Brave Lance'
p1905
sa(dp1906
g15
Nsg16
I00
sg17
I00
sg18
I30
sg19
I00
sg20
I0
sg22
S'Brave Axe'
p1907
sa(dp1908
g15
Nsg16
I00
sg17
I00
sg18
I4
sg19
I00
sg20
I0
sg22
S'Mend'
p1909
sa(dp1910
g15
Nsg16
I00
sg17
I00
sg18
I3
sg19
I00
sg20
I0
sg22
S'Scathe'
p1911
sa(dp1912
g15
Nsg16
I00
sg17
I00
sg18
I2
sg19
I00
sg20
I0
sg22
S'Vulnerary'
p1913
sa(dp1914
g15
Nsg16
I00
sg17
I00
sg18
I18
sg19
I00
sg20
I0
sg22
S'Wind'
p1915
sa(dp1916
g15
Nsg16
I00
sg17
I00
sg18
I23
sg19
I00
sg20
I0
sg22
S'Hatchet'
p1917
sa(dp1918
g15
Nsg16
I00
sg17
I00
sg18
I10
sg19
I00
sg20
I0
sg22
S'Restore'
p1919
sa(dp1920
g15
Nsg16
I00
sg17
I00
sg18
I3
sg19
I00
sg20
I0
sg22
S'Vulnerary'
p1921
sa(dp1922
g15
Nsg16
I00
sg17
I00
sg18
I3
sg19
I00
sg20
I0
sg22
S'Vulnerary'
p1923
sa(dp1924
g15
Nsg16
I00
sg17
I00
sg18
I22
sg19
I00
sg20
I0
sg22
S'Glimmer'
p1925
sa(dp1926
g15
Nsg16
I00
sg17
I00
sg18
I3
sg19
I00
sg20
I0
sg22
S'Vulnerary'
p1927
sa(dp1928
g15
Nsg16
I00
sg17
I00
sg18
I45
sg19
I00
sg20
I0
sg22
S'Iron Lance'
p1929
sa(dp1930
g15
Nsg16
I00
sg17
I00
sg18
I3
sg19
I00
sg20
I0
sg22
S'Vulnerary'
p1931
sa(dp1932
g15
Nsg16
I00
sg17
I00
sg18
I3
sg19
I00
sg20
I0
sg22
S'Vulnerary'
p1933
sa(dp1934
g15
Nsg16
I00
sg17
I00
sg18
I30
sg19
I00
sg20
I0
sg22
S'Flux'
p1935
sa(dp1936
g15
Nsg16
I00
sg17
I00
sg18
I18
sg19
I00
sg20
I0
sg22
S'Nyx'
p1937
sa(dp1938
g15
Nsg16
I00
sg17
I00
sg18
I3
sg19
I00
sg20
I0
sg22
S'Vulnerary'
p1939
sa(dp1940
g15
Nsg16
I00
sg17
I00
sg18
I13
sg19
I00
sg20
I0
sg22
S'Fire'
p1941
sa(dp1942
g15
Nsg16
I00
sg17
I00
sg18
I24
sg19
I00
sg20
I0
sg22
S'Great Lance'
p1943
sasS'groups'
p1944
(dp1945
S'Claw'
p1946
(g764
g755
g756
tp1947
ssS'allreinforcements'
p1948
(dp1949
S'Eliza'
p1950
(g477
(I0
I0
ttp1951
sg1841
(I171
(I17
I27
ttp1952
sg1727
(I168
(I7
I17
ttp1953
sg1766
(I169
(I17
I17
ttp1954
sg1802
(I170
(I7
I27
ttp1955
sS'Theo'
p1956
(g423
(I0
I0
ttp1957
sg1014
(I149
(I6
I17
ttp1958
sg973
(I148
(I7
I16
ttp1959
sS'Althea'
p1960
(g264
(I0
I0
ttp1961
sg1089
(I151
(I7
I18
ttp1962
sg1879
(I172
(I12
I29
ttp1963
sS'Nia'
p1964
(g213
(I0
I0
ttp1965
sS'Kayla'
p1966
(g585
(I0
I0
ttp1967
sg1267
(I156
(I18
I17
ttp1968
sS'Coyote'
p1969
(g637
(I0
I0
ttp1970
sg1342
(I158
(I16
I17
ttp1971
sg1306
(I157
(I17
I18
ttp1972
sg1381
(I159
(I17
I16
ttp1973
sg1050
(I150
(I8
I17
ttp1974
sg898
(I146
(I17
I28
ttp1975
sS'Joel'
p1976
(g203
(I0
I0
ttp1977
sg935
(I147
(I18
I27
ttp1978
sS'Renae'
p1979
(g370
(I0
I0
ttp1980
sg866
(I145
(I17
I26
ttp1981
sS'Drake'
p1982
(g318
(I0
I0
ttp1983
sg831
(I144
(I16
I27
ttp1984
sg754
(I143
(I13
I3
ttp1985
sS'Ophie'
p1986
(g21
(I0
I0
ttp1987
sg1691
(I167
(I19
I21
ttp1988
sS'Prim'
p1989
(g110
(I0
I0
ttp1990
sg1565
(I164
(I18
I22
ttp1991
sg1610
(I165
(I20
I22
ttp1992
sg1652
(I166
(I19
I23
ttp1993
sS'Sam'
p1994
(g531
(I0
I0
ttp1995
sg1231
(I155
(I7
I26
ttp1996
sg1123
(I152
(I8
I27
ttp1997
sg1194
(I154
(I6
I27
ttp1998
sg1160
(I153
(I7
I28
ttp1999
sg1529
(I163
(I6
I22
ttp2000
sg1453
(I161
(I5
I23
ttp2001
sg1489
(I162
(I4
I22
ttp2002
sg1417
(I160
(I5
I21
ttp2003
ssS'base_conversations'
p2004
ccollections
OrderedDict
p2005
((ltRp2006
sS'playtime'
p2007
I37286788
sS'message'
p2008
(lp2009
S'Assets/Lex-Talionis/Data/Level10/turnChangeScript.txt'
p2010
asS'unlocked_lore'
p2011
(lp2012
S'Sam'
p2013
aS'Joel'
p2014
aS'Prim'
p2015
aS'Ophie'
p2016
aS'Althea'
p2017
aS'Drake'
p2018
aS'Nia'
p2019
aS'Renae'
p2020
aS'Theo'
p2021
aS'Kerala'
p2022
aS'Empire'
p2023
aS'Eliza'
p2024
aS'Podoma'
p2025
aS'Rajas'
p2026
aS'Ulver'
p2027
aS'Vagnius'
p2028
aS'CFS'
p2029
aS'Kayla'
p2030
aS'CFS'
p2031
aS'Kayla'
p2032
aS'Tyrana'
p2033
aS'Coyote'
p2034
asS'statistics'
p2035
(lp2036
g121
(cCode.CustomObjects
LevelStatistic
p2037
g123
NtRp2038
(dp2039
S'turncount'
p2040
I4
sg35
(dp2041
g93
(dp2042
S'damage'
p2043
I13
sS'kills'
p2044
I2
sS'healing'
p2045
I0
ssg161
(dp2046
g2043
I8
sg2044
I0
sg2045
I7
sssg92
S'Prologue'
p2047
sbag121
(g2037
g123
NtRp2048
(dp2049
g2040
I4
sg35
(dp2050
g93
(dp2051
g2043
I39
sg2044
I4
sg2045
I0
ssg205
(dp2052
g2043
I48
sg2044
I1
sg2045
I0
ssg255
(dp2053
g2043
I30
sg2044
I2
sg2045
I0
ssg161
(dp2054
g2043
I8
sg2044
I2
sg2045
I12
sssg92
S'Chapter I'
p2055
sbag121
(g2037
g123
NtRp2056
(dp2057
g2040
I9
sg35
(dp2058
g309
(dp2059
S'damage'
p2060
I67
sS'kills'
p2061
I3
sS'healing'
p2062
I0
ssg161
(dp2063
S'damage'
p2064
I4
sS'kills'
p2065
I0
sS'healing'
p2066
I43
ssg205
(dp2067
g2064
I52
sg2065
I4
sg2066
I0
ssg255
(dp2068
g2064
I14
sg2065
I2
sg2066
I0
ssg361
(dp2069
g2060
I44
sg2061
I3
sg2062
I0
ssg93
(dp2070
g2064
I21
sg2065
I3
sg2066
I0
sssg92
S'Chapter II'
p2071
sbag121
(g2037
g123
NtRp2072
(dp2073
g2040
I15
sg35
(dp2074
g468
(dp2075
S'damage'
p2076
I81
sS'kills'
p2077
I1
sS'healing'
p2078
I0
ssg309
(dp2079
S'damage'
p2080
I45
sS'kills'
p2081
I5
sS'healing'
p2082
I0
ssg161
(dp2083
g2080
I16
sg2081
I0
sg2082
I61
ssg205
(dp2084
g2080
I64
sg2081
I3
sg2082
I0
ssg255
(dp2085
g2080
I58
sg2081
I3
sg2082
I0
ssg414
(dp2086
g2076
I8
sg2077
I3
sg2078
I0
ssg361
(dp2087
g2080
I35
sg2081
I2
sg2082
I0
ssg93
(dp2088
g2080
I70
sg2081
I6
sg2082
I0
sssg92
S'Chapter III'
p2089
sbag121
(g2037
g123
NtRp2090
(dp2091
g2040
I9
sg35
(dp2092
g468
(dp2093
S'damage'
p2094
I61
sS'kills'
p2095
I4
sS'healing'
p2096
I0
ssg309
(dp2097
g2094
I125
sg2095
I8
sg2096
I0
ssg161
(dp2098
g2094
I5
sg2095
I0
sg2096
I44
ssg205
(dp2099
g2094
I47
sg2095
I2
sg2096
I0
ssg255
(dp2100
g2094
I51
sg2095
I2
sg2096
I0
ssg414
(dp2101
g2094
I54
sg2095
I5
sg2096
I0
ssg361
(dp2102
g2094
I58
sg2095
I2
sg2096
I0
ssg93
(dp2103
g2094
I47
sg2095
I5
sg2096
I0
ssg522
(dp2104
S'damage'
p2105
I52
sS'kills'
p2106
I7
sS'healing'
p2107
I0
sssg92
S'Chapter IV'
p2108
sbag121
(g2037
g123
NtRp2109
(dp2110
g2040
I15
sg35
(dp2111
g468
(dp2112
S'damage'
p2113
I18
sS'kills'
p2114
I3
sS'healing'
p2115
I0
ssg309
(dp2116
g2113
I137
sg2114
I7
sg2115
I0
ssg161
(dp2117
g2113
I0
sg2114
I0
sg2115
I73
ssg576
(dp2118
S'damage'
p2119
I43
sS'kills'
p2120
I2
sS'healing'
p2121
I8
ssg205
(dp2122
g2113
I41
sg2114
I0
sg2115
I0
ssg255
(dp2123
g2113
I25
sg2114
I3
sg2115
I0
ssg414
(dp2124
g2113
I132
sg2114
I6
sg2115
I0
ssg361
(dp2125
g2113
I24
sg2114
I1
sg2115
I0
ssg628
(dp2126
g2119
I45
sg2120
I1
sg2121
I0
ssg93
(dp2127
g2113
I69
sg2114
I5
sg2115
I0
ssg522
(dp2128
g2113
I20
sg2114
I3
sg2115
I0
sssg92
S'Chapter V'
p2129
sbag121
(g2037
g123
NtRp2130
(dp2131
g2040
I20
sg35
(dp2132
g468
(dp2133
S'damage'
p2134
I83
sS'kills'
p2135
I4
sS'healing'
p2136
I0
ssg309
(dp2137
g2134
I175
sg2135
I6
sg2136
I0
ssg161
(dp2138
g2134
I33
sg2135
I1
sg2136
I113
ssg576
(dp2139
g2134
I72
sg2135
I5
sg2136
I51
ssg205
(dp2140
g2134
I123
sg2135
I5
sg2136
I0
ssg255
(dp2141
g2134
I118
sg2135
I9
sg2136
I0
ssg414
(dp2142
g2134
I33
sg2135
I2
sg2136
I0
ssg361
(dp2143
g2134
I39
sg2135
I4
sg2136
I0
ssg628
(dp2144
g2134
I115
sg2135
I5
sg2136
I0
ssg684
(dp2145
S'damage'
p2146
I83
sS'kills'
p2147
I3
sS'healing'
p2148
I0
ssg93
(dp2149
g2134
I152
sg2135
I12
sg2136
I0
ssg522
(dp2150
g2134
I97
sg2135
I6
sg2136
I0
sssg92
S'Chapter VI'
p2151
sbag121
(g2037
g123
NtRp2152
(dp2153
g2040
I1
sg35
(dp2154
g468
(dp2155
S'damage'
p2156
I0
sS'kills'
p2157
I0
sS'healing'
p2158
I0
ssg309
(dp2159
g2156
I0
sg2157
I0
sg2158
I0
ssg161
(dp2160
g2156
I0
sg2157
I0
sg2158
I0
ssg576
(dp2161
g2156
I0
sg2157
I0
sg2158
I0
ssg205
(dp2162
g2156
I0
sg2157
I0
sg2158
I0
ssg255
(dp2163
g2156
I0
sg2157
I0
sg2158
I0
ssg414
(dp2164
g2156
I0
sg2157
I0
sg2158
I0
ssg361
(dp2165
g2156
I0
sg2157
I0
sg2158
I0
ssg628
(dp2166
g2156
I0
sg2157
I0
sg2158
I0
ssg684
(dp2167
g2156
I0
sg2157
I0
sg2158
I0
ssg93
(dp2168
g2156
I0
sg2157
I0
sg2158
I0
ssg522
(dp2169
g2156
I0
sg2157
I0
sg2158
I0
sssg92
S'Chapter VII'
p2170
sbag121
(g2037
g123
NtRp2171
(dp2172
g2040
I1
sg35
(dp2173
g468
(dp2174
S'damage'
p2175
I0
sS'kills'
p2176
I0
sS'healing'
p2177
I0
ssg309
(dp2178
g2175
I0
sg2176
I0
sg2177
I0
ssg161
(dp2179
g2175
I0
sg2176
I0
sg2177
I0
ssg576
(dp2180
g2175
I0
sg2176
I0
sg2177
I0
ssg205
(dp2181
g2175
I0
sg2176
I0
sg2177
I0
ssg255
(dp2182
g2175
I0
sg2176
I0
sg2177
I0
ssg414
(dp2183
g2175
I0
sg2176
I0
sg2177
I0
ssg361
(dp2184
g2175
I0
sg2176
I0
sg2177
I0
ssg628
(dp2185
g2175
I0
sg2176
I0
sg2177
I0
ssg684
(dp2186
g2175
I0
sg2176
I0
sg2177
I0
ssg93
(dp2187
g2175
I0
sg2176
I0
sg2177
I0
ssg522
(dp2188
g2175
I0
sg2176
I0
sg2177
I0
sssg92
S'Chapter VIII'
p2189
sbag121
(g2037
g123
NtRp2190
(dp2191
g2040
I1
sg35
(dp2192
g468
(dp2193
S'damage'
p2194
I0
sS'kills'
p2195
I0
sS'healing'
p2196
I0
ssg309
(dp2197
g2194
I0
sg2195
I0
sg2196
I0
ssg161
(dp2198
g2194
I0
sg2195
I0
sg2196
I0
ssg576
(dp2199
g2194
I0
sg2195
I0
sg2196
I0
ssg205
(dp2200
g2194
I0
sg2195
I0
sg2196
I0
ssg255
(dp2201
g2194
I0
sg2195
I0
sg2196
I0
ssg414
(dp2202
g2194
I0
sg2195
I0
sg2196
I0
ssg361
(dp2203
g2194
I0
sg2195
I0
sg2196
I0
ssg628
(dp2204
g2194
I0
sg2195
I0
sg2196
I0
ssg684
(dp2205
g2194
I0
sg2195
I0
sg2196
I0
ssg93
(dp2206
g2194
I0
sg2195
I0
sg2196
I0
ssg522
(dp2207
g2194
I0
sg2195
I0
sg2196
I0
sssg92
S'Chapter IX'
p2208
sbasS'market_items'
p2209
c__builtin__
set
p2210
((lp2211
S'Nyx'
p2212
aS'Great Bow'
p2213
aS'Mithril Lance'
p2214
aS'Ruin'
p2215
aS'Mithril Axe'
p2216
aS'Oak Longbow'
p2217
aS'Wyrmsfire'
p2218
aS'Glimmer'
p2219
aS'Mend'
p2220
aS'Spiritbane'
p2221
aS'Yew Bow'
p2222
aS'Potion'
p2223
aS'Fire'
p2224
aS'Heal'
p2225
aS'Great Lance'
p2226
aS'Water'
p2227
aS'Hand Axe'
p2228
aS'Great Axe'
p2229
aS'Physic'
p2230
aS'Iron Sword'
p2231
aS'Shine'
p2232
aS'Short Spear'
p2233
aS'Iron Lance'
p2234
aS'Hex'
p2235
aS'Hatchet'
p2236
aS'Vulnerary'
p2237
aS'Willow Bow'
p2238
aS'Barkskin'
p2239
aS'Corona'
p2240
aS'Flux'
p2241
aS'Slim Lance'
p2242
aS'Mithril Sword'
p2243
aS'Elixir'
p2244
aS'Short Axe'
p2245
aS'Wind'
p2246
aS'Steel Lance'
p2247
aS'Longbow'
p2248
aS'Iron Knife'
p2249
aS'Scathe'
p2250
aS'Oak Bow'
p2251
aS'Steel Sword'
p2252
aS'Javelin'
p2253
aS'Steel Axe'
p2254
aS'Earth'
p2255
aS'Great Sword'
p2256
aS'Steel Knife'
p2257
aS'Iron Axe'
p2258
atRp2259
sS'support'
p2260
NsS'event_triggers'
p2261
(lp2262
sS'objective'
p2263
(S'Defeat Ulver'
p2264
S'Defeat Duke Ulver'
p2265
S'Ophie dies,OR,Sam dies'
p2266
tp2267
sS'metaDataObj_changes'
p2268
(lp2269
sS'counters'
p2270
(dp2271
S'Dead_Wagons'
p2272
I12
sS'line_cross'
p2273
I12
sS'level'
p2274
I10
sS'money'
p2275
I123
sS'switches'
p2276
I2
sS'Civ_Escape'
p2277
I2
sS'Escaped_Wagons'
p2278
I0
ssS'map'
p2279
(dp2280
S'HP'
p2281
(lp2282
sS'command_list'
p2283
(lp2284
(lp2285
S'layer_tile_sprite'
p2286
aS'1'
aS'12,9'
p2287
aS'top_walkway2'
p2288
aa(lp2289
S'layer_tile_sprite'
p2290
aS'1'
aS'10,10'
p2291
aS'top_walkway'
p2292
aa(lp2293
S'layer_tile_sprite'
p2294
aS'2'
aS'10,7'
p2295
aS'top_gap'
p2296
aa(lp2297
S'layer_tile_sprite'
p2298
aS'3'
aS'10,32'
p2299
aS'bottom_gap'
p2300
aa(lp2301
S'show_layer'
p2302
aS'1'
aS'immediate'
p2303
aassS'state_list'
p2304
((lp2305
S'free'
p2306
aS'status'
p2307
aS'phase_change'
p2308
aS'dialogue'
p2309
aS'prep_main'
p2310
a(ltp2311
sS'prefabs'
p2312
(dp2313
sS'phase_info'
p2314
(I0
I3
tp2315
sg2040
I1
sS'game_constants'
p2316
(lp2317
S'Convoy'
p2318
as.