(dp1
S'talk_options'
p2
(lp3
sS'allunits'
p4
(lp5
(dp6
S'ai'
p7
S'None'
p8
sS'growths'
p9
(lp10
I105
aI55
aI35
aI75
aI80
aI80
aI40
aI40
asS'dead'
p11
I00
sS'items'
p12
(lp13
(dp14
S'c_uses'
p15
NsS'locked'
p16
I00
sS'droppable'
p17
I00
sS'uses'
p18
I12
sS'event_combat'
p19
I00
sS'owner'
p20
S'Ophie'
p21
sS'id'
p22
S'Mithril Sword'
p23
sa(dp24
g15
Nsg16
I00
sg17
I00
sg18
I9
sg19
I00
sg20
g21
sg22
S'Steel Sword'
p25
sa(dp26
g15
Nsg16
I00
sg17
I00
sg18
I14
sg19
I00
sg20
g21
sg22
S'Iron Sword'
p27
sa(dp28
g15
Nsg16
I00
sg17
I00
sg18
I2
sg19
I00
sg20
g21
sg22
S'Vulnerary'
p29
sasS'growth_points'
p30
(lp31
I15
aI65
aI5
aI25
aI90
aI90
aI70
aI70
asS'currenthp'
p32
ccopy_reg
_reconstructor
p33
(cCode.UnitObject
Stat
p34
c__builtin__
object
p35
NtRp36
(dp37
S'bonuses'
p38
I0
sS'base_stat'
p39
I31
sbsS'stats'
p40
(lp41
(I31
I0
tp42
a(I12
I2
tp43
a(I7
I0
tp44
a(I15
I0
tp45
a(I17
I0
tp46
a(I12
I0
tp47
a(I8
I0
tp48
a(I7
I0
tp49
a(I7
I0
tp50
a(I6
I0
tp51
asS'event_id'
p52
S'Ophie'
p53
sS'faction'
p54
S'Resistance'
p55
sS'desc'
p56
S'A strong-hearted renegade who often acts before he thinks.'
p57
sS'tags'
p58
(lp59
S'Lord'
p60
asS'status_effects'
p61
(lp62
(dp63
S'count'
p64
NsS'time_left'
p65
NsS'upkeep_sc_count'
p66
NsS'children'
p67
(lp68
sS'parent_id'
p69
NsS'charge'
p70
NsS'rhythm_sc_count'
p71
Nsg22
S'Riposte'
p72
sa(dp73
g64
Nsg65
Nsg66
Nsg67
(lp74
sg69
Nsg70
Nsg71
Nsg22
S'Vantage'
p75
sa(dp76
g64
Nsg65
Nsg66
Nsg67
(lp77
sg69
Nsg70
Nsg71
Nsg22
S'fStrength +2'
p78
sa(dp79
g64
Nsg65
Nsg66
Nsg67
(lp80
sg69
Nsg70
I0
sg71
Nsg22
S'Critical'
p81
sa(dp82
g64
Nsg65
Nsg66
Nsg67
(lp83
sg69
Nsg70
Nsg71
Nsg22
S'Shimmer'
p84
sasS'records'
p85
(dp86
S'damage'
p87
I0
sS'kills'
p88
I0
sS'healing'
p89
I0
ssS'finished'
p90
I00
sS'u_id'
p91
g21
sS'wexp'
p92
(lp93
I85
aI0
aI0
aI0
aI0
aI0
aI0
asS'name'
p94
S'Ophie'
p95
sS'movement_group'
p96
I0
sS'level'
p97
I15
sS'gender'
p98
S'M'
sS'TRV'
p99
I0
sS'klass'
p100
S'Swordmaster'
p101
sS'exp'
p102
I46
sS'team'
p103
S'player'
p104
sS'position'
p105
Nsa(dp106
g7
S'None'
p107
sg9
(lp108
I65
aI15
aI65
aI40
aI55
aI80
aI25
aI80
asg11
I00
sg12
(lp109
(dp110
g15
Nsg16
I00
sg17
I00
sg18
I17
sg19
I00
sg20
S'Prim'
p111
sg22
S'Glimmer'
p112
sa(dp113
g15
Nsg16
I00
sg17
I00
sg18
I21
sg19
I00
sg20
g111
sg22
S'Heal'
p114
sa(dp115
g15
Nsg16
I00
sg17
I00
sg18
I15
sg19
I00
sg20
g111
sg22
S'Mend'
p116
sasg30
(lp117
I0
aI0
aI0
aI50
aI0
aI50
aI0
aI50
asg32
g33
(g34
g35
NtRp118
(dp119
g38
I0
sg39
I21
sbsg40
(lp120
(I21
I0
tp121
a(I2
I0
tp122
a(I11
I0
tp123
a(I9
I0
tp124
a(I12
I0
tp125
a(I12
I0
tp126
a(I7
I0
tp127
a(I14
I0
tp128
a(I4
I0
tp129
a(I6
I0
tp130
asg52
S'Prim'
p131
sg54
S'Resistance'
p132
sg56
S'A shy but kind-hearted young woman. Has an affinity with the spiritual.'
p133
sg58
(lp134
sg61
(lp135
(dp136
g64
Nsg65
Nsg66
Nsg67
(lp137
sg69
Nsg70
Nsg71
Nsg22
S'Healtouch'
p138
sa(dp139
g64
I1
sg65
Nsg66
Nsg67
(lp140
sg69
Nsg70
Nsg71
Nsg22
S'Miracle'
p141
sa(dp142
g64
Nsg65
Nsg66
Nsg67
(lp143
sg69
Nsg70
Nsg71
Nsg22
S'Futuresight'
p144
sasg85
(dp145
g87
I0
sg88
I0
sg89
I0
ssg90
I00
sg91
g111
sg92
(lp146
I0
aI0
aI0
aI0
aI80
aI0
aI16
asg94
S'Prim'
p147
sg96
I5
sg97
I12
sg98
S'F'
sg99
I0
sg100
S'Oracle'
p148
sg102
I54
sg103
S'player'
p149
sg105
Nsa(dp150
g7
S'None'
p151
sg9
(lp152
I105
aI80
aI5
aI60
aI55
aI45
aI35
aI20
asg11
I00
sg12
(lp153
(dp154
g15
Nsg16
I00
sg17
I00
sg18
I16
sg19
I00
sg20
S'Joel'
p155
sg22
S'Mithril Axe'
p156
sa(dp157
g15
Nsg16
I00
sg17
I00
sg18
I16
sg19
I00
sg20
g155
sg22
S'Willow Bow'
p158
sa(dp159
g15
Nsg16
I00
sg17
I00
sg18
I7
sg19
I00
sg20
g155
sg22
S'Swordreaver'
p160
sa(dp161
g15
Nsg16
I00
sg17
I00
sg18
I23
sg19
I00
sg20
g155
sg22
S'Great Axe'
p162
sa(dp163
g15
Nsg16
I00
sg17
I00
sg18
I1
sg19
I00
sg20
g155
sg22
S'Elixir'
p164
sasg30
(lp165
I0
aI50
aI0
aI50
aI0
aI0
aI0
aI50
asg32
g33
(g34
g35
NtRp166
(dp167
g38
I0
sg39
I35
sbsg40
(lp168
(I35
I0
tp169
a(I14
I0
tp170
a(I1
I0
tp171
a(I11
I0
tp172
a(I10
I0
tp173
a(I8
I0
tp174
a(I10
I0
tp175
a(I5
I0
tp176
a(I12
I0
tp177
a(I6
I0
tp178
asg52
S'0'
sg54
S'Resistance'
p179
sg56
S'A jovial former sailor. Always ready for a new adventure.'
p180
sg58
(lp181
sg61
(lp182
(dp183
g64
Nsg65
Nsg66
Nsg67
(lp184
sg69
Nsg70
I0
sg71
Nsg22
S'Cleave'
p185
sa(dp186
g64
Nsg65
Nsg66
Nsg67
(lp187
sg69
Nsg70
I0
sg71
Nsg22
S'Shove'
p188
sa(dp189
g64
Nsg65
Nsg66
Nsg67
(lp190
sg69
Nsg70
Nsg71
Nsg22
S'Heavy Hitter'
p191
sasg85
(dp192
g87
I0
sg88
I0
sg89
I0
ssg90
I00
sg91
g155
sg92
(lp193
I0
aI0
aI77
aI23
aI0
aI0
aI0
asg94
S'Joel'
p194
sg96
I4
sg97
I14
sg98
S'M'
sg99
I0
sg100
S'Warrior'
p195
sg102
I10
sg103
S'player'
p196
sg105
Nsa(dp197
g7
S'None'
p198
sg9
(lp199
I80
aI55
aI35
aI80
aI80
aI25
aI20
aI40
asg11
I00
sg12
(lp200
(dp201
g15
Nsg16
I00
sg17
I00
sg18
I12
sg19
I00
sg20
S'Nia'
p202
sg22
S'Yew Bow'
p203
sa(dp204
g15
Nsg16
I00
sg17
I00
sg18
I16
sg19
I00
sg20
g202
sg22
S'Oak Bow'
p205
sa(dp206
g15
Nsg16
I00
sg17
I00
sg18
I13
sg19
I00
sg20
g202
sg22
S'Longbow'
p207
sa(dp208
g15
Nsg16
I00
sg17
I00
sg18
I2
sg19
I00
sg20
g202
sg22
S'Vulnerary'
p209
sa(dp210
g15
Nsg16
I00
sg17
I00
sg18
I3
sg19
I00
sg20
g202
sg22
S'Elixir'
p211
sasg30
(lp212
I30
aI55
aI35
aI30
aI30
aI25
aI70
aI90
asg32
g33
(g34
g35
NtRp213
(dp214
g38
I5
sg39
I26
sbsg40
(lp215
(I26
I5
tp216
a(I13
I0
tp217
a(I7
I0
tp218
a(I16
I0
tp219
a(I16
I0
tp220
a(I6
I0
tp221
a(I6
I0
tp222
a(I8
I0
tp223
a(I7
I0
tp224
a(I6
I0
tp225
asg52
S'0'
sg54
S'Resistance'
p226
sg56
S'A quiet archer most at home in the wilderness.'
p227
sg58
(lp228
sg61
(lp229
(dp230
g64
Nsg65
Nsg66
Nsg67
(lp231
sg69
Nsg70
Nsg71
Nsg22
S'Prescience'
p232
sa(dp233
g64
Nsg65
Nsg66
Nsg67
(lp234
sg69
Nsg70
I0
sg71
Nsg22
S'Critical'
p235
sa(dp236
g64
Nsg65
Nsg66
Nsg67
(lp237
sg69
Nsg70
Nsg71
Nsg22
S'Evasion'
p238
sa(dp239
g64
Nsg65
Nsg66
Nsg67
(lp240
sg69
Nsg70
Nsg71
Nsg22
S'fMaximum HP +5'
p241
sasg85
(dp242
g87
I0
sg88
I0
sg89
I0
ssg90
I00
sg91
g202
sg92
(lp243
I0
aI0
aI0
aI89
aI0
aI0
aI0
asg94
S'Nia'
p244
sg96
I0
sg97
I15
sg98
S'F'
sg99
I0
sg100
S'Ranger'
p245
sg102
I91
sg103
S'player'
p246
sg105
Nsa(dp247
g7
S'None'
p248
sg9
(lp249
I60
aI15
aI85
aI40
aI60
aI60
aI20
aI55
asg11
I00
sg12
(lp250
(dp251
g15
Nsg16
I00
sg17
I00
sg18
I1
sg19
I00
sg20
S'Althea'
p252
sg22
S'Wind'
p253
sa(dp254
g15
Nsg16
I00
sg17
I00
sg18
I20
sg19
I00
sg20
g252
sg22
S'Water'
p255
sa(dp256
g15
Nsg16
I00
sg17
I00
sg18
I25
sg19
I00
sg20
g252
sg22
S'Earth'
p257
sa(dp258
g15
Nsg16
I00
sg17
I00
sg18
I3
sg19
I00
sg20
g252
sg22
S'Vulnerary'
p259
sasg30
(lp260
I10
aI15
aI85
aI90
aI10
aI10
aI70
aI55
asg32
g33
(g34
g35
NtRp261
(dp262
g38
I5
sg39
I21
sbsg40
(lp263
(I21
I5
tp264
a(I3
I0
tp265
a(I15
I0
tp266
a(I9
I0
tp267
a(I12
I2
tp268
a(I12
I0
tp269
a(I7
I0
tp270
a(I12
I0
tp271
a(I4
I0
tp272
a(I6
I0
tp273
asg52
S'0'
sg54
S'Resistance'
p274
sg56
S'A forthright but elegant and refined sorceress.'
p275
sg58
(lp276
sg61
(lp277
(dp278
g64
Nsg65
Nsg66
Nsg67
(lp279
sg69
Nsg70
Nsg71
Nsg22
S'Focus'
p280
sa(dp281
g64
Nsg65
Nsg66
Nsg67
(lp282
sg69
Nsg70
Nsg71
Nsg22
S'fMaximum HP +5'
p283
sa(dp284
g64
Nsg65
Nsg66
Nsg67
(lp285
sg69
Nsg70
Nsg71
Nsg22
S'Conductance'
p286
sa(dp287
g64
Nsg65
Nsg66
Nsg67
(lp288
sg69
Nsg70
Nsg71
Nsg22
S'Speed +2'
p289
sasg85
(dp290
g87
I0
sg88
I0
sg89
I0
ssg90
I00
sg91
g252
sg92
(lp291
I0
aI0
aI0
aI0
aI0
aI77
aI0
asg94
S'Althea'
p292
sg96
I5
sg97
I14
sg98
S'F'
sg99
I0
sg100
S'Sage'
p293
sg102
I77
sg103
S'player'
p294
sg105
Nsa(dp295
g7
S'None'
p296
sg9
(lp297
I95
aI65
aI5
aI60
aI60
aI40
aI55
aI40
asg11
I00
sg12
(lp298
(dp299
g15
Nsg16
I00
sg17
I00
sg18
I37
sg19
I00
sg20
S'Drake'
p300
sg22
S'Iron Lance'
p301
sa(dp302
g15
Nsg16
I00
sg17
I00
sg18
I26
sg19
I00
sg20
g300
sg22
S'Steel Sword'
p303
sa(dp304
g15
Nsg16
I00
sg17
I00
sg18
I5
sg19
I00
sg20
g300
sg22
S'Short Spear'
p305
sa(dp306
g15
Nsg16
I00
sg17
I00
sg18
I27
sg19
I00
sg20
g300
sg22
S'Steel Lance'
p307
sa(dp308
g15
Nsg16
I00
sg17
I00
sg18
I3
sg19
I00
sg20
g300
sg22
S'Vulnerary'
p309
sasg30
(lp310
I10
aI70
aI90
aI30
aI30
aI70
aI90
aI70
asg32
g33
(g34
g35
NtRp311
(dp312
g38
I0
sg39
I27
sbsg40
(lp313
(I27
I0
tp314
a(I12
I0
tp315
a(I1
I0
tp316
a(I12
I0
tp317
a(I11
I0
tp318
a(I10
I0
tp319
a(I11
I0
tp320
a(I7
I0
tp321
a(I9
I0
tp322
a(I8
I0
tp323
asg52
S'0'
sg54
S'Resistance'
p324
sg56
S"A disgraced Imperial knight now in Althea's service."
p325
sg58
(lp326
sg61
(lp327
(dp328
g64
Nsg65
Nsg66
Nsg67
(lp329
sg69
Nsg70
Nsg71
Nsg22
S'Canto'
p330
sa(dp331
g64
Nsg65
Nsg66
Nsg67
(lp332
sg69
Nsg70
Nsg71
Nsg22
S'Savior'
p333
sa(dp334
g64
Nsg65
Nsg66
Nsg67
(lp335
sg69
Nsg70
Nsg71
Nsg22
S'Charisma'
p336
sasg85
(dp337
g87
I0
sg88
I0
sg89
I0
ssg90
I00
sg91
g300
sg92
(lp338
I40
aI49
aI0
aI0
aI0
aI0
aI0
asg94
S'Drake'
p339
sg96
I2
sg97
I14
sg98
S'M'
sg99
I0
sg100
S'Paladin'
p340
sg102
I1
sg103
S'player'
p341
sg105
Nsa(dp342
g7
S'None'
p343
sg9
(lp344
I95
aI40
aI60
aI55
aI95
aI65
aI35
aI55
asg11
I00
sg12
(lp345
(dp346
g15
Nsg16
I00
sg17
I00
sg18
I42
sg19
I00
sg20
S'Renae'
p347
sg22
S'Iron Sword'
p348
sa(dp349
g15
Nsg16
I00
sg17
I00
sg18
Nsg19
I00
sg20
g347
sg22
S"Prim's Charm"
p350
sa(dp351
g15
Nsg16
I00
sg17
I00
sg18
I1
sg19
I00
sg20
g347
sg22
S'Vulnerary'
p352
sa(dp353
g15
Nsg16
I00
sg17
I00
sg18
I1
sg19
I00
sg20
g347
sg22
S'Angelic Robe'
p354
sasg30
(lp355
I10
aI70
aI30
aI90
aI10
aI70
aI30
aI90
asg32
g33
(g34
g35
NtRp356
(dp357
g38
I0
sg39
I24
sbsg40
(lp358
(I24
I0
tp359
a(I8
I0
tp360
a(I9
I0
tp361
a(I12
I0
tp362
a(I19
I0
tp363
a(I8
I0
tp364
a(I7
I0
tp365
a(I9
I0
tp366
a(I5
I0
tp367
a(I7
I0
tp368
asg52
S'0'
sg54
S'Kerala'
p369
sg56
S'An energetic thief with a kleptomanic streak.'
p370
sg58
(lp371
sg61
(lp372
(dp373
g64
Nsg65
Nsg66
Nsg67
(lp374
sg69
Nsg70
Nsg71
Nsg22
S'Locktouch'
p375
sa(dp376
g64
Nsg65
Nsg66
Nsg67
(lp377
sg69
Nsg70
Nsg71
Nsg22
S'Steal'
p378
sa(dp379
g64
Nsg65
Nsg66
Nsg67
(lp380
sg69
Nsg70
Nsg71
Nsg22
S'Underdog'
p381
sa(dp382
g64
Nsg65
Nsg66
Nsg67
(lp383
sg69
Nsg70
Nsg71
Nsg22
S'Ghost'
p384
sasg85
(dp385
g87
I0
sg88
I0
sg89
I0
ssg90
I00
sg91
g347
sg92
(lp386
I57
aI0
aI0
aI16
aI0
aI0
aI0
asg94
S'Renae'
p387
sg96
I0
sg97
I13
sg98
S'F'
sg99
I0
sg100
S'Assassin'
p388
sg102
I15
sg103
S'player'
p389
sg105
Nsa(dp390
g7
S'None'
p391
sg9
(lp392
I120
aI55
aI25
aI40
aI40
aI45
aI75
aI40
asg11
I00
sg12
(lp393
(dp394
g15
Nsg16
I00
sg17
I00
sg18
I22
sg19
I00
sg20
S'Theo'
p395
sg22
S'Great Lance'
p396
sa(dp397
g15
Nsg16
I00
sg17
I00
sg18
I8
sg19
I00
sg20
g395
sg22
S'Axereaver'
p398
sa(dp399
g15
Nsg16
I00
sg17
I00
sg18
I25
sg19
I00
sg20
g395
sg22
S'Steel Sword'
p400
sa(dp401
g15
Nsg16
I00
sg17
I00
sg18
I16
sg19
I00
sg20
g395
sg22
S'Javelin'
p402
sa(dp403
g15
Nsg16
I00
sg17
I00
sg18
I3
sg19
I00
sg20
g395
sg22
S'Vulnerary'
p404
sasg30
(lp405
I90
aI35
aI25
aI30
aI30
aI65
aI75
aI30
asg32
g33
(g34
g35
NtRp406
(dp407
g38
I0
sg39
I30
sbsg40
(lp408
(I30
I0
tp409
a(I15
I0
tp410
a(I2
I0
tp411
a(I12
I0
tp412
a(I9
I0
tp413
a(I6
I0
tp414
a(I15
I0
tp415
a(I8
I0
tp416
a(I11
I0
tp417
a(I5
I0
tp418
asg52
S'0'
sg54
S'Resistance'
p419
sg56
S'An avid scholar. Interested in esoteric philosophy.'
p420
sg58
(lp421
sg61
(lp422
(dp423
g64
Nsg65
Nsg66
Nsg67
(lp424
sg69
Nsg70
Nsg71
Nsg22
S'Provoke'
p425
sa(dp426
g64
Nsg65
Nsg66
Nsg67
(lp427
sg69
Nsg70
I0
sg71
Nsg22
S'Shove'
p428
sa(dp429
g64
Nsg65
Nsg66
Nsg67
(lp430
sg69
Nsg70
Nsg71
Nsg22
S'tile_Regeneration'
p431
sa(dp432
g64
Nsg65
Nsg66
Nsg67
(lp433
sg69
Nsg70
Nsg71
Nsg22
S'Slow'
p434
sasg85
(dp435
g87
I0
sg88
I0
sg89
I0
ssg90
I00
sg91
g395
sg92
(lp436
I16
aI66
aI0
aI0
aI0
aI0
aI0
asg94
S'Theo'
p437
sg96
I1
sg97
I12
sg98
S'M'
sg99
I0
sg100
S'General'
p438
sg102
I94
sg103
S'player'
p439
sg105
Nsa(dp440
g7
S'None'
p441
sg9
(lp442
I75
aI65
aI65
aI80
aI65
aI35
aI65
aI35
asg11
I00
sg12
(lp443
(dp444
g15
Nsg16
I00
sg17
I00
sg18
I11
sg19
I00
sg20
S'Eliza'
p445
sg22
S'Mithril Lance'
p446
sa(dp447
g15
Nsg16
I00
sg17
I00
sg18
I18
sg19
I00
sg20
g445
sg22
S'Javelin'
p448
sa(dp449
g15
Nsg16
I00
sg17
I00
sg18
I1
sg19
I00
sg20
g445
sg22
S'Short Axe'
p450
sa(dp451
g15
Nsg16
I00
sg17
I00
sg18
I22
sg19
I00
sg20
g445
sg22
S'Great Lance'
p452
sa(dp453
g15
Nsg16
I00
sg17
I00
sg18
I2
sg19
I00
sg20
g445
sg22
S'Vulnerary'
p454
sasg30
(lp455
I50
aI30
aI30
aI10
aI30
aI70
aI30
aI70
asg32
g33
(g34
g35
NtRp456
(dp457
g38
I5
sg39
I26
sbsg40
(lp458
(I26
I5
tp459
a(I13
I0
tp460
a(I9
I0
tp461
a(I16
I0
tp462
a(I15
I2
tp463
a(I7
I0
tp464
a(I13
I0
tp465
a(I7
I0
tp466
a(I10
I0
tp467
a(I6
I0
tp468
asg52
S'0'
sg54
S'Resistance'
p469
sg56
S'A moody, sarcastic soldier.'
p470
sg58
(lp471
sg61
(lp472
(dp473
g64
Nsg65
Nsg66
Nsg67
(lp474
sg69
Nsg70
Nsg71
Nsg22
S'Synergy'
p475
sa(dp476
g64
Nsg65
Nsg66
Nsg67
(lp477
sg69
Nsg70
Nsg71
Nsg22
S'fMaximum HP +5'
p478
sa(dp479
g64
Nsg65
Nsg66
Nsg67
(lp480
sg69
Nsg70
Nsg71
Nsg22
S'fSpeed +2'
p481
sasg85
(dp482
g87
I0
sg88
I0
sg89
I0
ssg90
I00
sg91
g445
sg92
(lp483
I0
aI56
aI26
aI0
aI0
aI0
aI0
asg94
S'Eliza'
p484
sg96
I1
sg97
I14
sg98
S'F'
sg99
I0
sg100
S'Halberdier'
p485
sg102
I73
sg103
S'player'
p486
sg105
Nsa(dp487
g7
S'None'
p488
sg9
(lp489
I65
aI15
aI35
aI45
aI55
aI55
aI40
aI65
asg11
I00
sg12
(lp490
(dp491
g15
Nsg16
I00
sg17
I00
sg18
I8
sg19
I00
sg20
S'Sam'
p492
sg22
S'Physic'
p493
sa(dp494
g15
Nsg16
I00
sg17
I00
sg18
I6
sg19
I00
sg20
g492
sg22
S'Mend'
p495
sa(dp496
g15
Nsg16
I00
sg17
I00
sg18
I15
sg19
I00
sg20
g492
sg22
S'Heal'
p497
sa(dp498
g15
Nsg16
I00
sg17
I00
sg18
I24
sg19
I00
sg20
g492
sg22
S'Shine'
p499
sasg30
(lp500
I40
aI40
aI60
aI20
aI80
aI80
aI90
aI40
asg32
g33
(g34
g35
NtRp501
(dp502
g38
I0
sg39
I25
sbsg40
(lp503
(I25
I0
tp504
a(I4
I0
tp505
a(I11
I0
tp506
a(I12
I0
tp507
a(I12
I0
tp508
a(I10
I0
tp509
a(I7
I0
tp510
a(I13
I0
tp511
a(I7
I0
tp512
a(I6
I0
tp513
asg52
S'Sam'
p514
sg54
S'Resistance'
p515
sg56
S"The resistance's leader. Ambitious and inquisitive."
p516
sg58
(lp517
sg61
(lp518
(dp519
g64
Nsg65
Nsg66
Nsg67
(lp520
sg69
Nsg70
Nsg71
Nsg22
S'Inspiration'
p521
sa(dp522
g64
Nsg65
Nsg66
Nsg67
(lp523
sg69
Nsg70
Nsg71
Nsg22
S'Skill_Aura'
p524
sa(dp525
g64
Nsg65
Nsg66
Nsg67
(lp526
sg69
Nsg70
I0
sg71
Nsg22
S'Rally'
p527
sasg85
(dp528
g87
I0
sg88
I0
sg89
I0
ssg90
I00
sg91
g492
sg92
(lp529
I0
aI0
aI0
aI0
aI92
aI0
aI0
asg94
S'Sam'
p530
sg96
I5
sg97
I14
sg98
S'M'
sg99
I0
sg100
S'Strategist'
p531
sg102
I10
sg103
S'player'
p532
sg105
Nsa(dp533
g7
S'None'
p534
sg9
(lp535
I55
aI5
aI65
aI55
aI45
aI35
aI40
aI55
asg11
I00
sg12
(lp536
(dp537
g15
Nsg16
I00
sg17
I00
sg18
I20
sg19
I00
sg20
S'Kayla'
p538
sg22
S'Flux'
p539
sa(dp540
g15
Nsg16
I00
sg17
I00
sg18
I24
sg19
I00
sg20
g538
sg22
S'Nyx'
p541
sa(dp542
g15
Nsg16
I00
sg17
I00
sg18
I3
sg19
I00
sg20
g538
sg22
S'Vulnerary'
p543
sasg30
(lp544
I70
aI70
aI10
aI70
aI30
aI90
aI10
aI70
asg32
g33
(g34
g35
NtRp545
(dp546
g38
I0
sg39
I25
sbsg40
(lp547
(I25
I0
tp548
a(I1
I0
tp549
a(I12
I0
tp550
a(I12
I0
tp551
a(I12
I0
tp552
a(I7
I0
tp553
a(I9
I0
tp554
a(I11
I0
tp555
a(I7
I0
tp556
a(I5
I0
tp557
asg52
S'Kayla'
p558
sg54
S'Resistance'
p559
sg56
S'A scheming diplomat from the Confederacy.'
p560
sg58
(lp561
sg61
(lp562
(dp563
g64
Nsg65
Nsg66
Nsg67
(lp564
sg69
Nsg70
Nsg71
Nsg22
S'Hex'
p565
sa(dp566
g64
Nsg65
Nsg66
Nsg67
(lp567
sg69
Nsg70
Nsg71
Nsg22
S'Empowered'
p568
sa(dp569
g64
Nsg65
Nsg66
Nsg67
(lp570
sg69
Nsg70
I0
sg71
Nsg22
S'Gate'
p571
sasg85
(dp572
g87
I0
sg88
I0
sg89
I0
ssg90
I00
sg91
g538
sg92
(lp573
I0
aI0
aI0
aI0
aI0
aI0
aI84
asg94
S'Kayla'
p574
sg96
I5
sg97
I13
sg98
S'F'
sg99
I0
sg100
S'Warlock'
p575
sg102
I34
sg103
S'player'
p576
sg105
Nsa(dp577
g7
S'Pursue'
p578
sg9
(lp579
I120
aI65
aI5
aI55
aI40
aI20
aI35
aI20
asg11
I00
sg12
(lp580
(dp581
g15
Nsg16
I00
sg17
I00
sg18
I19
sg19
I00
sg20
S'Coyote'
p582
sg22
S'Iron Axe'
p583
sa(dp584
g15
Nsg16
I00
sg17
I00
sg18
I19
sg19
I00
sg20
g582
sg22
S'Steel Axe'
p585
sa(dp586
g15
Nsg16
I00
sg17
I00
sg18
I43
sg19
I00
sg20
g582
sg22
S'Iron Lance'
p587
sa(dp588
g15
Nsg16
I00
sg17
I00
sg18
I2
sg19
I00
sg20
g582
sg22
S'Potion'
p589
sasg30
(lp590
I10
aI45
aI65
aI15
aI70
aI10
aI55
aI10
asg32
g33
(g34
g35
NtRp591
(dp592
g38
I0
sg39
I33
sbsg40
(lp593
(I33
I0
tp594
a(I11
I0
tp595
a(I0
I0
tp596
a(I15
I0
tp597
a(I12
I0
tp598
a(I5
I0
tp599
a(I9
I0
tp600
a(I5
I0
tp601
a(I9
I0
tp602
a(I6
I0
tp603
asg52
S'0'
sg54
S'Resistance'
p604
sg56
S'A troubled wandererer with a mysterious past.'
p605
sg58
(lp606
sg61
(lp607
(dp608
g64
Nsg65
Nsg66
Nsg67
(lp609
sg69
Nsg70
Nsg71
Nsg22
S'Initiative'
p610
sa(dp611
g64
Nsg65
Nsg66
Nsg67
(lp612
sg69
Nsg70
Nsg71
Nsg22
S'Resist Status'
p613
sa(dp614
g64
Nsg65
Nsg66
Nsg67
(lp615
sg69
Nsg70
Nsg71
Nsg22
S'Poise'
p616
sasg85
(dp617
g87
I0
sg88
I0
sg89
I0
ssg90
I00
sg91
g582
sg92
(lp618
I75
aI0
aI20
aI0
aI0
aI0
aI0
asg94
S'Coyote'
p619
sg96
I4
sg97
I13
sg98
S'M'
sg99
I0
sg100
S'Hero'
p620
sg102
I98
sg103
S'player'
p621
sg105
NsasS'convoy'
p622
(lp623
(dp624
g15
Nsg16
I00
sg17
I00
sg18
I3
sg19
I00
sg20
I0
sg22
S'Spiritbane'
p625
sa(dp626
g15
Nsg16
I00
sg17
I00
sg18
I1
sg19
I00
sg20
I0
sg22
S'Secret Book'
p627
sa(dp628
g15
Nsg16
I00
sg17
I00
sg18
I1
sg19
I00
sg20
I0
sg22
S'Angelic Robe'
p629
sa(dp630
g15
Nsg16
I00
sg17
I00
sg18
I1
sg19
I00
sg20
I0
sg22
S'Mana Ring'
p631
sa(dp632
g15
Nsg16
I00
sg17
I00
sg18
I1
sg19
I00
sg20
I0
sg22
S'Talisman'
p633
sa(dp634
g15
Nsg16
I00
sg17
I00
sg18
I10
sg19
I00
sg20
I0
sg22
S'Windwall'
p635
sa(dp636
g15
Nsg16
I00
sg17
I00
sg18
I15
sg19
I00
sg20
I0
sg22
S'Magebane Sword'
p637
sa(dp638
g15
Nsg16
I00
sg17
I00
sg18
I1
sg19
I00
sg20
I0
sg22
S'Energy Ring'
p639
sa(dp640
g15
Nsg16
I00
sg17
I00
sg18
I1
sg19
I00
sg20
I0
sg22
S'Speedwings'
p641
sa(dp642
g15
Nsg16
I00
sg17
I00
sg18
I10
sg19
I00
sg20
I0
sg22
S'Fly'
p643
sa(dp644
g15
Nsg16
I00
sg17
I00
sg18
I2
sg19
I00
sg20
I0
sg22
S'Spiritbane'
p645
sa(dp646
g15
Nsg16
I00
sg17
I00
sg18
I3
sg19
I00
sg20
I0
sg22
S'Barkskin'
p647
sa(dp648
g15
Nsg16
I00
sg17
I00
sg18
I1
sg19
I00
sg20
I0
sg22
S'Energy Ring'
p649
sa(dp650
g15
Nsg16
I00
sg17
I00
sg18
I4
sg19
I00
sg20
I0
sg22
S'Blizzard'
p651
sa(dp652
g15
Nsg16
I00
sg17
I00
sg18
I15
sg19
I00
sg20
I0
sg22
S'Slim Lance'
p653
sa(dp654
g15
Nsg16
I00
sg17
I00
sg18
I1
sg19
I00
sg20
I0
sg22
S'Secret Book'
p655
sa(dp656
g15
Nsg16
I00
sg17
I00
sg18
I22
sg19
I00
sg20
I0
sg22
S'Great Lance'
p657
sa(dp658
g15
Nsg16
I00
sg17
I00
sg18
I14
sg19
I00
sg20
I0
sg22
S'Iron Knife'
p659
sa(dp660
g15
Nsg16
I00
sg17
I00
sg18
I9
sg19
I00
sg20
I0
sg22
S'Rusted Sword'
p661
sa(dp662
g15
Nsg16
I00
sg17
I00
sg18
I1
sg19
I00
sg20
I0
sg22
S'Javelin'
p663
sa(dp664
g15
Nsg16
I00
sg17
I00
sg18
I19
sg19
I00
sg20
I0
sg22
S'Hatchet'
p665
sa(dp666
g15
Nsg16
I00
sg17
I00
sg18
I15
sg19
I00
sg20
I0
sg22
S'Nyx'
p667
sa(dp668
g15
Nsg16
I00
sg17
I00
sg18
I45
sg19
I00
sg20
I0
sg22
S'Iron Axe'
p669
sa(dp670
g15
Nsg16
I00
sg17
I00
sg18
I35
sg19
I00
sg20
I0
sg22
S'Hatchet'
p671
sa(dp672
g15
Nsg16
I00
sg17
I00
sg18
I14
sg19
I00
sg20
I0
sg22
S'Hand Axe'
p673
sa(dp674
g15
Nsg16
I00
sg17
I00
sg18
I22
sg19
I00
sg20
I0
sg22
S'Great Sword'
p675
sa(dp676
g15
Nsg16
I00
sg17
I00
sg18
I14
sg19
I00
sg20
I0
sg22
S'Fire'
p677
sa(dp678
g15
Nsg16
I00
sg17
I00
sg18
I10
sg19
I00
sg20
I0
sg22
S'Tomahawk'
p679
sa(dp680
g15
Nsg16
I00
sg17
I00
sg18
I28
sg19
I00
sg20
I0
sg22
S'Brave Sword'
p681
sa(dp682
g15
Nsg16
I00
sg17
I00
sg18
I10
sg19
I00
sg20
I0
sg22
S'Superior Axe'
p683
sa(dp684
g15
Nsg16
I00
sg17
I00
sg18
I9
sg19
I00
sg20
I0
sg22
S'Scathe'
p685
sa(dp686
g15
Nsg16
I00
sg17
I00
sg18
I25
sg19
I00
sg20
I0
sg22
S'Levin Sword'
p687
sa(dp688
g15
Nsg16
I00
sg17
I00
sg18
I10
sg19
I00
sg20
I0
sg22
S'Yew Longbow'
p689
sa(dp690
g15
Nsg16
I00
sg17
I00
sg18
I10
sg19
I00
sg20
I0
sg22
S'Mithril Knife'
p691
sa(dp692
g15
Nsg16
I00
sg17
I00
sg18
I1
sg19
I00
sg20
I0
sg22
S'Talisman'
p693
sa(dp694
g15
Nsg16
I00
sg17
I00
sg18
I1
sg19
I00
sg20
I0
sg22
S'Mithril Mail'
p695
sa(dp696
g15
Nsg16
I00
sg17
I00
sg18
I10
sg19
I00
sg20
I0
sg22
S'Long Spear'
p697
sa(dp698
g15
Nsg16
I00
sg17
I00
sg18
I1
sg19
I00
sg20
I0
sg22
S'Mana Ring'
p699
sasS'groups'
p700
(dp701
sS'allreinforcements'
p702
(dp703
sS'base_conversations'
p704
(dp705
sS'playtime'
p706
I46517481
sS'message'
p707
(lp708
sS'unlocked_lore'
p709
(lp710
S'Sam'
p711
aS'Joel'
p712
aS'Prim'
p713
aS'Ophie'
p714
aS'Althea'
p715
aS'Drake'
p716
aS'Nia'
p717
aS'Renae'
p718
aS'Theo'
p719
aS'Kerala'
p720
aS'Empire'
p721
aS'Eliza'
p722
aS'Podoma'
p723
aS'Rajas'
p724
aS'Ulver'
p725
aS'Vagnius'
p726
aS'CFS'
p727
aS'Kayla'
p728
aS'CFS'
p729
aS'Kayla'
p730
aS'Tyrana'
p731
aS'Coyote'
p732
asS'statistics'
p733
(lp734
g33
(cCode.CustomObjects
LevelStatistic
p735
g35
NtRp736
(dp737
S'turncount'
p738
I4
sg40
(dp739
g95
(dp740
S'damage'
p741
I13
sS'kills'
p742
I2
sS'healing'
p743
I0
ssg147
(dp744
g741
I8
sg742
I0
sg743
I7
sssg94
S'Prologue'
p745
sbag33
(g735
g35
NtRp746
(dp747
g738
I4
sg40
(dp748
g95
(dp749
g741
I39
sg742
I4
sg743
I0
ssg194
(dp750
g741
I48
sg742
I1
sg743
I0
ssg244
(dp751
g741
I30
sg742
I2
sg743
I0
ssg147
(dp752
g741
I8
sg742
I2
sg743
I12
sssg94
S'Chapter I'
p753
sbag33
(g735
g35
NtRp754
(dp755
g738
I9
sg40
(dp756
g292
(dp757
S'damage'
p758
I67
sS'kills'
p759
I3
sS'healing'
p760
I0
ssg147
(dp761
S'damage'
p762
I4
sS'kills'
p763
I0
sS'healing'
p764
I43
ssg194
(dp765
g762
I52
sg763
I4
sg764
I0
ssg244
(dp766
g762
I14
sg763
I2
sg764
I0
ssg339
(dp767
g758
I44
sg759
I3
sg760
I0
ssg95
(dp768
g762
I21
sg763
I3
sg764
I0
sssg94
S'Chapter II'
p769
sbag33
(g735
g35
NtRp770
(dp771
g738
I15
sg40
(dp772
g437
(dp773
S'damage'
p774
I81
sS'kills'
p775
I1
sS'healing'
p776
I0
ssg292
(dp777
S'damage'
p778
I45
sS'kills'
p779
I5
sS'healing'
p780
I0
ssg147
(dp781
g778
I16
sg779
I0
sg780
I61
ssg194
(dp782
g778
I64
sg779
I3
sg780
I0
ssg244
(dp783
g778
I58
sg779
I3
sg780
I0
ssg387
(dp784
g774
I8
sg775
I3
sg776
I0
ssg339
(dp785
g778
I35
sg779
I2
sg780
I0
ssg95
(dp786
g778
I70
sg779
I6
sg780
I0
sssg94
S'Chapter III'
p787
sbag33
(g735
g35
NtRp788
(dp789
g738
I9
sg40
(dp790
g437
(dp791
S'damage'
p792
I61
sS'kills'
p793
I4
sS'healing'
p794
I0
ssg292
(dp795
g792
I125
sg793
I8
sg794
I0
ssg147
(dp796
g792
I5
sg793
I0
sg794
I44
ssg194
(dp797
g792
I47
sg793
I2
sg794
I0
ssg244
(dp798
g792
I51
sg793
I2
sg794
I0
ssg387
(dp799
g792
I54
sg793
I5
sg794
I0
ssg339
(dp800
g792
I58
sg793
I2
sg794
I0
ssg95
(dp801
g792
I47
sg793
I5
sg794
I0
ssg484
(dp802
S'damage'
p803
I52
sS'kills'
p804
I7
sS'healing'
p805
I0
sssg94
S'Chapter IV'
p806
sbag33
(g735
g35
NtRp807
(dp808
g738
I14
sg40
(dp809
g437
(dp810
S'damage'
p811
I49
sS'kills'
p812
I2
sS'healing'
p813
I0
ssg292
(dp814
g811
I43
sg812
I4
sg813
I0
ssg147
(dp815
g811
I11
sg812
I1
sg813
I63
ssg530
(dp816
S'damage'
p817
I18
sS'kills'
p818
I0
sS'healing'
p819
I23
ssg194
(dp820
g811
I27
sg812
I1
sg813
I0
ssg244
(dp821
g811
I30
sg812
I3
sg813
I0
ssg387
(dp822
g811
I52
sg812
I3
sg813
I0
ssg339
(dp823
g811
I68
sg812
I2
sg813
I0
ssg574
(dp824
g817
I82
sg818
I6
sg819
I0
ssg95
(dp825
g811
I117
sg812
I8
sg813
I0
ssg484
(dp826
g811
I17
sg812
I2
sg813
I0
sssg94
S'Chapter V'
p827
sbag33
(g735
g35
NtRp828
(dp829
g738
I20
sg40
(dp830
g437
(dp831
S'damage'
p832
I117
sS'kills'
p833
I4
sS'healing'
p834
I0
ssg292
(dp835
g832
I131
sg833
I7
sg834
I0
ssg147
(dp836
g832
I22
sg833
I1
sg834
I126
ssg530
(dp837
g832
I59
sg833
I6
sg834
I72
ssg194
(dp838
g832
I130
sg833
I4
sg834
I0
ssg244
(dp839
g832
I194
sg833
I9
sg834
I0
ssg387
(dp840
g832
I61
sg833
I3
sg834
I0
ssg339
(dp841
g832
I96
sg833
I4
sg834
I0
ssg574
(dp842
g832
I105
sg833
I4
sg834
I0
ssg619
(dp843
S'damage'
p844
I82
sS'kills'
p845
I6
sS'healing'
p846
I0
ssg95
(dp847
g832
I48
sg833
I4
sg834
I0
ssg484
(dp848
g832
I74
sg833
I9
sg834
I0
sssg94
S'Chapter VI'
p849
sbag33
(g735
g35
NtRp850
(dp851
g738
I16
sg40
(dp852
g437
(dp853
S'damage'
p854
I59
sS'kills'
p855
I2
sS'healing'
p856
I0
ssS'Phantom'
p857
(dp858
S'damage'
p859
I0
sS'kills'
p860
I0
sS'healing'
p861
I0
ssg292
(dp862
g854
I150
sg855
I5
sg856
I0
ssg147
(dp863
g854
I19
sg855
I2
sg856
I113
ssg530
(dp864
g854
I28
sg855
I2
sg856
I66
ssg194
(dp865
g854
I185
sg855
I6
sg856
I0
ssg244
(dp866
g854
I194
sg855
I12
sg856
I0
ssg387
(dp867
g854
I17
sg855
I4
sg856
I0
ssg339
(dp868
g854
I49
sg855
I1
sg856
I0
ssg574
(dp869
g854
I127
sg855
I2
sg856
I0
ssg619
(dp870
g854
I70
sg855
I5
sg856
I0
ssg95
(dp871
g854
I296
sg855
I16
sg856
I0
ssg484
(dp872
g854
I95
sg855
I4
sg856
I0
sssg94
S'Chapter VII'
p873
sbag33
(g735
g35
NtRp874
(dp875
g738
I16
sg40
(dp876
g437
(dp877
g859
I128
sg860
I7
sg861
I0
ssg292
(dp878
g859
I228
sg860
I3
sg861
I0
ssg147
(dp879
g859
I46
sg860
I4
sg861
I64
ssg530
(dp880
g859
I9
sg860
I0
sg861
I191
ssg194
(dp881
g859
I144
sg860
I7
sg861
I0
ssg244
(dp882
g859
I237
sg860
I7
sg861
I0
ssg387
(dp883
g859
I90
sg860
I6
sg861
I0
ssg339
(dp884
g859
I124
sg860
I6
sg861
I0
ssg574
(dp885
g859
I181
sg860
I6
sg861
I0
ssg619
(dp886
g859
I123
sg860
I7
sg861
I0
ssg95
(dp887
g859
I259
sg860
I10
sg861
I0
ssg484
(dp888
g859
I276
sg860
I12
sg861
I0
sssg94
S'Chapter VIII'
p889
sbasS'market_items'
p890
c__builtin__
set
p891
((lp892
S'Nyx'
p893
aS'Great Bow'
p894
aS'Great Axe'
p895
aS'Oak Longbow'
p896
aS'Wyrmsfire'
p897
aS'Glimmer'
p898
aS'Mend'
p899
aS'Spiritbane'
p900
aS'Potion'
p901
aS'Fire'
p902
aS'Heal'
p903
aS'Great Lance'
p904
aS'Water'
p905
aS'Hand Axe'
p906
aS'Ruin'
p907
aS'Iron Sword'
p908
aS'Shine'
p909
aS'Short Spear'
p910
aS'Iron Lance'
p911
aS'Hatchet'
p912
aS'Vulnerary'
p913
aS'Willow Bow'
p914
aS'Barkskin'
p915
aS'Flux'
p916
aS'Slim Lance'
p917
aS'Short Axe'
p918
aS'Wind'
p919
aS'Steel Lance'
p920
aS'Longbow'
p921
aS'Iron Knife'
p922
aS'Scathe'
p923
aS'Oak Bow'
p924
aS'Steel Sword'
p925
aS'Javelin'
p926
aS'Steel Axe'
p927
aS'Earth'
p928
aS'Great Sword'
p929
aS'Steel Knife'
p930
aS'Iron Axe'
p931
atRp932
sS'support'
p933
NsS'event_triggers'
p934
(lp935
sS'objective'
p936
NsS'metaDataObj_changes'
p937
(lp938
sS'counters'
p939
(dp940
S'Dead_Wagons'
p941
I12
sS'line_cross'
p942
I13
sS'level'
p943
I9
sS'money'
p944
I5880
sS'switches'
p945
I2
sS'Civ_Escape'
p946
I5
sS'Escaped_Wagons'
p947
I0
ssS'map'
p948
NsS'state_list'
p949
((lp950
S'turn_change'
p951
a(ltp952
sS'prefabs'
p953
(lp954
sS'phase_info'
p955
(I0
I1
tp956
sg738
I0
sS'game_constants'
p957
(lp958
S'Convoy'
p959
as.