(dp1
S'map'
p2
NsS'allunits'
p3
(lp4
(dp5
S'ai'
p6
S'Pursue'
p7
sS'growths'
p8
(lp9
I180
aI100
aI10
aI80
aI60
aI30
aI50
aI30
asS'dead'
p10
I00
sS'items'
p11
(lp12
(dp13
S'c_uses'
p14
NsS'locked'
p15
I00
sS'droppable'
p16
I00
sS'uses'
p17
I20
sS'event_combat'
p18
I00
sS'owner'
p19
S'Coyote'
p20
sS'id'
p21
S'Mithril Sword'
p22
sa(dp23
g14
Nsg15
I00
sg16
I00
sg17
I18
sg18
I00
sg19
g20
sg21
S'Steel Sword'
p24
sa(dp25
g14
Nsg15
I00
sg16
I00
sg17
I32
sg18
I00
sg19
g20
sg21
S'Hatchet'
p26
sa(dp27
g14
Nsg15
I00
sg16
I00
sg17
I4
sg18
I00
sg19
g20
sg21
S'Superior Edge'
p28
sa(dp29
g14
Nsg15
I00
sg16
I00
sg17
I2
sg18
I00
sg19
g20
sg21
S'Potion'
p30
sasS'growth_points'
p31
(lp32
I40
aI0
aI30
aI40
aI80
aI90
aI50
aI90
asS'currenthp'
p33
ccopy_reg
_reconstructor
p34
(cCode.UnitObject
Stat
p35
c__builtin__
object
p36
NtRp37
(dp38
S'bonuses'
p39
I0
sS'base_stat'
p40
I46
sbsS'stats'
p41
(lp42
(I46
I0
tp43
a(I17
I0
tp44
a(I0
I0
tp45
a(I21
I0
tp46
a(I17
I0
tp47
a(I6
I0
tp48
a(I12
I0
tp49
a(I5
I0
tp50
a(I12
I0
tp51
a(I12
I0
tp52
asS'event_id'
p53
S'0'
sS'faction'
p54
S'Resistance'
p55
sS'desc'
p56
S'A troubled wandererer with a mysterious past.'
p57
sS'tags'
p58
(lp59
sS'status_effects'
p60
(lp61
(dp62
S'count'
p63
NsS'time_left'
p64
NsS'upkeep_sc_count'
p65
NsS'children'
p66
(lp67
sS'charge'
p68
NsS'rhythm_sc_count'
p69
Nsg21
S'Initiative'
p70
sa(dp71
g63
Nsg64
Nsg65
Nsg66
(lp72
sg68
Nsg69
Nsg21
S'Resist Status'
p73
sa(dp74
g63
Nsg64
Nsg65
Nsg66
(lp75
sg68
Nsg69
Nsg21
S'Poise'
p76
sasS'records'
p77
(dp78
S'damage'
p79
I0
sS'kills'
p80
I0
sS'healing'
p81
I0
ssS'finished'
p82
I00
sS'u_id'
p83
g20
sS'wexp'
p84
(lp85
I73
aI0
aI3
aI0
aI0
aI0
aI0
asS'name'
p86
S'Coyote'
p87
sS'movement_group'
p88
I1
sS'level'
p89
I13
sS'gender'
p90
S'M'
sS'TRV'
p91
I0
sS'klass'
p92
S'Hero'
p93
sS'exp'
p94
I22
sS'team'
p95
S'player'
p96
sS'position'
p97
Nsa(dp98
g6
S'None'
p99
sg8
(lp100
I100
aI20
aI50
aI70
aI80
aI80
aI60
aI100
asg10
I00
sg11
(lp101
(dp102
g14
Nsg15
I00
sg16
I00
sg17
I8
sg18
I00
sg19
S'Sam'
p103
sg21
S'Fortune'
p104
sa(dp105
g14
Nsg15
I00
sg16
I00
sg17
I17
sg18
I00
sg19
g103
sg21
S'Glimmer'
p106
sa(dp107
g14
Nsg15
I00
sg16
I00
sg17
I6
sg18
I00
sg19
g103
sg21
S'Shine'
p108
sa(dp109
g14
Nsg15
I00
sg16
I00
sg17
I1
sg18
I00
sg19
g103
sg21
S'Mend'
p110
sa(dp111
g14
Nsg15
I00
sg16
I00
sg17
I19
sg18
I00
sg19
g103
sg21
S'Heal'
p112
sasg31
(lp113
I0
aI20
aI0
aI20
aI80
aI80
aI60
aI0
asg33
g34
(g35
g36
NtRp114
(dp115
g39
I0
sg40
I36
sbsg41
(lp116
(I36
I0
tp117
a(I5
I0
tp118
a(I16
I0
tp119
a(I17
I0
tp120
a(I17
I0
tp121
a(I14
I0
tp122
a(I10
I0
tp123
a(I20
I0
tp124
a(I10
I0
tp125
a(I13
I0
tp126
asg53
S'Sam'
p127
sg54
S'Resistance'
p128
sg56
S"The resistance's leader. Ambitious and inquisitive."
p129
sg58
(lp130
sg60
(lp131
(dp132
g63
Nsg64
Nsg65
Nsg66
(lp133
sg68
I0
sg69
Nsg21
S'Refresh'
p134
sa(dp135
g63
Nsg64
Nsg65
Nsg66
(lp136
sg68
Nsg69
Nsg21
S'Skill_Aura'
p137
sa(dp138
g63
Nsg64
Nsg65
Nsg66
(lp139
sg68
I0
sg69
Nsg21
S'Rally'
p140
sasg77
(dp141
g79
I0
sg80
I0
sg81
I0
ssg82
I00
sg83
g103
sg84
(lp142
I0
aI0
aI0
aI0
aI82
aI0
aI0
asg86
S'Sam'
p143
sg88
I3
sg89
I14
sg90
S'M'
sg91
I0
sg92
S'Strategist'
p144
sg94
I16
sg95
S'player'
p145
sg97
Nsa(dp146
g6
S'None'
p147
sg8
(lp148
I80
aI10
aI100
aI80
aI70
aI50
aI60
aI80
asg10
I00
sg11
(lp149
(dp150
g14
Nsg15
I00
sg16
I00
sg17
I30
sg18
I00
sg19
S'Kayla'
p151
sg21
S'Flux'
p152
sa(dp153
g14
Nsg15
I00
sg16
I00
sg17
I21
sg18
I00
sg19
g151
sg21
S'Nyx'
p154
sa(dp155
g14
Nsg15
I00
sg16
I00
sg17
I4
sg18
I00
sg19
g151
sg21
S'Scathe'
p156
sa(dp157
g14
Nsg15
I00
sg16
I00
sg17
I1
sg18
I00
sg19
g151
sg21
S'Potion'
p158
sasg31
(lp159
I20
aI40
aI0
aI20
aI80
aI0
aI40
aI20
asg33
g34
(g35
g36
NtRp160
(dp161
g39
I0
sg40
I35
sbsg41
(lp162
(I35
I0
tp163
a(I2
I0
tp164
a(I18
I0
tp165
a(I17
I0
tp166
a(I16
I0
tp167
a(I11
I0
tp168
a(I11
I0
tp169
a(I16
I0
tp170
a(I9
I0
tp171
a(I11
I0
tp172
asg53
S'Kayla'
p173
sg54
S'Resistance'
p174
sg56
S'A scheming diplomat from the Confederacy.'
p175
sg58
(lp176
sg60
(lp177
(dp178
g63
Nsg64
Nsg65
Nsg66
(lp179
sg68
Nsg69
Nsg21
S'Hex'
p180
sa(dp181
g63
Nsg64
Nsg65
Nsg66
(lp182
sg68
Nsg69
Nsg21
S'Empowered'
p183
sa(dp184
g63
Nsg64
Nsg65
Nsg66
(lp185
sg68
I0
sg69
Nsg21
S'Gate'
p186
sasg77
(dp187
g79
I0
sg80
I0
sg81
I0
ssg82
I00
sg83
g151
sg84
(lp188
I0
aI0
aI0
aI0
aI0
aI0
aI81
asg86
S'Kayla'
p189
sg88
I3
sg89
I13
sg90
S'F'
sg91
I0
sg92
S'Warlock'
p190
sg94
I79
sg95
S'player'
p191
sg97
Nsa(dp192
g6
S'None'
p193
sg8
(lp194
I110
aI100
aI30
aI110
aI120
aI90
aI60
aI50
asg10
I00
sg11
(lp195
(dp196
g14
Nsg15
I00
sg16
I00
sg17
I3
sg18
I00
sg19
S'Eliza'
p197
sg21
S'Iron Lance'
p198
sa(dp199
g14
Nsg15
I00
sg16
I00
sg17
I10
sg18
I00
sg19
g197
sg21
S'Axereaver'
p200
sa(dp201
g14
Nsg15
I00
sg16
I00
sg17
I2
sg18
I00
sg19
g197
sg21
S'Hatchet'
p202
sa(dp203
g14
Nsg15
I00
sg16
I00
sg17
I3
sg18
I00
sg19
g197
sg21
S'Elixir'
p204
sa(dp205
g14
Nsg15
I00
sg16
I00
sg17
I1
sg18
I00
sg19
g197
sg21
S'Mana Ring'
p206
sasg31
(lp207
I30
aI0
aI90
aI30
aI60
aI70
aI80
aI50
asg33
g34
(g35
g36
NtRp208
(dp209
g39
I5
sg40
I35
sbsg41
(lp210
(I35
I5
tp211
a(I20
I2
tp212
a(I4
I0
tp213
a(I22
I0
tp214
a(I26
I0
tp215
a(I20
I0
tp216
a(I14
I2
tp217
a(I11
I0
tp218
a(I12
I0
tp219
a(I11
I0
tp220
asg53
S'0'
sg54
S'Resistance'
p221
sg56
S'A moody but hopeful soldier.'
p222
sg58
(lp223
sg60
(lp224
(dp225
g63
Nsg64
Nsg65
Nsg66
(lp226
sg68
Nsg69
Nsg21
S'Synergy'
p227
sa(dp228
g63
Nsg64
Nsg65
Nsg66
(lp229
sg68
Nsg69
Nsg21
S'fMaximum HP +5'
p230
sa(dp231
g63
Nsg64
Nsg65
Nsg66
(lp232
sg68
Nsg69
Nsg21
S'fDefense +2'
p233
sa(dp234
g63
Nsg64
Nsg65
Nsg66
(lp235
sg68
Nsg69
Nsg21
S'fStrength +2'
p236
sasg77
(dp237
g79
I0
sg80
I0
sg81
I0
ssg82
I00
sg83
g197
sg84
(lp238
I0
aI73
aI6
aI0
aI0
aI0
aI0
asg86
S'Eliza'
p239
sg88
I2
sg89
I15
sg90
S'F'
sg91
I0
sg92
S'Halberdier'
p240
sg94
I34
sg95
S'player'
p241
sg97
Nsa(dp242
g6
S'None'
p243
sg8
(lp244
I160
aI80
aI50
aI110
aI120
aI120
aI50
aI60
asg10
I00
sg11
(lp245
(dp246
g14
Nsg15
I00
sg16
I00
sg17
I5
sg18
I00
sg19
S'Ophie'
p247
sg21
S'Iron Sword'
p248
sa(dp249
g14
Nsg15
I00
sg16
I00
sg17
I16
sg18
I00
sg19
g247
sg21
S'Mithril Sword'
p250
sa(dp251
g14
Nsg15
I00
sg16
I00
sg17
I20
sg18
I00
sg19
g247
sg21
S'Great Sword'
p252
sa(dp253
g14
Nsg15
I00
sg16
I00
sg17
I15
sg18
I00
sg19
g247
sg21
S'Levin Sword'
p254
sa(dp255
g14
Nsg15
I00
sg16
I00
sg17
I8
sg18
I00
sg19
g247
sg21
S'Lancereaver'
p256
sasg31
(lp257
I80
aI40
aI50
aI30
aI60
aI60
aI50
aI80
asg33
g34
(g35
g36
NtRp258
(dp259
g39
I0
sg40
I43
sbsg41
(lp260
(I43
I0
tp261
a(I17
I2
tp262
a(I9
I0
tp263
a(I22
I0
tp264
a(I24
I0
tp265
a(I18
I0
tp266
a(I11
I0
tp267
a(I9
I0
tp268
a(I9
I0
tp269
a(I13
I0
tp270
asg53
S'Ophie'
p271
sg54
S'Resistance'
p272
sg56
S'A strong-hearted renegade who often acts before he thinks.'
p273
sg58
(lp274
S'Lord'
p275
asg60
(lp276
(dp277
g63
Nsg64
Nsg65
Nsg66
(lp278
sg68
Nsg69
Nsg21
S'Riposte'
p279
sa(dp280
g63
Nsg64
Nsg65
Nsg66
(lp281
sg68
Nsg69
Nsg21
S'Vantage'
p282
sa(dp283
g63
Nsg64
Nsg65
Nsg66
(lp284
sg68
Nsg69
Nsg21
S'fStrength +2'
p285
sa(dp286
g63
Nsg64
Nsg65
Nsg66
(lp287
sg68
I0
sg69
Nsg21
S'Critical'
p288
sa(dp289
g63
Nsg64
Nsg65
Nsg66
(lp290
sg68
Nsg69
Nsg21
S'Shimmer'
p291
sasg77
(dp292
g79
I0
sg80
I0
sg81
I0
ssg82
I00
sg83
g247
sg84
(lp293
I83
aI0
aI0
aI0
aI0
aI0
aI0
asg86
S'Ophie'
p294
sg88
I0
sg89
I15
sg90
S'M'
sg91
I0
sg92
S'Swordmaster'
p295
sg94
I39
sg95
S'player'
p296
sg97
Nsa(dp297
g6
S'None'
p298
sg8
(lp299
I100
aI20
aI100
aI60
aI80
aI120
aI35
aI120
asg10
I00
sg11
(lp300
(dp301
g14
Nsg15
I00
sg16
I00
sg17
I4
sg18
I00
sg19
S'Prim'
p302
sg21
S'Mend'
p303
sa(dp304
g14
Nsg15
I00
sg16
I00
sg17
I15
sg18
I00
sg19
g302
sg21
S'Shine'
p305
sa(dp306
g14
Nsg15
I00
sg16
I00
sg17
I18
sg18
I00
sg19
g302
sg21
S'Flux'
p307
sa(dp308
g14
Nsg15
I00
sg16
I00
sg17
I2
sg18
I00
sg19
g302
sg21
S'Physic'
p309
sa(dp310
g14
Nsg15
I00
sg16
I00
sg17
I10
sg18
I00
sg19
g302
sg21
S'Restore'
p311
sasg31
(lp312
I0
aI40
aI0
aI20
aI60
aI40
aI20
aI40
asg33
g34
(g35
g36
NtRp313
(dp314
g39
I0
sg40
I32
sbsg41
(lp315
(I32
I0
tp316
a(I2
I0
tp317
a(I17
I0
tp318
a(I14
I0
tp319
a(I18
I0
tp320
a(I20
I0
tp321
a(I8
I0
tp322
a(I22
I0
tp323
a(I6
I0
tp324
a(I13
I0
tp325
asg53
S'Prim'
p326
sg54
S'Resistance'
p327
sg56
S'A shy but kind-hearted young woman. Has an affinity with the spiritual.'
p328
sg58
(lp329
sg60
(lp330
(dp331
g63
Nsg64
Nsg65
Nsg66
(lp332
sg68
Nsg69
Nsg21
S'Healtouch'
p333
sa(dp334
g63
I1
sg64
Nsg65
Nsg66
(lp335
sg68
Nsg69
Nsg21
S'Miracle'
p336
sa(dp337
g63
Nsg64
Nsg65
Nsg66
(lp338
sg68
Nsg69
Nsg21
S'Futuresight'
p339
sasg77
(dp340
g79
I0
sg80
I0
sg81
I0
ssg82
I00
sg83
g302
sg84
(lp341
I0
aI0
aI0
aI0
aI84
aI0
aI4
asg86
S'Prim'
p342
sg88
I3
sg89
I14
sg90
S'F'
sg91
I0
sg92
S'Oracle'
p343
sg94
I5
sg95
S'player'
p344
sg97
Nsa(dp345
g6
S'None'
p346
sg8
(lp347
I160
aI120
aI10
aI90
aI80
aI70
aI50
aI30
asg10
I00
sg11
(lp348
(dp349
g14
Nsg15
I00
sg16
I00
sg17
I12
sg18
I00
sg19
S'Joel'
p350
sg21
S'Mithril Axe'
p351
sa(dp352
g14
Nsg15
I00
sg16
I00
sg17
I11
sg18
I00
sg19
g350
sg21
S'Hand Axe'
p353
sa(dp354
g14
Nsg15
I00
sg16
I00
sg17
I25
sg18
I00
sg19
g350
sg21
S'Great Axe'
p355
sa(dp356
g14
Nsg15
I00
sg16
I00
sg17
I10
sg18
I00
sg19
g350
sg21
S'Swordreaver'
p357
sa(dp358
g14
Nsg15
I00
sg16
I00
sg17
I3
sg18
I00
sg19
g350
sg21
S'Elixir'
p359
sasg31
(lp360
I60
aI20
aI10
aI90
aI80
aI70
aI50
aI30
asg33
g34
(g35
g36
NtRp361
(dp362
g39
I0
sg40
I51
sbsg41
(lp363
(I51
I0
tp364
a(I22
I0
tp365
a(I1
I0
tp366
a(I16
I0
tp367
a(I14
I2
tp368
a(I11
I0
tp369
a(I13
I0
tp370
a(I6
I0
tp371
a(I16
I0
tp372
a(I12
I0
tp373
asg53
S'0'
sg54
S'Resistance'
p374
sg56
S'A jovial former sailor. Always ready for a new adventure.'
p375
sg58
(lp376
sg60
(lp377
(dp378
g63
Nsg64
Nsg65
Nsg66
(lp379
sg68
I0
sg69
Nsg21
S'Cleave'
p380
sa(dp381
g63
Nsg64
Nsg65
Nsg66
(lp382
sg68
I0
sg69
Nsg21
S'Shove'
p383
sa(dp384
g63
Nsg64
Nsg65
Nsg66
(lp385
sg68
Nsg69
Nsg21
S'Heavy Hitter'
p386
sa(dp387
g63
Nsg64
Nsg65
Nsg66
(lp388
sg68
Nsg69
Nsg21
S'fSpeed +2'
p389
sasg77
(dp390
g79
I0
sg80
I0
sg81
I0
ssg82
I00
sg83
g350
sg84
(lp391
I0
aI0
aI88
aI3
aI0
aI0
aI0
asg86
S'Joel'
p392
sg88
I1
sg89
I15
sg90
S'M'
sg91
I0
sg92
S'Warrior'
p393
sg94
I33
sg95
S'player'
p394
sg97
Nsa(dp395
g6
S'None'
p396
sg8
(lp397
I120
aI80
aI50
aI100
aI120
aI60
aI30
aI60
asg10
I00
sg11
(lp398
(dp399
g14
Nsg15
I00
sg16
I00
sg17
I10
sg18
I00
sg19
S'Nia'
p400
sg21
S'Longbow'
p401
sa(dp402
g14
Nsg15
I00
sg16
I00
sg17
I14
sg18
I00
sg19
g400
sg21
S'Yew Bow'
p403
sa(dp404
g14
Nsg15
I00
sg16
I00
sg17
I20
sg18
I00
sg19
g400
sg21
S'Great Bow'
p405
sa(dp406
g14
Nsg15
I00
sg16
I00
sg17
I12
sg18
I00
sg19
g400
sg21
S'Oak Bow'
p407
sa(dp408
g14
Nsg15
I00
sg16
I00
sg17
I1
sg18
I00
sg19
g400
sg21
S'Vulnerary'
p409
sasg31
(lp410
I20
aI80
aI50
aI0
aI20
aI60
aI30
aI60
asg33
g34
(g35
g36
NtRp411
(dp412
g39
I5
sg40
I36
sbsg41
(lp413
(I36
I5
tp414
a(I17
I0
tp415
a(I9
I0
tp416
a(I20
I0
tp417
a(I23
I0
tp418
a(I11
I0
tp419
a(I8
I0
tp420
a(I11
I0
tp421
a(I9
I0
tp422
a(I12
I0
tp423
asg53
S'0'
sg54
S'Resistance'
p424
sg56
S'A quiet archer most at home in the wilderness.'
p425
sg58
(lp426
sg60
(lp427
(dp428
g63
Nsg64
Nsg65
Nsg66
(lp429
sg68
Nsg69
Nsg21
S'Prescience'
p430
sa(dp431
g63
Nsg64
Nsg65
Nsg66
(lp432
sg68
I0
sg69
Nsg21
S'Critical'
p433
sa(dp434
g63
Nsg64
Nsg65
Nsg66
(lp435
sg68
Nsg69
Nsg21
S'Evasion'
p436
sa(dp437
g63
Nsg64
Nsg65
Nsg66
(lp438
sg68
Nsg69
Nsg21
S'fMaximum HP +5'
p439
sasg77
(dp440
g79
I0
sg80
I0
sg81
I0
ssg82
I00
sg83
g400
sg84
(lp441
I0
aI0
aI0
aI91
aI0
aI0
aI0
asg86
S'Nia'
p442
sg88
I0
sg89
I15
sg90
S'F'
sg91
I0
sg92
S'Ranger'
p443
sg94
I20
sg95
S'player'
p444
sg97
Nsa(dp445
g6
S'None'
p446
sg8
(lp447
I90
aI20
aI130
aI60
aI90
aI90
aI30
aI80
asg10
I00
sg11
(lp448
(dp449
g14
Nsg15
I00
sg16
I00
sg17
I4
sg18
I00
sg19
S'Althea'
p450
sg21
S'Water'
p451
sa(dp452
g14
Nsg15
I00
sg16
I00
sg17
I5
sg18
I00
sg19
g450
sg21
S'Wind'
p453
sa(dp454
g14
Nsg15
I00
sg16
I00
sg17
I5
sg18
I00
sg19
g450
sg21
S'Fire'
p455
sa(dp456
g14
Nsg15
I00
sg16
I00
sg17
I15
sg18
I00
sg19
g450
sg21
S'Earth'
p457
sasg31
(lp458
I90
aI20
aI30
aI60
aI90
aI90
aI30
aI80
asg33
g34
(g35
g36
NtRp459
(dp460
g39
I5
sg40
I29
sbsg41
(lp461
(I29
I5
tp462
a(I3
I0
tp463
a(I22
I0
tp464
a(I13
I0
tp465
a(I16
I0
tp466
a(I17
I0
tp467
a(I9
I0
tp468
a(I16
I2
tp469
a(I6
I0
tp470
a(I12
I0
tp471
asg53
S'0'
sg54
S'Resistance'
p472
sg56
S'A forthright but elegant and refined sorceress.'
p473
sg58
(lp474
sg60
(lp475
(dp476
g63
Nsg64
Nsg65
Nsg66
(lp477
sg68
Nsg69
Nsg21
S'Focus'
p478
sa(dp479
g63
Nsg64
Nsg65
Nsg66
(lp480
sg68
Nsg69
Nsg21
S'fMaximum HP +5'
p481
sa(dp482
g63
Nsg64
Nsg65
Nsg66
(lp483
sg68
Nsg69
Nsg21
S'Conductance'
p484
sa(dp485
g63
Nsg64
Nsg65
Nsg66
(lp486
sg68
Nsg69
Nsg21
S'Resistance +2'
p487
sasg77
(dp488
g79
I0
sg80
I0
sg81
I0
ssg82
I00
sg83
g450
sg84
(lp489
I0
aI0
aI0
aI0
aI0
aI79
aI0
asg86
S'Althea'
p490
sg88
I3
sg89
I14
sg90
S'F'
sg91
I0
sg92
S'Sage'
p491
sg94
I84
sg95
S'player'
p492
sg97
Nsa(dp493
g6
S'None'
p494
sg8
(lp495
I140
aI100
aI10
aI90
aI90
aI60
aI80
aI60
asg10
I01
sg11
(lp496
(dp497
g14
Nsg15
I00
sg16
I00
sg17
I21
sg18
I00
sg19
S'Drake'
p498
sg21
S'Iron Lance'
p499
sa(dp500
g14
Nsg15
I00
sg16
I00
sg17
I5
sg18
I00
sg19
g498
sg21
S'Iron Knife'
p501
sasg31
(lp502
I20
aI0
aI80
aI20
aI20
aI80
aI40
aI80
asg33
g34
(g35
g36
NtRp503
(dp504
g39
I0
sg40
I39
sbsg41
(lp505
(I39
I0
tp506
a(I18
I0
tp507
a(I1
I0
tp508
a(I17
I0
tp509
a(I16
I0
tp510
a(I14
I0
tp511
a(I15
I0
tp512
a(I9
I0
tp513
a(I13
I0
tp514
a(I16
I0
tp515
asg53
S'0'
sg54
S'Resistance'
p516
sg56
S"A disgraced Imperial knight now in Althea's service."
p517
sg58
(lp518
sg60
(lp519
(dp520
g63
Nsg64
Nsg65
Nsg66
(lp521
sg68
Nsg69
Nsg21
S'Canto'
p522
sa(dp523
g63
Nsg64
Nsg65
Nsg66
(lp524
sg68
Nsg69
Nsg21
S'Savior'
p525
sa(dp526
g63
Nsg64
Nsg65
Nsg66
(lp527
sg68
Nsg69
Nsg21
S'Charisma'
p528
sasg77
(dp529
g79
I0
sg80
I0
sg81
I0
ssg82
I00
sg83
g498
sg84
(lp530
I23
aI69
aI0
aI0
aI0
aI0
aI0
asg86
S'Drake'
p531
sg88
I2
sg89
I14
sg90
S'M'
sg91
I0
sg92
S'Paladin'
p532
sg94
I55
sg95
S'player'
p533
sg97
Nsa(dp534
g6
S'None'
p535
sg8
(lp536
I140
aI60
aI30
aI80
aI140
aI100
aI50
aI40
asg10
I00
sg11
(lp537
(dp538
g14
Nsg15
I00
sg16
I00
sg17
I24
sg18
I00
sg19
S'Renae'
p539
sg21
S'Steel Sword'
p540
sa(dp541
g14
Nsg15
I00
sg16
I00
sg17
I21
sg18
I00
sg19
g539
sg21
S'Iron Sword'
p542
sa(dp543
g14
Nsg15
I00
sg16
I00
sg17
I6
sg18
I00
sg19
g539
sg21
S'Steel Knife'
p544
sa(dp545
g14
Nsg15
I00
sg16
I00
sg17
I1
sg18
I00
sg19
g539
sg21
S'Vulnerary'
p546
sa(dp547
g14
Nsg15
I00
sg16
I00
sg17
Nsg18
I00
sg19
g539
sg21
S"Prim's Charm"
p548
sasg31
(lp549
I40
aI60
aI80
aI80
aI40
aI0
aI0
aI40
asg33
g34
(g35
g36
NtRp550
(dp551
g39
I0
sg40
I28
sbsg41
(lp552
(I28
I0
tp553
a(I8
I0
tp554
a(I5
I0
tp555
a(I12
I0
tp556
a(I20
I0
tp557
a(I11
I0
tp558
a(I7
I0
tp559
a(I3
I0
tp560
a(I6
I0
tp561
a(I11
I0
tp562
asg53
S'0'
sg54
S'Kerala'
p563
sg56
S'An energetic thief with a kleptomanic streak.'
p564
sg58
(lp565
sg60
(lp566
(dp567
g63
Nsg64
Nsg65
Nsg66
(lp568
sg68
Nsg69
Nsg21
S'Locktouch'
p569
sa(dp570
g63
Nsg64
Nsg65
Nsg66
(lp571
sg68
Nsg69
Nsg21
S'Steal'
p572
sa(dp573
g63
Nsg64
Nsg65
Nsg66
(lp574
sg68
Nsg69
Nsg21
S'Underdog'
p575
sasg77
(dp576
g79
I0
sg80
I0
sg81
I0
ssg82
I00
sg83
g539
sg84
(lp577
I41
aI0
aI0
aI0
aI0
aI0
aI0
asg86
S'Renae'
p578
sg88
I0
sg89
I10
sg90
S'F'
sg91
I0
sg92
S'Thief'
p579
sg94
I59
sg95
S'player'
p580
sg97
Nsa(dp581
g6
S'None'
p582
sg8
(lp583
I180
aI80
aI40
aI60
aI60
aI70
aI110
aI60
asg10
I00
sg11
(lp584
(dp585
g14
Nsg15
I00
sg16
I00
sg17
I5
sg18
I00
sg19
S'Theo'
p586
sg21
S'Javelin'
p587
sa(dp588
g14
Nsg15
I00
sg16
I00
sg17
I22
sg18
I00
sg19
g586
sg21
S'Great Lance'
p589
sa(dp590
g14
Nsg15
I00
sg16
I00
sg17
I23
sg18
I00
sg19
g586
sg21
S'Steel Lance'
p591
sa(dp592
g14
Nsg15
I00
sg16
I00
sg17
I1
sg18
I00
sg19
g586
sg21
g409
sasg31
(lp593
I40
aI40
aI20
aI80
aI80
aI60
aI80
aI80
asg33
g34
(g35
g36
NtRp594
(dp595
g39
I0
sg40
I45
sbsg41
(lp596
(I45
I0
tp597
a(I21
I0
tp598
a(I3
I0
tp599
a(I16
I0
tp600
a(I12
I0
tp601
a(I9
I0
tp602
a(I22
I0
tp603
a(I10
I0
tp604
a(I15
I0
tp605
a(I11
I0
tp606
asg53
S'0'
sg54
S'Resistance'
p607
sg56
S'An avid scholar. Interested in esoteric philosophy.'
p608
sg58
(lp609
sg60
(lp610
(dp611
g63
Nsg64
Nsg65
Nsg66
(lp612
sg68
Nsg69
Nsg21
S'Provoke'
p613
sa(dp614
g63
Nsg64
Nsg65
Nsg66
(lp615
sg68
I0
sg69
Nsg21
S'Shove'
p616
sa(dp617
g63
Nsg64
Nsg65
Nsg66
(lp618
sg68
Nsg69
Nsg21
S'Slow'
p619
sasg77
(dp620
g79
I0
sg80
I0
sg81
I0
ssg82
I00
sg83
g586
sg84
(lp621
I1
aI66
aI0
aI0
aI0
aI0
aI0
asg86
S'Theo'
p622
sg88
I2
sg89
I13
sg90
S'M'
sg91
I0
sg92
S'General'
p623
sg94
I50
sg95
S'player'
p624
sg97
NsasS'statistics'
p625
(lp626
g34
(cCode.CustomObjects
LevelStatistic
p627
g36
NtRp628
(dp629
S'turncount'
p630
I1
sg41
(dp631
g294
(dp632
S'damage'
p633
I0
sS'kills'
p634
I0
sS'healing'
p635
I0
ssg342
(dp636
g633
I0
sg634
I0
sg635
I0
sssg86
S'Prologue'
p637
sbag34
(g627
g36
NtRp638
(dp639
g630
I7
sg41
(dp640
g294
(dp641
g633
I44
sg634
I6
sg635
I0
ssg392
(dp642
S'damage'
p643
I93
sS'kills'
p644
I3
sS'healing'
p645
I0
ssg442
(dp646
g643
I69
sg644
I2
sg645
I0
ssg342
(dp647
g633
I64
sg634
I0
sg635
I40
sssg86
S'Chapter I'
p648
sbag34
(g627
g36
NtRp649
(dp650
g630
I10
sg41
(dp651
g490
(dp652
S'damage'
p653
I27
sS'kills'
p654
I3
sS'healing'
p655
I0
ssg342
(dp656
g643
I85
sg644
I0
sg645
I78
ssg392
(dp657
g643
I58
sg644
I4
sg645
I0
ssg442
(dp658
g643
I93
sg644
I3
sg645
I0
ssg531
(dp659
g653
I54
sg654
I1
sg655
I0
ssg294
(dp660
g643
I65
sg644
I4
sg645
I0
sssg86
S'Chapter II'
p661
sbag34
(g627
g36
NtRp662
(dp663
g630
I17
sg41
(dp664
g622
(dp665
S'damage'
p666
I0
sS'kills'
p667
I0
sS'healing'
p668
I0
ssg490
(dp669
g666
I0
sg667
I0
sg668
I0
ssg342
(dp670
g666
I0
sg667
I0
sg668
I0
ssg392
(dp671
g666
I0
sg667
I0
sg668
I0
ssg442
(dp672
g666
I0
sg667
I0
sg668
I0
ssg578
(dp673
g666
I0
sg667
I0
sg668
I0
ssg531
(dp674
g666
I0
sg667
I0
sg668
I0
ssg294
(dp675
g666
I0
sg667
I0
sg668
I0
sssg86
S'Chapter III'
p676
sbag34
(g627
g36
NtRp677
(dp678
g630
I9
sg41
(dp679
g622
(dp680
g666
I69
sg667
I4
sg668
I0
ssg490
(dp681
g666
I106
sg667
I6
sg668
I0
ssg342
(dp682
g666
I21
sg667
I3
sg668
I116
ssg239
(dp683
S'damage'
p684
I63
sS'kills'
p685
I4
sS'healing'
p686
I0
ssg442
(dp687
g666
I89
sg667
I4
sg668
I0
ssg578
(dp688
g666
I20
sg667
I0
sg668
I0
ssg531
(dp689
g666
I98
sg667
I3
sg668
I0
ssg294
(dp690
g666
I119
sg667
I7
sg668
I0
ssg392
(dp691
g666
I182
sg667
I5
sg668
I0
sssg86
S'Chapter IV'
p692
sbag34
(g627
g36
NtRp693
(dp694
g630
I12
sg41
(dp695
g622
(dp696
S'damage'
p697
I0
sS'kills'
p698
I0
sS'healing'
p699
I0
ssg490
(dp700
g697
I177
sg698
I7
sg699
I0
ssg342
(dp701
g697
I33
sg698
I2
sg699
I147
ssg143
(dp702
g697
I41
sg698
I1
sg699
I36
ssg239
(dp703
g697
I48
sg698
I3
sg699
I0
ssg442
(dp704
g697
I65
sg698
I2
sg699
I0
ssg578
(dp705
g697
I64
sg698
I3
sg699
I0
ssg531
(dp706
g697
I38
sg698
I1
sg699
I0
ssg189
(dp707
g697
I20
sg698
I2
sg699
I0
ssg294
(dp708
g697
I104
sg698
I3
sg699
I0
ssg392
(dp709
g697
I107
sg698
I4
sg699
I0
sssg86
S'Chapter V'
p710
sbag34
(g627
g36
NtRp711
(dp712
g630
I17
sg41
(dp713
g622
(dp714
S'damage'
p715
I115
sS'kills'
p716
I6
sS'healing'
p717
I0
ssg490
(dp718
g715
I260
sg716
I7
sg717
I0
ssg342
(dp719
g715
I43
sg716
I2
sg717
I126
ssg143
(dp720
g715
I62
sg716
I3
sg717
I158
ssg239
(dp721
g715
I278
sg716
I7
sg717
I0
ssg442
(dp722
g715
I230
sg716
I10
sg717
I0
ssg578
(dp723
g715
I23
sg716
I1
sg717
I0
ssg531
(dp724
g715
I142
sg716
I5
sg717
I0
ssg189
(dp725
g715
I179
sg716
I5
sg717
I0
ssg87
(dp726
S'damage'
p727
I39
sS'kills'
p728
I3
sS'healing'
p729
I0
ssg294
(dp730
g715
I171
sg716
I8
sg717
I0
ssg392
(dp731
g715
I169
sg716
I5
sg717
I0
sssg86
S'Chapter VI'
p732
sbag34
(g627
g36
NtRp733
(dp734
g630
I13
sg41
(dp735
g622
(dp736
S'damage'
p737
I85
sS'kills'
p738
I6
sS'healing'
p739
I0
ssg490
(dp740
g737
I181
sg738
I5
sg739
I0
ssg342
(dp741
g737
I45
sg738
I3
sg739
I107
ssg143
(dp742
g737
I57
sg738
I4
sg739
I101
ssg239
(dp743
g737
I182
sg738
I5
sg739
I0
ssg442
(dp744
g737
I225
sg738
I5
sg739
I0
ssg578
(dp745
g737
I31
sg738
I5
sg739
I0
ssg531
(dp746
g737
I149
sg738
I4
sg739
I0
ssg189
(dp747
g737
I169
sg738
I2
sg739
I0
ssg87
(dp748
g737
I181
sg738
I4
sg739
I0
ssg294
(dp749
g737
I177
sg738
I7
sg739
I0
ssg392
(dp750
g737
I289
sg738
I5
sg739
I0
sssg86
S'Chapter VII'
p751
sbag34
(g627
g36
NtRp752
(dp753
g630
I17
sg41
(dp754
g622
(dp755
S'damage'
p756
I265
sS'kills'
p757
I8
sS'healing'
p758
I0
ssg490
(dp759
g756
I294
sg757
I7
sg758
I0
ssg342
(dp760
g756
I50
sg757
I0
sg758
I288
ssg143
(dp761
g756
I85
sg757
I4
sg758
I120
ssg239
(dp762
g756
I458
sg757
I9
sg758
I0
ssg442
(dp763
g756
I276
sg757
I9
sg758
I0
ssg578
(dp764
g756
I11
sg757
I1
sg758
I0
ssg531
(dp765
g756
I237
sg757
I7
sg758
I0
ssg189
(dp766
g756
I193
sg757
I6
sg758
I0
ssg87
(dp767
g756
I120
sg757
I5
sg758
I0
ssg294
(dp768
g756
I391
sg757
I8
sg758
I0
ssg392
(dp769
g756
I389
sg757
I13
sg758
I0
sssg86
S'Chapter VIII'
p770
sbasS'convoy'
p771
(lp772
(dp773
g14
Nsg15
I00
sg16
I00
sg17
I3
sg18
I00
sg19
I0
sg21
S'Herbs'
p774
sa(dp775
g14
Nsg15
I00
sg16
I00
sg17
I2
sg18
I00
sg19
I0
sg21
S'Spiritbane'
p776
sa(dp777
g14
Nsg15
I00
sg16
I00
sg17
I1
sg18
I00
sg19
I0
sg21
S'Secret Book'
p778
sa(dp779
g14
Nsg15
I00
sg16
I00
sg17
I1
sg18
I00
sg19
I0
sg21
S'Angelic Robe'
p780
sa(dp781
g14
Nsg15
I00
sg16
I00
sg17
I1
sg18
I00
sg19
I0
sg21
S'Vulnerary'
p782
sa(dp783
g14
Nsg15
I00
sg16
I00
sg17
I1
sg18
I00
sg19
I0
sg21
S'Mana Ring'
p784
sa(dp785
g14
Nsg15
I00
sg16
I00
sg17
I10
sg18
I00
sg19
I0
sg21
S'Windwall'
p786
sa(dp787
g14
Nsg15
I00
sg16
I00
sg17
I1
sg18
I00
sg19
I0
sg21
S'Talisman'
p788
sa(dp789
g14
Nsg15
I00
sg16
I00
sg17
I1
sg18
I00
sg19
I0
sg21
S'Speedwings'
p790
sa(dp791
g14
Nsg15
I00
sg16
I00
sg17
I9
sg18
I00
sg19
I0
sg21
S'Fly'
p792
sa(dp793
g14
Nsg15
I00
sg16
I00
sg17
I1
sg18
I00
sg19
I0
sg21
S'Energy Ring'
p794
sa(dp795
g14
Nsg15
I00
sg16
I00
sg17
I3
sg18
I00
sg19
I0
sg21
S'Barkskin'
p796
sa(dp797
g14
Nsg15
I00
sg16
I00
sg17
I3
sg18
I00
sg19
I0
sg21
S'Spiritbane'
p798
sa(dp799
g14
Nsg15
I00
sg16
I00
sg17
I16
sg18
I00
sg19
I0
sg21
S'Javelin'
p800
sa(dp801
g14
Nsg15
I00
sg16
I00
sg17
I17
sg18
I00
sg19
I0
sg21
S'Willow Bow'
p802
sa(dp803
g14
Nsg15
I00
sg16
I00
sg17
I18
sg18
I00
sg19
I0
sg21
S'Iron Axe'
p804
sa(dp805
g14
Nsg15
I00
sg16
I00
sg17
I13
sg18
I00
sg19
I0
sg21
S'Short Axe'
p806
sa(dp807
g14
Nsg15
I00
sg16
I00
sg17
I3
sg18
I00
sg19
I0
sg21
S'Blizzard'
p808
sa(dp809
g14
Nsg15
I00
sg16
I00
sg17
I1
sg18
I00
sg19
I0
sg21
S'Secret Book'
p810
sa(dp811
g14
Nsg15
I00
sg16
I00
sg17
I17
sg18
I00
sg19
I0
sg21
S'Willow Bow'
p812
sa(dp813
g14
Nsg15
I00
sg16
I00
sg17
I20
sg18
I00
sg19
I0
sg21
S'Mithril Axe'
p814
sa(dp815
g14
Nsg15
I00
sg16
I00
sg17
I26
sg18
I00
sg19
I0
sg21
S'Iron Lance'
p816
sa(dp817
g14
Nsg15
I00
sg16
I00
sg17
I12
sg18
I00
sg19
I0
sg21
S'Iron Knife'
p818
sa(dp819
g14
Nsg15
I00
sg16
I00
sg17
I14
sg18
I00
sg19
I0
sg21
S'Iron Sword'
p820
sa(dp821
g14
Nsg15
I00
sg16
I00
sg17
I5
sg18
I00
sg19
I0
sg21
S'Mage Shield'
p822
sa(dp823
g14
Nsg15
I00
sg16
I00
sg17
I22
sg18
I00
sg19
I0
sg21
S'Nyx'
p824
sa(dp825
g14
Nsg15
I00
sg16
I00
sg17
I1
sg18
I00
sg19
I0
sg21
S'Vulnerary'
p826
sa(dp827
g14
Nsg15
I00
sg16
I00
sg17
I24
sg18
I00
sg19
I0
sg21
S'Great Lance'
p828
sa(dp829
g14
Nsg15
I00
sg16
I00
sg17
I20
sg18
I00
sg19
I0
sg21
S'Steel Axe'
p830
sa(dp831
g14
Nsg15
I00
sg16
I00
sg17
I1
sg18
I00
sg19
I0
sg21
S'Short Spear'
p832
sa(dp833
g14
Nsg15
I00
sg16
I00
sg17
I29
sg18
I00
sg19
I0
sg21
S'Steel Lance'
p834
sa(dp835
g14
Nsg15
I00
sg16
I00
sg17
I28
sg18
I00
sg19
I0
sg21
S'Brave Sword'
p836
sa(dp837
g14
Nsg15
I00
sg16
I00
sg17
I9
sg18
I00
sg19
I0
sg21
S'Scathe'
p838
sa(dp839
g14
Nsg15
I00
sg16
I00
sg17
I1
sg18
I00
sg19
I0
sg21
S'Talisman'
p840
sa(dp841
g14
Nsg15
I00
sg16
I00
sg17
I2
sg18
I00
sg19
I0
sg21
S'Vulnerary'
p842
sa(dp843
g14
Nsg15
I00
sg16
I00
sg17
I1
sg18
I00
sg19
I0
sg21
S'Mithril Mail'
p844
sa(dp845
g14
Nsg15
I00
sg16
I00
sg17
I6
sg18
I00
sg19
I0
sg21
S'Short Spear'
p846
sa(dp847
g14
Nsg15
I00
sg16
I00
sg17
I21
sg18
I00
sg19
I0
sg21
S'Great Lance'
p848
sa(dp849
g14
Nsg15
I00
sg16
I00
sg17
I2
sg18
I00
sg19
I0
sg21
S'Vulnerary'
p850
sasS'prefabs'
p851
(lp852
sS'talk_options'
p853
(lp854
sS'market_items'
p855
c__builtin__
set
p856
((lp857
S'Nyx'
p858
aS'Great Bow'
p859
aS'Great Axe'
p860
aS'Oak Longbow'
p861
aS'Wyrmsfire'
p862
aS'Glimmer'
p863
aS'Mend'
p864
aS'Spiritbane'
p865
aS'Rapier'
p866
aS'Potion'
p867
aS'Fire'
p868
aS'Heal'
p869
aS'Great Lance'
p870
aS'Water'
p871
aS'Hand Axe'
p872
aS'Ruin'
p873
aS'Iron Sword'
p874
aS'Shine'
p875
aS'Short Spear'
p876
aS'Iron Lance'
p877
aS'Short Bow'
p878
aS'Hatchet'
p879
aS'Vulnerary'
p880
aS'Willow Bow'
p881
aS'Barkskin'
p882
aS'Flux'
p883
aS'Slim Lance'
p884
aS'Short Axe'
p885
aS'Wind'
p886
aS'Steel Lance'
p887
aS'Longbow'
p888
aS'Iron Knife'
p889
aS'Scathe'
p890
aS'Oak Bow'
p891
aS'Steel Sword'
p892
aS'Javelin'
p893
aS'Steel Axe'
p894
aS'Earth'
p895
aS'Great Sword'
p896
aS'Steel Knife'
p897
aS'Iron Axe'
p898
atRp899
sS'support'
p900
NsS'allreinforcements'
p901
(dp902
sS'event_triggers'
p903
(lp904
sg630
I0
sS'base_conversations'
p905
(dp906
sS'phase_info'
p907
(I0
I1
tp908
sS'playtime'
p909
I37706271
sS'objective'
p910
NsS'state_list'
p911
((lp912
S'turn_change'
p913
a(ltp914
sS'message'
p915
(lp916
sS'metaDataObj_changes'
p917
(lp918
sS'unlocked_lore'
p919
(lp920
S'Sam'
p921
aS'Joel'
p922
aS'Prim'
p923
aS'Ophie'
p924
aS'Althea'
p925
aS'Drake'
p926
aS'Nia'
p927
aS'Renae'
p928
aS'Theo'
p929
aS'Kerala'
p930
aS'Empire'
p931
aS'Eliza'
p932
aS'Podoma'
p933
aS'Rajas'
p934
aS'Ulver'
p935
aS'Vagnius'
p936
aS'CFS'
p937
aS'Kayla'
p938
aS'CFS'
p939
aS'Kayla'
p940
aS'Tyrana'
p941
aS'Coyote'
p942
asS'game_constants'
p943
(lp944
S'Convoy'
p945
asS'counters'
p946
(dp947
S'Dead_Wagons'
p948
I12
sS'line_cross'
p949
I13
sS'level'
p950
I9
sS'money'
p951
I1902
sS'switches'
p952
I2
sS'Civ_Escape'
p953
I5
sS'turns'
p954
I5
sS'Escaped_Wagons'
p955
I0
ss.