(dp1
S'metaDataObj_changes'
p2
(lp3
sS'map'
p4
NsS'allunits'
p5
(lp6
(dp7
S'ai'
p8
S'None'
p9
sS'growths'
p10
(lp11
I105
aI50
aI30
aI70
aI80
aI80
aI30
aI40
asS'dead'
p12
I00
sS'growth_points'
p13
(lp14
I20
aI60
aI0
aI20
aI40
aI40
aI0
aI20
asS'desc'
p15
S'A strong-hearted renegade who often acts before he thinks.'
p16
sS'currenthp'
p17
ccopy_reg
_reconstructor
p18
(cCode.UnitObject
Stat
p19
c__builtin__
object
p20
NtRp21
(dp22
S'bonuses'
p23
I0
sS'base_stat'
p24
I21
sbsS'stats'
p25
(lp26
(I14
I0
tp27
a(I4
I0
tp28
a(I2
I0
tp29
a(I6
I0
tp30
a(I7
I0
tp31
a(I3
I0
tp32
a(I2
I0
tp33
a(I1
I0
tp34
a(I4
I0
tp35
aI5
asS'event_id'
p36
S'Ophie'
p37
sS'tags'
p38
(lp39
S'Lord'
p40
asS'TRV'
p41
I0
sS'faction'
p42
S'Resistance'
p43
sS'team'
p44
S'player'
p45
sS'status_effects'
p46
(lp47
(dp48
S'count'
p49
NsS'time_left'
p50
NsS'upkeep_sc_count'
p51
NsS'id'
p52
S'Riposte'
p53
sS'charge'
p54
NsS'rhythm_sc_count'
p55
NsS'children'
p56
(lp57
sasS'records'
p58
(dp59
S'damage'
p60
I0
sS'kills'
p61
I0
sS'healing'
p62
I0
ssS'finished'
p63
I00
sS'u_id'
p64
S'Ophie'
p65
sS'wexp'
p66
(lp67
I16
aI0
aI0
aI0
aI0
aI0
aI0
asS'movement_group'
p68
I0
sS'name'
p69
S'Ophie'
p70
sS'level'
p71
I3
sS'items'
p72
(lp73
(dp74
S'c_uses'
p75
NsS'locked'
p76
I00
sS'droppable'
p77
I00
sS'uses'
p78
I32
sS'event_combat'
p79
I00
sS'owner'
p80
g65
sg52
S'Iron Sword'
p81
sa(dp82
g75
Nsg76
I00
sg77
I00
sg78
I45
sg79
I00
sg80
g65
sg52
S'Iron Sword'
p83
sa(dp84
g75
Nsg76
I00
sg77
I00
sg78
I1
sg79
I00
sg80
g65
sg52
S'Angelic Robe'
p85
sasS'klass'
p86
S'Myrmidon'
p87
sS'exp'
p88
I47
sS'gender'
p89
S'M'
sS'position'
p90
Nsa(dp91
g8
S'None'
p92
sg10
(lp93
I65
aI10
aI65
aI40
aI50
aI80
aI20
aI80
asg12
I00
sg13
(lp94
I0
aI60
aI0
aI80
aI40
aI60
aI5
aI60
asg15
S'A shy but kind-hearted young woman. Has an affinity with the spiritual.'
p95
sg17
g18
(g19
g20
NtRp96
(dp97
g23
I0
sg24
I20
sbsg25
(lp98
(I13
I0
tp99
a(I0
I0
tp100
a(I4
I0
tp101
a(I4
I0
tp102
a(I6
I0
tp103
a(I6
I0
tp104
a(I1
I0
tp105
a(I6
I0
tp106
a(I3
I0
tp107
aI5
asg36
S'Prim'
p108
sg38
(lp109
sg41
I0
sg42
S'Resistance'
p110
sg44
S'player'
p111
sg46
(lp112
(dp113
g49
Nsg50
Nsg51
Nsg52
S'Healtouch'
p114
sg54
Nsg55
Nsg56
(lp115
sasg58
(dp116
g60
I0
sg61
I0
sg62
I0
ssg63
I00
sg64
S'Prim'
p117
sg66
(lp118
I0
aI0
aI0
aI0
aI21
aI0
aI0
asg68
I3
sg69
S'Prim'
p119
sg71
I4
sg72
(lp120
(dp121
g75
Nsg76
I00
sg77
I00
sg78
I20
sg79
I00
sg80
g117
sg52
S'Heal'
p122
sa(dp123
g75
Nsg76
I00
sg77
I00
sg78
I22
sg79
I00
sg80
g117
sg52
S'Glimmer'
p124
sa(dp125
g75
Nsg76
I00
sg77
I00
sg78
I35
sg79
I00
sg80
g117
sg52
S'Glimmer'
p126
sa(dp127
g75
Nsg76
I00
sg77
I00
sg78
I30
sg79
I00
sg80
g117
sg52
S'Heal'
p128
sasg86
S'Mystic'
p129
sg88
I44
sg89
S'F'
sg90
Nsa(dp130
g8
S'None'
p131
sg10
(lp132
I105
aI80
aI5
aI60
aI50
aI45
aI30
aI20
asg12
I00
sg13
(lp133
I60
aI20
aI10
aI90
aI80
aI70
aI50
aI30
asg15
S'A jovial former sailor. Always ready for a new adventure.'
p134
sg17
g18
(g19
g20
NtRp135
(dp136
g23
I0
sg24
I32
sbsg25
(lp137
(I21
I0
tp138
a(I6
I0
tp139
a(I0
I0
tp140
a(I3
I0
tp141
a(I4
I0
tp142
a(I2
I0
tp143
a(I3
I0
tp144
a(I0
I0
tp145
a(I7
I0
tp146
aI5
asg36
S'0'
sg38
(lp147
sg41
I0
sg42
S'Resistance'
p148
sg44
S'player'
p149
sg46
(lp150
(dp151
g49
Nsg50
Nsg51
Nsg52
S'Cleave'
p152
sg54
I0
sg55
Nsg56
(lp153
sasg58
(dp154
g60
I0
sg61
I0
sg62
I0
ssg63
I00
sg64
S'Joel'
p155
sg66
(lp156
I0
aI0
aI25
aI0
aI0
aI0
aI0
asg68
I4
sg69
S'Joel'
p157
sg71
I4
sg72
(lp158
(dp159
g75
Nsg76
I00
sg77
I00
sg78
I44
sg79
I00
sg80
g155
sg52
S'Iron Axe'
p160
sa(dp161
g75
Nsg76
I00
sg77
I00
sg78
I3
sg79
I00
sg80
g155
sg52
S'Vulnerary'
p162
sa(dp163
g75
Nsg76
I00
sg77
I00
sg78
I20
sg79
I00
sg80
g155
sg52
S'Hand Axe'
p164
sa(dp165
g75
Nsg76
I00
sg77
I00
sg78
I3
sg79
I00
sg80
g155
sg52
S'Potion'
p166
sa(dp167
g75
Nsg76
I00
sg77
I00
sg78
I36
sg79
I00
sg80
g155
sg52
S'Iron Axe'
p168
sasg86
S'Fighter'
p169
sg88
I54
sg89
S'M'
sg90
Nsa(dp170
g8
S'None'
p171
sg10
(lp172
I80
aI50
aI30
aI65
aI80
aI40
aI20
aI40
asg12
I00
sg13
(lp173
I40
aI60
aI0
aI0
aI40
aI20
aI60
aI20
asg15
S'A quiet archer most at home in the wilderness.'
p174
sg17
g18
(g19
g20
NtRp175
(dp176
g23
I0
sg24
I21
sbsg25
(lp177
(I14
I0
tp178
a(I4
I0
tp179
a(I2
I0
tp180
a(I6
I0
tp181
a(I6
I0
tp182
a(I4
I0
tp183
a(I2
I0
tp184
a(I2
I0
tp185
a(I4
I0
tp186
aI5
asg36
S'0'
sg38
(lp187
sg41
I0
sg42
S'Resistance'
p188
sg44
S'player'
p189
sg46
(lp190
(dp191
g49
Nsg50
Nsg51
Nsg52
S'Prescience'
p192
sg54
Nsg55
Nsg56
(lp193
sa(dp194
g49
Nsg50
Nsg51
Nsg52
S'Critical'
p195
sg54
I0
sg55
Nsg56
(lp196
sasg58
(dp197
g60
I0
sg61
I0
sg62
I0
ssg63
I00
sg64
S'Nia'
p198
sg66
(lp199
I0
aI0
aI0
aI29
aI0
aI0
aI0
asg68
I0
sg69
S'Nia'
p200
sg71
I5
sg72
(lp201
(dp202
g75
Nsg76
I00
sg77
I00
sg78
I26
sg79
I00
sg80
g198
sg52
S'Willow Bow'
p203
sa(dp204
g75
Nsg76
I00
sg77
I00
sg78
I3
sg79
I00
sg80
g198
sg52
S'Vulnerary'
p205
sasg86
S'Archer'
p206
sg88
I19
sg89
S'F'
sg90
Nsa(dp207
g8
S'None'
p208
sg10
(lp209
I60
aI10
aI85
aI40
aI60
aI60
aI20
aI50
asg12
I00
sg13
(lp210
I90
aI20
aI30
aI60
aI90
aI90
aI30
aI80
asg15
S'A forthright but elegant and refined sorceress.'
p211
sg17
g18
(g19
g20
NtRp212
(dp213
g23
I0
sg24
I17
sbsg25
(lp214
(I11
I0
tp215
a(I0
I0
tp216
a(I5
I0
tp217
a(I4
I0
tp218
a(I4
I0
tp219
a(I5
I0
tp220
a(I2
I0
tp221
a(I3
I0
tp222
a(I3
I0
tp223
aI5
asg36
S'0'
sg38
(lp224
sg41
I0
sg42
S'Resistance'
p225
sg44
S'player'
p226
sg46
(lp227
(dp228
g49
Nsg50
Nsg51
Nsg52
S'Focus'
p229
sg54
Nsg55
Nsg56
(lp230
sasg58
(dp231
g60
I0
sg61
I0
sg62
I0
ssg63
I00
sg64
S'Althea'
p232
sg66
(lp233
I0
aI0
aI0
aI0
aI0
aI11
aI0
asg68
I3
sg69
S'Althea'
p234
sg71
I3
sg72
(lp235
(dp236
g75
Nsg76
I00
sg77
I00
sg78
I25
sg79
I00
sg80
g232
sg52
S'Fire'
p237
sa(dp238
g75
Nsg76
I00
sg77
I00
sg78
I3
sg79
I00
sg80
g232
sg52
S'Vulnerary'
p239
sa(dp240
g75
Nsg76
I00
sg77
I00
sg78
I3
sg79
I00
sg80
g232
sg52
S'Vulnerary'
p241
sasg86
S'Mage'
p242
sg88
I18
sg89
S'F'
sg90
Nsa(dp243
g8
S'None'
p244
sg10
(lp245
I90
aI65
aI5
aI60
aI60
aI40
aI50
aI40
asg12
I00
sg13
(lp246
I0
aI0
aI0
aI0
aI0
aI0
aI0
aI0
asg15
S"A disgraced Imperial knight now in Althea's service."
p247
sg17
g18
(g19
g20
NtRp248
(dp249
g23
I0
sg24
I26
sbsg25
(lp250
(I17
I0
tp251
a(I6
I0
tp252
a(I0
I0
tp253
a(I6
I0
tp254
a(I5
I0
tp255
a(I6
I0
tp256
a(I4
I0
tp257
a(I2
I0
tp258
a(I7
I0
tp259
aI7
asg36
S'0'
sg38
(lp260
sg41
I0
sg42
S'Resistance'
p261
sg44
S'player'
p262
sg46
(lp263
(dp264
g49
Nsg50
Nsg51
Nsg52
S'Canto'
p265
sg54
Nsg55
Nsg56
(lp266
sa(dp267
g49
Nsg50
Nsg51
Nsg52
S'Savior'
p268
sg54
Nsg55
Nsg56
(lp269
sasg58
(dp270
g60
I0
sg61
I0
sg62
I0
ssg63
I00
sg64
S'Drake'
p271
sg66
(lp272
I12
aI19
aI0
aI0
aI0
aI0
aI0
asg68
I1
sg69
S'Drake'
p273
sg71
I5
sg72
(lp274
(dp275
g75
Nsg76
I00
sg77
I00
sg78
I41
sg79
I00
sg80
g271
sg52
S'Iron Lance'
p276
sa(dp277
g75
Nsg76
I00
sg77
I00
sg78
I42
sg79
I00
sg80
g271
sg52
S'Iron Sword'
p278
sa(dp279
g75
Nsg76
I00
sg77
I00
sg78
I45
sg79
I00
sg80
g271
sg52
S'Iron Lance'
p280
sa(dp281
g75
Nsg76
I00
sg77
I00
sg78
I35
sg79
I00
sg80
g271
sg52
S'Slim Lance'
p282
sasg86
S'Cavalier'
p283
sg88
I49
sg89
S'M'
sg90
NsasS'statistics'
p284
(lp285
g18
(cCode.CustomObjects
LevelStatistic
p286
g20
NtRp287
(dp288
S'turncount'
p289
I5
sS'stats'
p290
(dp291
g119
(dp292
S'damage'
p293
I14
sS'kills'
p294
I1
sS'healing'
p295
I0
ssg70
(dp296
g293
I21
sg294
I1
sg295
I0
sssS'name'
p297
S'Prologue'
p298
sbag18
(g286
g20
NtRp299
(dp300
g289
I9
sg290
(dp301
g119
(dp302
S'damage'
p303
I28
sS'kills'
p304
I4
sS'healing'
p305
I22
ssg157
(dp306
g303
I60
sg304
I2
sg305
I0
ssg200
(dp307
g303
I82
sg304
I4
sg305
I0
ssg70
(dp308
g303
I58
sg304
I1
sg305
I0
sssg297
S'Chapter I'
p309
sbag18
(g286
g20
NtRp310
(dp311
g289
I14
sg290
(dp312
g234
(dp313
g60
I56
sg61
I2
sg62
I0
ssg119
(dp314
g303
I17
sg304
I3
sg305
I60
ssg157
(dp315
g303
I74
sg304
I1
sg305
I0
ssg200
(dp316
g303
I86
sg304
I5
sg305
I0
ssg273
(dp317
g60
I52
sg61
I2
sg62
I0
ssg70
(dp318
g303
I19
sg304
I2
sg305
I0
sssg297
S'Chapter II'
p319
sbasS'convoy'
p320
(lp321
sS'prefabs'
p322
(lp323
sS'talk_options'
p324
(lp325
sS'market_items'
p326
c__builtin__
set
p327
((ltRp328
sS'support'
p329
NsS'state_list'
p330
((lp331
S'turn_change'
p332
a(ltp333
sS'allreinforcements'
p334
(dp335
sS'event_triggers'
p336
(lp337
sS'base_conversations'
p338
(dp339
sS'phase_info'
p340
(I0
I1
tp341
sS'objective'
p342
NsS'playtime'
p343
I3306312
sS'message'
p344
(lp345
sS'turncount'
p346
I0
sS'unlocked_lore'
p347
(lp348
sS'game_constants'
p349
(lp350
sS'counters'
p351
(dp352
S'money'
p353
I670
sS'level'
p354
I3
ss.