(dp1
S'talk_options'
p2
(lp3
sS'allunits'
p4
(lp5
(dp6
S'ai'
p7
S'None'
p8
sS'growths'
p9
(lp10
I105
aI55
aI35
aI75
aI80
aI80
aI40
aI40
asS'dead'
p11
I00
sS'items'
p12
(lp13
(dp14
S'c_uses'
p15
NsS'locked'
p16
I00
sS'droppable'
p17
I00
sS'uses'
p18
I30
sS'event_combat'
p19
I00
sS'owner'
p20
S'Ophie'
p21
sS'id'
p22
S'Steel Sword'
p23
sa(dp24
g15
Nsg16
I00
sg17
I00
sg18
I15
sg19
I00
sg20
g21
sg22
S'Steel Knife'
p25
sa(dp26
g15
Nsg16
I00
sg17
I00
sg18
I45
sg19
I00
sg20
g21
sg22
S'Iron Sword'
p27
sa(dp28
g15
Nsg16
I00
sg17
I00
sg18
I3
sg19
I00
sg20
g21
sg22
S'Vulnerary'
p29
sasS'growth_points'
p30
(lp31
I75
aI25
aI25
aI25
aI50
aI50
aI50
aI50
asS'currenthp'
p32
ccopy_reg
_reconstructor
p33
(cCode.UnitObject
Stat
p34
c__builtin__
object
p35
NtRp36
(dp37
S'bonuses'
p38
I0
sS'base_stat'
p39
I17
sbsS'stats'
p40
(lp41
(I17
I0
tp42
a(I6
I0
tp43
a(I3
I0
tp44
a(I9
I0
tp45
a(I11
I0
tp46
a(I6
I0
tp47
a(I3
I0
tp48
a(I3
I0
tp49
a(I5
I0
tp50
a(I5
I0
tp51
asS'event_id'
p52
S'Ophie'
p53
sS'faction'
p54
S'Resistance'
p55
sS'desc'
p56
S'A strong-hearted renegade who often acts before he thinks.'
p57
sS'tags'
p58
(lp59
S'Lord'
p60
asS'status_effects'
p61
(lp62
(dp63
S'count'
p64
NsS'time_left'
p65
NsS'upkeep_sc_count'
p66
NsS'children'
p67
(lp68
sS'charge'
p69
NsS'rhythm_sc_count'
p70
Nsg22
S'Riposte'
p71
sa(dp72
g64
Nsg65
Nsg66
Nsg67
(lp73
sg69
Nsg70
Nsg22
S'Vantage'
p74
sasS'records'
p75
(dp76
S'damage'
p77
I0
sS'kills'
p78
I0
sS'healing'
p79
I0
ssS'finished'
p80
I00
sS'u_id'
p81
g21
sS'wexp'
p82
(lp83
I31
aI0
aI0
aI0
aI0
aI0
aI0
asS'name'
p84
S'Ophie'
p85
sS'movement_group'
p86
I0
sS'level'
p87
I6
sS'gender'
p88
S'M'
sS'TRV'
p89
I0
sS'klass'
p90
S'Myrmidon'
p91
sS'exp'
p92
I93
sS'team'
p93
S'player'
p94
sS'position'
p95
(I3
I15
tp96
sa(dp97
g7
S'None'
p98
sg9
(lp99
I65
aI15
aI65
aI40
aI55
aI80
aI25
aI80
asg11
I00
sg12
(lp100
(dp101
g15
Nsg16
I00
sg17
I00
sg18
I25
sg19
I00
sg20
S'Prim'
p102
sg22
S'Shine'
p103
sa(dp104
g15
Nsg16
I00
sg17
I00
sg18
I25
sg19
I00
sg20
g102
sg22
S'Glimmer'
p105
sa(dp106
g15
Nsg16
I00
sg17
I00
sg18
I30
sg19
I00
sg20
g102
sg22
S'Heal'
p107
sasg30
(lp108
I45
aI95
aI45
aI70
aI15
aI90
aI25
aI90
asg32
g33
(g34
g35
NtRp109
(dp110
g38
I0
sg39
I13
sbsg40
(lp111
(I13
I0
tp112
a(I0
I0
tp113
a(I4
I0
tp114
a(I4
I0
tp115
a(I7
I0
tp116
a(I6
I0
tp117
a(I2
I0
tp118
a(I6
I0
tp119
a(I3
I0
tp120
a(I5
I0
tp121
asg52
S'Prim'
p122
sg54
S'Resistance'
p123
sg56
S'A shy but kind-hearted young woman. Has an affinity with the spiritual.'
p124
sg58
(lp125
sg61
(lp126
(dp127
g64
Nsg65
Nsg66
Nsg67
(lp128
sg69
Nsg70
Nsg22
S'Healtouch'
p129
sasg75
(dp130
g77
I0
sg78
I0
sg79
I0
ssg80
I00
sg81
g102
sg82
(lp131
I0
aI0
aI0
aI0
aI31
aI0
aI0
asg84
S'Prim'
p132
sg86
I5
sg87
I4
sg88
S'F'
sg89
I0
sg90
S'Mystic'
p133
sg92
I95
sg93
S'player'
p134
sg95
(I1
I13
tp135
sa(dp136
g7
S'None'
p137
sg9
(lp138
I105
aI80
aI5
aI60
aI55
aI45
aI35
aI20
asg11
I00
sg12
(lp139
(dp140
g15
Nsg16
I00
sg17
I00
sg18
I27
sg19
I00
sg20
S'Joel'
p141
sg22
S'Steel Axe'
p142
sa(dp143
g15
Nsg16
I00
sg17
I00
sg18
I35
sg19
I00
sg20
g141
sg22
S'Hatchet'
p144
sa(dp145
g15
Nsg16
I00
sg17
I00
sg18
I27
sg19
I00
sg20
g141
sg22
S'Iron Axe'
p146
sa(dp147
g15
Nsg16
I00
sg17
I00
sg18
I15
sg19
I00
sg20
g141
sg22
S'Hand Axe'
p148
sa(dp149
g15
Nsg16
I00
sg17
I00
sg18
I2
sg19
I00
sg20
g141
sg22
S'Potion'
p150
sasg30
(lp151
I65
aI90
aI65
aI30
aI15
aI85
aI55
aI10
asg32
g33
(g34
g35
NtRp152
(dp153
g38
I0
sg39
I24
sbsg40
(lp154
(I24
I0
tp155
a(I7
I0
tp156
a(I0
I0
tp157
a(I5
I0
tp158
a(I6
I0
tp159
a(I4
I0
tp160
a(I4
I0
tp161
a(I1
I0
tp162
a(I7
I0
tp163
a(I5
I0
tp164
asg52
S'0'
sg54
S'Resistance'
p165
sg56
S'A jovial former sailor. Always ready for a new adventure.'
p166
sg58
(lp167
sg61
(lp168
(dp169
g64
Nsg65
Nsg66
Nsg67
(lp170
sg69
I0
sg70
Nsg22
S'Cleave'
p171
sa(dp172
g64
Nsg65
Nsg66
Nsg67
(lp173
sg69
I0
sg70
Nsg22
S'Shove'
p174
sasg75
(dp175
g77
I0
sg78
I0
sg79
I0
ssg80
I00
sg81
g141
sg82
(lp176
I0
aI0
aI41
aI0
aI0
aI0
aI0
asg84
S'Joel'
p177
sg86
I4
sg87
I6
sg88
S'M'
sg89
I0
sg90
S'Fighter'
p178
sg92
I83
sg93
S'player'
p179
sg95
(I2
I14
tp180
sa(dp181
g7
S'None'
p182
sg9
(lp183
I80
aI55
aI35
aI80
aI80
aI25
aI20
aI40
asg11
I00
sg12
(lp184
(dp185
g15
Nsg16
I00
sg17
I00
sg18
I30
sg19
I00
sg20
S'Nia'
p186
sg22
S'Oak Bow'
p187
sa(dp188
g15
Nsg16
I00
sg17
I00
sg18
I45
sg19
I00
sg20
g186
sg22
S'Willow Bow'
p189
sa(dp190
g15
Nsg16
I00
sg17
I00
sg18
I3
sg19
I00
sg20
g186
sg22
S'Vulnerary'
p191
sasg30
(lp192
I90
aI15
aI55
aI90
aI90
aI25
aI10
aI70
asg32
g33
(g34
g35
NtRp193
(dp194
g38
I0
sg39
I15
sbsg40
(lp195
(I15
I0
tp196
a(I6
I0
tp197
a(I3
I0
tp198
a(I7
I0
tp199
a(I7
I0
tp200
a(I4
I0
tp201
a(I3
I0
tp202
a(I2
I0
tp203
a(I4
I0
tp204
a(I5
I0
tp205
asg52
S'0'
sg54
S'Resistance'
p206
sg56
S'A quiet archer most at home in the wilderness.'
p207
sg58
(lp208
sg61
(lp209
(dp210
g64
Nsg65
Nsg66
Nsg67
(lp211
sg69
Nsg70
Nsg22
S'Prescience'
p212
sa(dp213
g64
Nsg65
Nsg66
Nsg67
(lp214
sg69
I0
sg70
Nsg22
S'Critical'
p215
sasg75
(dp216
g77
I0
sg78
I0
sg79
I0
ssg80
I00
sg81
g186
sg82
(lp217
I0
aI0
aI0
aI36
aI0
aI0
aI0
asg84
S'Nia'
p218
sg86
I0
sg87
I6
sg88
S'F'
sg89
I0
sg90
S'Archer'
p219
sg92
I22
sg93
S'player'
p220
sg95
(I1
I16
tp221
sa(dp222
g7
S'None'
p223
sg9
(lp224
I60
aI15
aI85
aI40
aI60
aI60
aI20
aI55
asg11
I00
sg12
(lp225
(dp226
g15
Nsg16
I00
sg17
I00
sg18
I30
sg19
I00
sg20
S'Althea'
p227
sg22
S'Earth'
p228
sa(dp229
g15
Nsg16
I00
sg17
I00
sg18
I28
sg19
I00
sg20
g227
sg22
S'Water'
p230
sa(dp231
g15
Nsg16
I00
sg17
I00
sg18
I27
sg19
I00
sg20
g227
sg22
S'Wind'
p232
sa(dp233
g15
Nsg16
I00
sg17
I00
sg18
I3
sg19
I00
sg20
g227
sg22
S'Vulnerary'
p234
sa(dp235
g15
Nsg16
I00
sg17
I00
sg18
I7
sg19
I00
sg20
g227
sg22
S'Wyrmsfire'
p236
sasg30
(lp237
I50
aI25
aI75
aI50
aI50
aI50
aI50
aI25
asg32
g33
(g34
g35
NtRp238
(dp239
g38
I5
sg39
I14
sbsg40
(lp240
(I14
I5
tp241
a(I2
I0
tp242
a(I9
I0
tp243
a(I6
I0
tp244
a(I8
I-2
tp245
a(I8
I0
tp246
a(I3
I2
tp247
a(I6
I0
tp248
a(I3
I0
tp249
a(I5
I0
tp250
asg52
S'0'
sg54
S'Resistance'
p251
sg56
S'A forthright but elegant and refined sorceress.'
p252
sg58
(lp253
sg61
(lp254
(dp255
g64
Nsg65
Nsg66
Nsg67
(lp256
sg69
Nsg70
Nsg22
S'Focus'
p257
sa(dp258
g64
Nsg65
Nsg66
Nsg67
(lp259
sg69
Nsg70
Nsg22
S'fMaximum HP +5'
p260
sa(dp261
g64
Nsg65
Nsg66
Nsg67
(lp262
sg69
Nsg70
Nsg22
S'Speed -2'
p263
sa(dp264
g64
Nsg65
Nsg66
Nsg67
(lp265
sg69
Nsg70
Nsg22
S'Defense +2'
p266
sasg75
(dp267
g77
I0
sg78
I0
sg79
I0
ssg80
I00
sg81
g227
sg82
(lp268
I0
aI0
aI0
aI0
aI0
aI24
aI0
asg84
S'Althea'
p269
sg86
I5
sg87
I7
sg88
S'F'
sg89
I0
sg90
S'Mage'
p270
sg92
I62
sg93
S'player'
p271
sg95
(I2
I15
tp272
sa(dp273
g7
S'None'
p274
sg9
(lp275
I95
aI65
aI5
aI60
aI60
aI40
aI55
aI40
asg11
I00
sg12
(lp276
(dp277
g15
Nsg16
I00
sg17
I00
sg18
I13
sg19
I00
sg20
S'Drake'
p278
sg22
S'Steel Sword'
p279
sa(dp280
g15
Nsg16
I00
sg17
I00
sg18
I23
sg19
I00
sg20
g278
sg22
S'Iron Lance'
p281
sa(dp282
g15
Nsg16
I00
sg17
I00
sg18
I3
sg19
I00
sg20
g278
sg22
S'Vulnerary'
p283
sa(dp284
g15
Nsg16
I00
sg17
I00
sg18
I45
sg19
I00
sg20
g278
sg22
S'Iron Sword'
p285
sa(dp286
g15
Nsg16
I00
sg17
I00
sg18
I18
sg19
I00
sg20
g278
sg22
S'Iron Knife'
p287
sasg30
(lp288
I45
aI15
aI55
aI10
aI10
aI90
aI5
aI90
asg32
g33
(g34
g35
NtRp289
(dp290
g38
I0
sg39
I18
sbsg40
(lp291
(I18
I0
tp292
a(I7
I0
tp293
a(I1
I0
tp294
a(I7
I0
tp295
a(I6
I0
tp296
a(I7
I0
tp297
a(I6
I0
tp298
a(I3
I0
tp299
a(I7
I0
tp300
a(I7
I0
tp301
asg52
S'0'
sg54
S'Resistance'
p302
sg56
S"A disgraced Imperial knight now in Althea's service."
p303
sg58
(lp304
sg61
(lp305
(dp306
g64
Nsg65
Nsg66
Nsg67
(lp307
sg69
Nsg70
Nsg22
S'Canto'
p308
sa(dp309
g64
Nsg65
Nsg66
Nsg67
(lp310
sg69
Nsg70
Nsg22
S'Savior'
p311
sasg75
(dp312
g77
I0
sg78
I0
sg79
I0
ssg80
I00
sg81
g278
sg82
(lp313
I20
aI23
aI0
aI0
aI0
aI0
aI0
asg84
S'Drake'
p314
sg86
I2
sg87
I6
sg88
S'M'
sg89
I0
sg90
S'Cavalier'
p315
sg92
I91
sg93
S'player'
p316
sg95
(I1
I14
tp317
sa(dp318
g7
S'None'
p319
sg9
(lp320
I95
aI40
aI60
aI55
aI95
aI65
aI35
aI55
asg11
I00
sg12
(lp321
(dp322
g15
Nsg16
I00
sg17
I00
sg18
I30
sg19
I00
sg20
S'Renae'
p323
sg22
S'Steel Sword'
p324
sa(dp325
g15
Nsg16
I00
sg17
I00
sg18
I23
sg19
I00
sg20
g323
sg22
S'Levin Sword'
p326
sasg30
(lp327
I40
aI30
aI70
aI60
aI40
aI80
aI20
aI60
asg32
g33
(g34
g35
NtRp328
(dp329
g38
I0
sg39
I15
sbsg40
(lp330
(I15
I0
tp331
a(I4
I0
tp332
a(I4
I0
tp333
a(I6
I0
tp334
a(I11
I0
tp335
a(I4
I0
tp336
a(I3
I0
tp337
a(I4
I0
tp338
a(I4
I0
tp339
a(I6
I0
tp340
asg52
S'0'
sg54
S'Kerala'
p341
sg56
S'An energetic thief with a kleptomanic streak.'
p342
sg58
(lp343
sg61
(lp344
(dp345
g64
Nsg65
Nsg66
Nsg67
(lp346
sg69
Nsg70
Nsg22
S'Locktouch'
p347
sa(dp348
g64
Nsg65
Nsg66
Nsg67
(lp349
sg69
Nsg70
Nsg22
S'Steal'
p350
sasg75
(dp351
g77
I0
sg78
I0
sg79
I0
ssg80
I00
sg81
g323
sg82
(lp352
I27
aI0
aI0
aI0
aI0
aI0
aI0
asg84
S'Renae'
p353
sg86
I0
sg87
I6
sg88
S'F'
sg89
I0
sg90
S'Thief'
p354
sg92
I48
sg93
S'player'
p355
sg95
(I2
I16
tp356
sa(dp357
g7
S'None'
p358
sg9
(lp359
I120
aI55
aI25
aI40
aI40
aI45
aI75
aI40
asg11
I00
sg12
(lp360
(dp361
g15
Nsg16
I00
sg17
I00
sg18
I45
sg19
I00
sg20
S'Theo'
p362
sg22
S'Iron Lance'
p363
sa(dp364
g15
Nsg16
I00
sg17
I00
sg18
I27
sg19
I00
sg20
g362
sg22
S'Slim Lance'
p365
sa(dp366
g15
Nsg16
I00
sg17
I00
sg18
I18
sg19
I00
sg20
g362
sg22
S'Javelin'
p367
sa(dp368
g15
Nsg16
I00
sg17
I00
sg18
I3
sg19
I00
sg20
g362
sg22
S'Vulnerary'
p369
sasg30
(lp370
I90
aI60
aI0
aI30
aI30
aI40
aI0
aI30
asg32
g33
(g34
g35
NtRp371
(dp372
g38
I0
sg39
I20
sbsg40
(lp373
(I20
I0
tp374
a(I10
I0
tp375
a(I1
I0
tp376
a(I8
I0
tp377
a(I4
I0
tp378
a(I4
I0
tp379
a(I10
I0
tp380
a(I3
I0
tp381
a(I8
I0
tp382
a(I4
I0
tp383
asg52
S'0'
sg54
S'Resistance'
p384
sg56
S'An avid scholar. Interested in esoteric philosophy.'
p385
sg58
(lp386
sg61
(lp387
(dp388
g64
Nsg65
Nsg66
Nsg67
(lp389
sg69
Nsg70
Nsg22
S'Provoke'
p390
sa(dp391
g64
Nsg65
Nsg66
Nsg67
(lp392
sg69
I0
sg70
Nsg22
S'Shove'
p393
sasg75
(dp394
g77
I0
sg78
I0
sg79
I0
ssg80
I00
sg81
g362
sg82
(lp395
I0
aI31
aI0
aI0
aI0
aI0
aI0
asg84
S'Theo'
p396
sg86
I1
sg87
I6
sg88
S'M'
sg89
I0
sg90
S'Knight'
p397
sg92
I43
sg93
S'player'
p398
sg95
(I0
I14
tp399
sa(dp400
g7
S'None'
p401
sg9
(lp402
I75
aI65
aI65
aI80
aI65
aI35
aI65
aI35
asg11
I00
sg12
(lp403
(dp404
g15
Nsg16
I00
sg17
I00
sg18
I30
sg19
I00
sg20
S'Eliza'
p405
sg22
S'Steel Lance'
p406
sa(dp407
g15
Nsg16
I00
sg17
I00
sg18
I45
sg19
I00
sg20
g405
sg22
S'Iron Lance'
p408
sa(dp409
g15
Nsg16
I00
sg17
I00
sg18
I20
sg19
I00
sg20
g405
sg22
S'Javelin'
p410
sa(dp411
g15
Nsg16
I00
sg17
I00
sg18
I2
sg19
I00
sg20
g405
sg22
S'Vulnerary'
p412
sasg30
(lp413
I75
aI45
aI45
aI90
aI45
aI55
aI45
aI55
asg32
g33
(g34
g35
NtRp414
(dp415
g38
I0
sg39
I15
sbsg40
(lp416
(I15
I0
tp417
a(I5
I0
tp418
a(I2
I0
tp419
a(I6
I0
tp420
a(I8
I0
tp421
a(I4
I0
tp422
a(I5
I0
tp423
a(I2
I0
tp424
a(I5
I0
tp425
a(I5
I0
tp426
asg52
S'0'
sg54
S'Resistance'
p427
sg56
S'A moody, sarcastic soldier.'
p428
sg58
(lp429
sg61
(lp430
(dp431
g64
Nsg65
Nsg66
Nsg67
(lp432
sg69
Nsg70
Nsg22
S'Synergy'
p433
sasg75
(dp434
g77
I0
sg78
I0
sg79
I0
ssg80
I00
sg81
g405
sg82
(lp435
I0
aI28
aI0
aI0
aI0
aI0
aI0
asg84
S'Eliza'
p436
sg86
I4
sg87
I4
sg88
S'F'
sg89
I0
sg90
S'Soldier'
p437
sg92
I80
sg93
S'player'
p438
sg95
(I0
I15
tp439
sa(dp440
g7
S'None'
p441
sg9
(lp442
I65
aI15
aI35
aI45
aI55
aI55
aI40
aI65
asg11
I00
sg12
(lp443
(dp444
g15
Nsg16
I00
sg17
I00
sg18
I25
sg19
I00
sg20
S'Sam'
p445
sg22
S'Shine'
p446
sa(dp447
g15
Nsg16
I00
sg17
I00
sg18
I15
sg19
I00
sg20
g445
sg22
S'Mend'
p448
sa(dp449
g15
Nsg16
I00
sg17
I00
sg18
I10
sg19
I00
sg20
g445
sg22
S'Fortune'
p450
sasg30
(lp451
I50
aI50
aI50
aI50
aI50
aI50
aI50
aI50
asg32
I18
sg40
(lp452
(I18
I0
tp453
a(I3
I0
tp454
a(I7
I0
tp455
a(I8
I0
tp456
a(I9
I0
tp457
a(I7
I0
tp458
a(I3
I0
tp459
a(I7
I0
tp460
a(I6
I0
tp461
a(I5
I0
tp462
asg52
S'Sam'
p463
sg54
S'Resistance'
p464
sg56
S"The resistance's leader. Ambitious and inquisitive."
p465
sg58
(lp466
sg61
(lp467
(dp468
g64
Nsg65
Nsg66
Nsg67
(lp469
sg69
Nsg70
Nsg22
S'Inspiration'
p470
sa(dp471
g64
Nsg65
Nsg66
Nsg67
(lp472
sg69
Nsg70
Nsg22
S'Skill_Aura'
p473
sasg75
(dp474
S'damage'
p475
I0
sS'kills'
p476
I0
sS'healing'
p477
I0
ssg80
I00
sg81
g445
sg82
(lp478
I0
aI0
aI0
aI0
aI31
aI0
aI0
asg84
S'Sam'
p479
sg86
I5
sg87
I7
sg88
S'M'
sg89
I0
sg90
S'Tactician'
p480
sg92
I0
sg93
S'other'
p481
sg95
Nsa(dp482
g7
S'None'
p483
sg9
(lp484
I55
aI5
aI65
aI55
aI45
aI35
aI40
aI55
asg11
I00
sg12
(lp485
(dp486
g15
Nsg16
I00
sg17
I00
sg18
I25
sg19
I00
sg20
S'Kayla'
p487
sg22
S'Nyx'
p488
sa(dp489
g15
Nsg16
I00
sg17
I00
sg18
I10
sg19
I00
sg20
g487
sg22
S'Scathe'
p490
sa(dp491
g15
Nsg16
I00
sg17
I00
sg18
I3
sg19
I00
sg20
g487
sg22
S'Spiritbane'
p492
sasg30
(lp493
I50
aI50
aI50
aI50
aI50
aI50
aI50
aI50
asg32
I19
sg40
(lp494
(I19
I0
tp495
a(I1
I0
tp496
a(I9
I0
tp497
a(I8
I0
tp498
a(I7
I0
tp499
a(I6
I0
tp500
a(I5
I0
tp501
a(I7
I0
tp502
a(I4
I0
tp503
a(I4
I0
tp504
asg52
S'Kayla'
p505
sg54
S'Resistance'
p506
sg56
S'A scheming diplomat from the Confederacy.'
p507
sg58
(lp508
sg61
(lp509
(dp510
g64
Nsg65
Nsg66
Nsg67
(lp511
sg69
Nsg70
Nsg22
S'Hex'
p512
sa(dp513
g64
Nsg65
Nsg66
Nsg67
(lp514
sg69
Nsg70
Nsg22
S'Empowered'
p515
sasg75
(dp516
g475
I0
sg476
I0
sg477
I0
ssg80
I00
sg81
g487
sg82
(lp517
I0
aI0
aI0
aI0
aI0
aI0
aI36
asg84
S'Kayla'
p518
sg86
I5
sg87
I8
sg88
S'F'
sg89
I0
sg90
S'Shaman'
p519
sg92
I0
sg93
S'other'
p520
sg95
Nsa(dp521
g7
S'Pursue'
p522
sg9
(lp523
I105
aI55
aI15
aI55
aI45
aI40
aI25
aI25
asg11
I00
sg12
(lp524
(dp525
g15
Nsg16
I00
sg17
I00
sg18
I30
sg19
I00
sg20
I101
sg22
S'Steel Sword'
p526
sasg30
(lp527
I35
aI85
aI5
aI85
aI15
aI80
aI75
aI75
asg32
I19
sg40
(lp528
(I19
I0
tp529
a(I6
I0
tp530
a(I1
I0
tp531
a(I8
I0
tp532
a(I8
I0
tp533
a(I2
I0
tp534
a(I4
I0
tp535
a(I1
I0
tp536
a(I6
I0
tp537
a(I5
I0
tp538
asg52
S'M1'
p539
sg54
S'Confederacy'
p540
sg56
S"A member of the Confederacy's special forces"
p541
sg58
(lp542
sg61
(lp543
(dp544
g64
Nsg65
Nsg66
Nsg67
(lp545
sg69
Nsg70
Nsg22
S'Initiative'
p546
sa(dp547
g64
Nsg65
Nsg66
Nsg67
(lp548
sg69
Nsg70
Nsg22
S'Resist Status'
p549
sasg75
(dp550
g475
I0
sg476
I0
sg477
I0
ssg80
I00
sg81
I101
sg82
(lp551
I16
aI0
aI0
aI0
aI0
aI0
aI0
asg84
S'Elite'
p552
sg86
I4
sg87
I8
sg88
S'M'
sg89
I0
sg90
S'Mercenary'
p553
sg92
I0
sg93
S'other'
p554
sg95
Nsa(dp555
g7
S'Pursue'
p556
sg9
(lp557
I105
aI55
aI15
aI55
aI45
aI40
aI25
aI25
asg11
I00
sg12
(lp558
(dp559
g15
Nsg16
I00
sg17
I00
sg18
I30
sg19
I00
sg20
I102
sg22
S'Steel Sword'
p560
sasg30
(lp561
I35
aI85
aI5
aI85
aI15
aI80
aI75
aI75
asg32
I19
sg40
(lp562
(I19
I0
tp563
a(I6
I0
tp564
a(I1
I0
tp565
a(I8
I0
tp566
a(I8
I0
tp567
a(I2
I0
tp568
a(I4
I0
tp569
a(I1
I0
tp570
a(I6
I0
tp571
a(I5
I0
tp572
asg52
S'M2'
p573
sg54
g540
sg56
g541
sg58
(lp574
sg61
(lp575
(dp576
g64
Nsg65
Nsg66
Nsg67
(lp577
sg69
Nsg70
Nsg22
g546
sa(dp578
g64
Nsg65
Nsg66
Nsg67
(lp579
sg69
Nsg70
Nsg22
g549
sasg75
(dp580
g475
I0
sg476
I0
sg477
I0
ssg80
I00
sg81
I102
sg82
(lp581
I16
aI0
aI0
aI0
aI0
aI0
aI0
asg84
g552
sg86
I4
sg87
I8
sg88
S'M'
sg89
I0
sg90
S'Mercenary'
p582
sg92
I0
sg93
S'other'
p583
sg95
Nsa(dp584
g7
S'HardGuard'
p585
sg9
(lp586
I0
aI0
aI0
aI0
aI0
aI0
aI0
aI0
asg11
I00
sg12
(lp587
(dp588
g15
Nsg16
I00
sg17
I00
sg18
I25
sg19
I00
sg20
S'Vincent'
p589
sg22
S'Great Axe'
p590
sa(dp591
g15
Nsg16
I00
sg17
I00
sg18
I15
sg19
I00
sg20
g589
sg22
S'Short Axe'
p592
sa(dp593
g15
Nsg16
I00
sg17
I00
sg18
I1
sg19
I00
sg20
g589
sg22
S'Energy Ring'
p594
sasg30
(lp595
I50
aI50
aI50
aI50
aI50
aI50
aI50
aI50
asg32
I29
sg40
(lp596
(I29
I0
tp597
a(I11
I0
tp598
a(I0
I0
tp599
a(I7
I0
tp600
a(I7
I0
tp601
a(I1
I0
tp602
a(I7
I0
tp603
a(I5
I0
tp604
a(I9
I0
tp605
a(I0
I0
tp606
asg52
S'0'
sg54
S'Bandit'
p607
sg56
S'Boss of the Ghat mountain bandits'
p608
sg58
(lp609
S'Boss'
p610
aS'Zero_Move'
p611
asg61
(lp612
(dp613
g64
Nsg65
Nsg66
Nsg67
(lp614
sg69
Nsg70
Nsg22
S'Fleet_of_Foot'
p615
sa(dp616
g64
Nsg65
Nsg66
Nsg67
(lp617
sg69
I0
sg70
Nsg22
S'Shove'
p618
sasg75
(dp619
g475
I0
sg476
I0
sg477
I0
ssg80
I00
sg81
g589
sg82
(lp620
I0
aI0
aI41
aI0
aI0
aI0
aI0
asg84
S'Vincent'
p621
sg86
I0
sg87
I10
sg88
S'M'
sg89
I0
sg90
S'Brigand'
p622
sg92
I0
sg93
S'enemy'
p623
sg95
(I23
I2
tp624
sa(dp625
g7
S'Attack'
p626
sg9
(lp627
I65
aI35
aI0
aI15
aI15
aI15
aI15
aI0
asg11
I00
sg12
(lp628
(dp629
g15
Nsg16
I00
sg17
I00
sg18
I15
sg19
I00
sg20
S'Jules'
p630
sg22
S'Swordreaver'
p631
sa(dp632
g15
Nsg16
I00
sg17
I00
sg18
I30
sg19
I00
sg20
g630
sg22
S'Steel Axe'
p633
sa(dp634
g15
Nsg16
I00
sg17
I00
sg18
I3
sg19
I00
sg20
g630
sg22
S'Elixir'
p635
sasg30
(lp636
I50
aI50
aI50
aI50
aI50
aI50
aI50
aI50
asg32
I28
sg40
(lp637
(I28
I0
tp638
a(I10
I0
tp639
a(I5
I0
tp640
a(I9
I0
tp641
a(I9
I0
tp642
a(I4
I0
tp643
a(I5
I0
tp644
a(I7
I0
tp645
a(I9
I0
tp646
a(I5
I0
tp647
asg52
S'0'
sg54
S'Bandit'
p648
sg56
S'Boss of the Ghat mountain bandits.'
p649
sg58
(lp650
S'Boss'
p651
asg61
(lp652
(dp653
g64
Nsg65
Nsg66
Nsg67
(lp654
sg69
Nsg70
Nsg22
g615
sa(dp655
g64
Nsg65
Nsg66
Nsg67
(lp656
sg69
I0
sg70
Nsg22
g618
sasg75
(dp657
g475
I0
sg476
I0
sg477
I0
ssg80
I00
sg81
g630
sg82
(lp658
I0
aI0
aI41
aI0
aI0
aI0
aI0
asg84
S'Jules'
p659
sg86
I0
sg87
I10
sg88
S'M'
sg89
I0
sg90
S'Brigand'
p660
sg92
I0
sg93
S'enemy'
p661
sg95
(I9
I5
tp662
sa(dp663
g7
S'HardGuard'
p664
sg9
(lp665
I100
aI0
aI50
aI50
aI50
aI100
aI0
aI100
asg11
I00
sg12
(lp666
(dp667
g15
Nsg16
I00
sg17
I00
sg18
I15
sg19
I00
sg20
S'Vagnius'
p668
sg22
S'Ruin'
p669
sa(dp670
g15
Nsg16
I00
sg17
I01
sg18
I1
sg19
I00
sg20
g668
sg22
S'Mana Ring'
p671
sasg30
(lp672
I50
aI50
aI50
aI50
aI50
aI50
aI50
aI50
asg32
I34
sg40
(lp673
(I34
I0
tp674
a(I3
I0
tp675
a(I15
I2
tp676
a(I14
I0
tp677
a(I13
I0
tp678
a(I7
I0
tp679
a(I11
I0
tp680
a(I13
I0
tp681
a(I7
I0
tp682
a(I5
I0
tp683
asg52
S'0'
sg54
S'Empire'
p684
sg56
S'Ruthless and cunning Imperial warlock.'
p685
sg58
(lp686
sg61
(lp687
(dp688
g64
Nsg65
Nsg66
Nsg67
(lp689
sg69
Nsg70
Nsg22
g512
sa(dp690
g64
Nsg65
Nsg66
Nsg67
(lp691
sg69
Nsg70
Nsg22
g515
sa(dp692
g64
Nsg65
Nsg66
Nsg67
(lp693
sg69
I0
sg70
Nsg22
S'Gate'
p694
sa(dp695
g64
Nsg65
Nsg66
Nsg67
(lp696
sg69
Nsg70
Nsg22
S'fMagic +2'
p697
sasg75
(dp698
g475
I0
sg476
I0
sg477
I0
ssg80
I00
sg81
g668
sg82
(lp699
I0
aI0
aI0
aI0
aI0
aI0
aI76
asg84
S'Vagnius'
p700
sg86
I5
sg87
I18
sg88
S'M'
sg89
I0
sg90
S'Warlock'
p701
sg92
I0
sg93
S'enemy'
p702
sg95
Nsa(dp703
g7
S'Attack_5'
p704
sg9
(lp705
I110
aI65
aI0
aI40
aI25
aI20
aI15
aI15
asg11
I00
sg12
(lp706
(dp707
g15
Nsg16
I00
sg17
I00
sg18
I45
sg19
I00
sg20
I103
sg22
S'Iron Axe'
p708
sasg30
(lp709
I50
aI25
aI0
aI0
aI25
aI0
aI75
aI75
asg32
I18
sg40
(lp710
(I18
I0
tp711
a(I6
I0
tp712
a(I0
I0
tp713
a(I3
I0
tp714
a(I4
I0
tp715
a(I1
I0
tp716
a(I2
I0
tp717
a(I0
I0
tp718
a(I8
I0
tp719
a(I5
I0
tp720
asg52
S'0'
sg54
S'Bandit'
p721
sg56
S'A Bandit hailing from the Ghat mountains'
p722
sg58
(lp723
sg61
(lp724
(dp725
g64
Nsg65
Nsg66
Nsg67
(lp726
sg69
Nsg70
Nsg22
g615
sa(dp727
g64
Nsg65
Nsg66
Nsg67
(lp728
sg69
I0
sg70
Nsg22
g618
sasg75
(dp729
g475
I0
sg476
I0
sg477
I0
ssg80
I00
sg81
I103
sg82
(lp730
I0
aI0
aI1
aI0
aI0
aI0
aI0
asg84
S'Bandit'
p731
sg86
I0
sg87
I6
sg88
S'M'
sg89
I0
sg90
S'Brigand'
p732
sg92
I0
sg93
S'enemy'
p733
sg95
(I0
I2
tp734
sa(dp735
g7
S'Attack_5'
p736
sg9
(lp737
I110
aI65
aI0
aI40
aI25
aI20
aI15
aI15
asg11
I00
sg12
(lp738
(dp739
g15
Nsg16
I00
sg17
I00
sg18
I30
sg19
I00
sg20
I104
sg22
S'Steel Axe'
p740
sasg30
(lp741
I50
aI25
aI0
aI0
aI25
aI0
aI75
aI75
asg32
I18
sg40
(lp742
(I18
I0
tp743
a(I6
I0
tp744
a(I0
I0
tp745
a(I3
I0
tp746
a(I4
I0
tp747
a(I1
I0
tp748
a(I2
I0
tp749
a(I0
I0
tp750
a(I8
I0
tp751
a(I5
I0
tp752
asg52
S'0'
sg54
g721
sg56
g722
sg58
(lp753
sg61
(lp754
(dp755
g64
Nsg65
Nsg66
Nsg67
(lp756
sg69
Nsg70
Nsg22
g615
sa(dp757
g64
Nsg65
Nsg66
Nsg67
(lp758
sg69
I0
sg70
Nsg22
g618
sasg75
(dp759
g475
I0
sg476
I0
sg477
I0
ssg80
I00
sg81
I104
sg82
(lp760
I0
aI0
aI16
aI0
aI0
aI0
aI0
asg84
g731
sg86
I0
sg87
I6
sg88
S'M'
sg89
I0
sg90
S'Brigand'
p761
sg92
I0
sg93
S'enemy'
p762
sg95
(I1
I3
tp763
sa(dp764
g7
S'Attack_5'
p765
sg9
(lp766
I110
aI65
aI0
aI40
aI25
aI20
aI15
aI15
asg11
I00
sg12
(lp767
(dp768
g15
Nsg16
I00
sg17
I00
sg18
I45
sg19
I00
sg20
I105
sg22
S'Iron Axe'
p769
sasg30
(lp770
I50
aI25
aI0
aI0
aI25
aI0
aI75
aI75
asg32
I18
sg40
(lp771
(I18
I0
tp772
a(I6
I0
tp773
a(I0
I0
tp774
a(I3
I0
tp775
a(I4
I0
tp776
a(I1
I0
tp777
a(I2
I0
tp778
a(I0
I0
tp779
a(I8
I0
tp780
a(I5
I0
tp781
asg52
S'0'
sg54
g721
sg56
g722
sg58
(lp782
sg61
(lp783
(dp784
g64
Nsg65
Nsg66
Nsg67
(lp785
sg69
Nsg70
Nsg22
g615
sa(dp786
g64
Nsg65
Nsg66
Nsg67
(lp787
sg69
I0
sg70
Nsg22
g618
sasg75
(dp788
g475
I0
sg476
I0
sg477
I0
ssg80
I00
sg81
I105
sg82
(lp789
I0
aI0
aI1
aI0
aI0
aI0
aI0
asg84
g731
sg86
I0
sg87
I6
sg88
S'M'
sg89
I0
sg90
S'Brigand'
p790
sg92
I0
sg93
S'enemy'
p791
sg95
(I2
I2
tp792
sa(dp793
g7
S'Attack'
p794
sg9
(lp795
I65
aI20
aI65
aI45
aI40
aI25
aI25
aI55
asg11
I00
sg12
(lp796
(dp797
g15
Nsg16
I00
sg17
I00
sg18
I10
sg19
I00
sg20
I106
sg22
S'Scathe'
p798
sa(dp799
g15
Nsg16
I00
sg17
I00
sg18
I3
sg19
I00
sg20
I106
sg22
S'Vulnerary'
p800
sasg30
(lp801
I95
aI60
aI95
aI35
aI20
aI75
aI75
aI65
asg32
I12
sg40
(lp802
(I12
I0
tp803
a(I1
I0
tp804
a(I3
I0
tp805
a(I2
I0
tp806
a(I2
I0
tp807
a(I0
I0
tp808
a(I1
I0
tp809
a(I4
I0
tp810
a(I5
I0
tp811
a(I4
I0
tp812
asg52
S'0'
sg54
S'Empire'
p813
sg56
S"The Empire's elite guard"
p814
sg58
(lp815
sg61
(lp816
(dp817
g64
Nsg65
Nsg66
Nsg67
(lp818
sg69
Nsg70
Nsg22
g512
sasg75
(dp819
g475
I0
sg476
I0
sg477
I0
ssg80
I00
sg81
I106
sg82
(lp820
I0
aI0
aI0
aI0
aI0
aI0
aI16
asg84
S'Claw'
p821
sg86
I5
sg87
I4
sg88
S'M'
sg89
I0
sg90
S'Shaman'
p822
sg92
I0
sg93
S'enemy'
p823
sg95
(I6
I1
tp824
sa(dp825
g7
S'SoftGuard'
p826
sg9
(lp827
I75
aI15
aI65
aI45
aI65
aI40
aI20
aI45
asg11
I00
sg12
(lp828
(dp829
g15
Nsg16
I00
sg17
I00
sg18
I30
sg19
I00
sg20
I107
sg22
S'Fire'
p830
sasg30
(lp831
I25
aI45
aI95
aI35
aI95
aI20
aI60
aI35
asg32
I13
sg40
(lp832
(I13
I0
tp833
a(I0
I0
tp834
a(I2
I0
tp835
a(I2
I0
tp836
a(I3
I0
tp837
a(I1
I0
tp838
a(I1
I0
tp839
a(I3
I0
tp840
a(I4
I0
tp841
a(I5
I0
tp842
asg52
S'0'
sg54
g721
sg56
g722
sg58
(lp843
sg61
(lp844
(dp845
g64
Nsg65
Nsg66
Nsg67
(lp846
sg69
Nsg70
Nsg22
S'Focus'
p847
sasg75
(dp848
g475
I0
sg476
I0
sg477
I0
ssg80
I00
sg81
I107
sg82
(lp849
I0
aI0
aI0
aI0
aI0
aI1
aI0
asg84
g731
sg86
I5
sg87
I4
sg88
S'M'
sg89
I0
sg90
S'Mage'
p850
sg92
I0
sg93
S'enemy'
p851
sg95
(I5
I5
tp852
sa(dp853
g7
S'Attack'
p854
sg9
(lp855
I75
aI15
aI65
aI45
aI65
aI40
aI20
aI45
asg11
I00
sg12
(lp856
(dp857
g15
Nsg16
I00
sg17
I00
sg18
I30
sg19
I00
sg20
I108
sg22
S'Wind'
p858
sa(dp859
g15
Nsg16
I00
sg17
I01
sg18
I1
sg19
I00
sg20
I108
sg22
S'Speedwings'
p860
sasg30
(lp861
I25
aI45
aI95
aI35
aI95
aI20
aI60
aI35
asg32
I13
sg40
(lp862
(I13
I0
tp863
a(I0
I0
tp864
a(I2
I0
tp865
a(I2
I0
tp866
a(I3
I2
tp867
a(I1
I0
tp868
a(I1
I0
tp869
a(I3
I0
tp870
a(I4
I0
tp871
a(I5
I0
tp872
asg52
S'0'
sg54
g721
sg56
g722
sg58
(lp873
sg61
(lp874
(dp875
g64
Nsg65
Nsg66
Nsg67
(lp876
sg69
Nsg70
Nsg22
S'Speed +2'
p877
sa(dp878
g64
Nsg65
Nsg66
Nsg67
(lp879
sg69
Nsg70
Nsg22
g847
sasg75
(dp880
g475
I0
sg476
I0
sg477
I0
ssg80
I00
sg81
I108
sg82
(lp881
I0
aI0
aI0
aI0
aI0
aI1
aI0
asg84
g731
sg86
I5
sg87
I4
sg88
S'M'
sg89
I0
sg90
S'Mage'
p882
sg92
I0
sg93
S'enemy'
p883
sg95
(I6
I7
tp884
sa(dp885
g7
S'SoftGuard_4'
p886
sg9
(lp887
I95
aI45
aI35
aI55
aI55
aI40
aI20
aI25
asg11
I00
sg12
(lp888
(dp889
g15
Nsg16
I00
sg17
I00
sg18
I45
sg19
I00
sg20
I109
sg22
S'Iron Sword'
p890
sasg30
(lp891
I80
aI80
aI40
aI20
aI20
aI60
aI80
aI0
asg32
I14
sg40
(lp892
(I14
I0
tp893
a(I4
I0
tp894
a(I2
I0
tp895
a(I8
I0
tp896
a(I9
I0
tp897
a(I1
I0
tp898
a(I1
I0
tp899
a(I2
I0
tp900
a(I5
I0
tp901
a(I5
I0
tp902
asg52
S'0'
sg54
g721
sg56
g722
sg58
(lp903
sg61
(lp904
(dp905
g64
Nsg65
Nsg66
Nsg67
(lp906
sg69
Nsg70
Nsg22
S'Riposte'
p907
sa(dp908
g64
Nsg65
Nsg66
Nsg67
(lp909
sg69
Nsg70
Nsg22
S'Vantage'
p910
sasg75
(dp911
g475
I0
sg476
I0
sg477
I0
ssg80
I00
sg81
I109
sg82
(lp912
I1
aI0
aI0
aI0
aI0
aI0
aI0
asg84
g731
sg86
I0
sg87
I5
sg88
S'M'
sg89
I0
sg90
S'Myrmidon'
p913
sg92
I0
sg93
S'enemy'
p914
sg95
(I7
I14
tp915
sa(dp916
g7
S'Attack_4'
p917
sg9
(lp918
I85
aI45
aI35
aI55
aI105
aI45
aI15
aI45
asg11
I00
sg12
(lp919
(dp920
g15
Nsg16
I00
sg17
I00
sg18
I45
sg19
I00
sg20
I110
sg22
S'Iron Lance'
p921
sasg30
(lp922
I40
aI80
aI40
aI20
aI20
aI80
aI60
aI80
asg32
I12
sg40
(lp923
(I12
I0
tp924
a(I3
I0
tp925
a(I3
I0
tp926
a(I5
I0
tp927
a(I7
I0
tp928
a(I1
I0
tp929
a(I1
I0
tp930
a(I3
I0
tp931
a(I4
I0
tp932
a(I6
I0
tp933
asg52
S'0'
sg54
g721
sg56
g722
sg58
(lp934
sg61
(lp935
(dp936
g64
Nsg65
Nsg66
Nsg67
(lp937
sg69
Nsg70
Nsg22
S'Fleet_of_Foot'
p938
sa(dp939
g64
Nsg65
Nsg66
Nsg67
(lp940
sg69
Nsg70
Nsg22
S'Evasion'
p941
sasg75
(dp942
g475
I0
sg476
I0
sg477
I0
ssg80
I00
sg81
I110
sg82
(lp943
I0
aI1
aI0
aI0
aI0
aI0
aI0
asg84
g731
sg86
I0
sg87
I5
sg88
S'M'
sg89
I0
sg90
S'Skirmisher'
p944
sg92
I0
sg93
S'enemy'
p945
sg95
(I9
I12
tp946
sa(dp947
g7
S'Attack_4'
p948
sg9
(lp949
I85
aI45
aI35
aI55
aI105
aI45
aI15
aI45
asg11
I00
sg12
(lp950
(dp951
g15
Nsg16
I00
sg17
I00
sg18
I45
sg19
I00
sg20
I111
sg22
S'Iron Lance'
p952
sasg30
(lp953
I40
aI80
aI40
aI20
aI20
aI80
aI60
aI80
asg32
I12
sg40
(lp954
(I12
I0
tp955
a(I3
I0
tp956
a(I3
I0
tp957
a(I5
I0
tp958
a(I7
I0
tp959
a(I1
I0
tp960
a(I1
I0
tp961
a(I3
I0
tp962
a(I4
I0
tp963
a(I6
I0
tp964
asg52
S'0'
sg54
g721
sg56
g722
sg58
(lp965
sg61
(lp966
(dp967
g64
Nsg65
Nsg66
Nsg67
(lp968
sg69
Nsg70
Nsg22
g938
sa(dp969
g64
Nsg65
Nsg66
Nsg67
(lp970
sg69
Nsg70
Nsg22
g941
sasg75
(dp971
g475
I0
sg476
I0
sg477
I0
ssg80
I00
sg81
I111
sg82
(lp972
I0
aI1
aI0
aI0
aI0
aI0
aI0
asg84
g731
sg86
I0
sg87
I5
sg88
S'M'
sg89
I0
sg90
S'Skirmisher'
p973
sg92
I0
sg93
S'enemy'
p974
sg95
(I10
I13
tp975
sa(dp976
g7
S'Attack_4'
p977
sg9
(lp978
I75
aI15
aI65
aI45
aI65
aI40
aI20
aI45
asg11
I00
sg12
(lp979
(dp980
g15
Nsg16
I00
sg17
I00
sg18
I30
sg19
I00
sg20
I112
sg22
S'Earth'
p981
sa(dp982
g15
Nsg16
I00
sg17
I00
sg18
I10
sg19
I00
sg20
I112
sg22
S'Sandblast'
p983
sasg30
(lp984
I0
aI60
aI60
aI80
aI60
aI60
aI80
aI80
asg32
I14
sg40
(lp985
(I14
I0
tp986
a(I0
I0
tp987
a(I3
I0
tp988
a(I2
I0
tp989
a(I4
I-2
tp990
a(I1
I0
tp991
a(I1
I2
tp992
a(I3
I2
tp993
a(I4
I0
tp994
a(I5
I0
tp995
asg52
S'0'
sg54
g721
sg56
g722
sg58
(lp996
sg61
(lp997
(dp998
g64
Nsg65
Nsg66
Nsg67
(lp999
sg69
Nsg70
Nsg22
S'Speed -2'
p1000
sa(dp1001
g64
Nsg65
Nsg66
Nsg67
(lp1002
sg69
Nsg70
Nsg22
S'Defense +2'
p1003
sa(dp1004
g64
Nsg65
Nsg66
Nsg67
(lp1005
sg69
Nsg70
Nsg22
g847
sa(dp1006
g64
Nsg65
Nsg66
Nsg67
(lp1007
sg69
Nsg70
Nsg22
S'fResistance +2'
p1008
sasg75
(dp1009
g475
I0
sg476
I0
sg477
I0
ssg80
I00
sg81
I112
sg82
(lp1010
I0
aI0
aI0
aI0
aI0
aI16
aI0
asg84
g731
sg86
I5
sg87
I5
sg88
S'M'
sg89
I0
sg90
S'Mage'
p1011
sg92
I0
sg93
S'enemy'
p1012
sg95
(I11
I14
tp1013
sa(dp1014
g7
S'Attack_4'
p1015
sg9
(lp1016
I95
aI45
aI35
aI55
aI55
aI40
aI20
aI25
asg11
I00
sg12
(lp1017
(dp1018
g15
Nsg16
I00
sg17
I01
sg18
I15
sg19
I00
sg20
I113
sg22
S'Lancereaver'
p1019
sasg30
(lp1020
I80
aI80
aI40
aI20
aI20
aI60
aI80
aI0
asg32
I14
sg40
(lp1021
(I14
I0
tp1022
a(I4
I0
tp1023
a(I2
I0
tp1024
a(I8
I0
tp1025
a(I9
I0
tp1026
a(I1
I0
tp1027
a(I1
I0
tp1028
a(I2
I0
tp1029
a(I5
I0
tp1030
a(I5
I0
tp1031
asg52
S'0'
sg54
g721
sg56
g722
sg58
(lp1032
sg61
(lp1033
(dp1034
g64
Nsg65
Nsg66
Nsg67
(lp1035
sg69
Nsg70
Nsg22
g907
sa(dp1036
g64
Nsg65
Nsg66
Nsg67
(lp1037
sg69
Nsg70
Nsg22
g910
sasg75
(dp1038
g475
I0
sg476
I0
sg477
I0
ssg80
I00
sg81
I113
sg82
(lp1039
I41
aI0
aI0
aI0
aI0
aI0
aI0
asg84
g731
sg86
I0
sg87
I5
sg88
S'M'
sg89
I0
sg90
S'Myrmidon'
p1040
sg92
I0
sg93
S'enemy'
p1041
sg95
(I10
I10
tp1042
sa(dp1043
g7
S'SoftGuard'
p1044
sg9
(lp1045
I75
aI15
aI65
aI45
aI65
aI40
aI20
aI45
asg11
I00
sg12
(lp1046
(dp1047
g15
Nsg16
I00
sg17
I00
sg18
I30
sg19
I00
sg20
I114
sg22
S'Wind'
p1048
sa(dp1049
g15
Nsg16
I00
sg17
I01
sg18
I15
sg19
I00
sg20
I114
sg22
S'Fly'
p1050
sasg30
(lp1051
I75
aI75
aI25
aI25
aI25
aI0
aI0
aI25
asg32
I14
sg40
(lp1052
(I14
I0
tp1053
a(I0
I0
tp1054
a(I4
I0
tp1055
a(I3
I0
tp1056
a(I5
I2
tp1057
a(I2
I0
tp1058
a(I2
I2
tp1059
a(I4
I0
tp1060
a(I4
I0
tp1061
a(I5
I0
tp1062
asg52
S'0'
sg54
g721
sg56
g722
sg58
(lp1063
sg61
(lp1064
(dp1065
g64
Nsg65
Nsg66
Nsg67
(lp1066
sg69
Nsg70
Nsg22
g877
sa(dp1067
g64
Nsg65
Nsg66
Nsg67
(lp1068
sg69
Nsg70
Nsg22
g847
sa(dp1069
g64
Nsg65
Nsg66
Nsg67
(lp1070
sg69
Nsg70
Nsg22
S'fDefense +2'
p1071
sasg75
(dp1072
g475
I0
sg476
I0
sg477
I0
ssg80
I00
sg81
I114
sg82
(lp1073
I0
aI0
aI0
aI0
aI0
aI16
aI0
asg84
g731
sg86
I5
sg87
I6
sg88
S'M'
sg89
I0
sg90
S'Mage'
p1074
sg92
I0
sg93
S'enemy'
p1075
sg95
(I12
I2
tp1076
sa(dp1077
g7
S'SoftGuard'
p1078
sg9
(lp1079
I95
aI45
aI40
aI55
aI45
aI45
aI20
aI25
asg11
I00
sg12
(lp1080
(dp1081
g15
Nsg16
I00
sg17
I00
sg18
I45
sg19
I00
sg20
I115
sg22
S'Willow Bow'
p1082
sasg30
(lp1083
I85
aI35
aI20
aI65
aI35
aI35
aI60
aI75
asg32
I14
sg40
(lp1084
(I14
I0
tp1085
a(I4
I0
tp1086
a(I1
I0
tp1087
a(I3
I0
tp1088
a(I4
I0
tp1089
a(I1
I0
tp1090
a(I2
I0
tp1091
a(I0
I0
tp1092
a(I4
I0
tp1093
a(I5
I0
tp1094
asg52
S'0'
sg54
g721
sg56
g722
sg58
(lp1095
sg61
(lp1096
(dp1097
g64
Nsg65
Nsg66
Nsg67
(lp1098
sg69
Nsg70
Nsg22
S'Prescience'
p1099
sasg75
(dp1100
g475
I0
sg476
I0
sg477
I0
ssg80
I00
sg81
I115
sg82
(lp1101
I0
aI0
aI0
aI1
aI0
aI0
aI0
asg84
g731
sg86
I0
sg87
I4
sg88
S'M'
sg89
I0
sg90
S'Archer'
p1102
sg92
I0
sg93
S'enemy'
p1103
sg95
(I10
I7
tp1104
sa(dp1105
g7
S'Attack'
p1106
sg9
(lp1107
I75
aI15
aI65
aI45
aI65
aI40
aI20
aI45
asg11
I00
sg12
(lp1108
(dp1109
g15
Nsg16
I00
sg17
I00
sg18
I30
sg19
I00
sg20
I116
sg22
S'Earth'
p1110
sa(dp1111
g15
Nsg16
I00
sg17
I00
sg18
I10
sg19
I00
sg20
I116
sg22
S'Sandblast'
p1112
sasg30
(lp1113
I25
aI45
aI95
aI35
aI95
aI20
aI60
aI35
asg32
I13
sg40
(lp1114
(I13
I0
tp1115
a(I0
I0
tp1116
a(I2
I0
tp1117
a(I2
I0
tp1118
a(I3
I-2
tp1119
a(I1
I0
tp1120
a(I1
I2
tp1121
a(I3
I0
tp1122
a(I4
I0
tp1123
a(I5
I0
tp1124
asg52
S'0'
sg54
g721
sg56
g722
sg58
(lp1125
sg61
(lp1126
(dp1127
g64
Nsg65
Nsg66
Nsg67
(lp1128
sg69
Nsg70
Nsg22
S'Speed -2'
p1129
sa(dp1130
g64
Nsg65
Nsg66
Nsg67
(lp1131
sg69
Nsg70
Nsg22
S'Defense +2'
p1132
sa(dp1133
g64
Nsg65
Nsg66
Nsg67
(lp1134
sg69
Nsg70
Nsg22
g847
sasg75
(dp1135
g475
I0
sg476
I0
sg477
I0
ssg80
I00
sg81
I116
sg82
(lp1136
I0
aI0
aI0
aI0
aI0
aI16
aI0
asg84
g731
sg86
I5
sg87
I4
sg88
S'M'
sg89
I0
sg90
S'Mage'
p1137
sg92
I0
sg93
S'enemy'
p1138
sg95
(I14
I1
tp1139
sa(dp1140
g7
S'Attack_3'
p1141
sg9
(lp1142
I95
aI45
aI35
aI55
aI55
aI40
aI20
aI25
asg11
I00
sg12
(lp1143
(dp1144
g15
Nsg16
I00
sg17
I00
sg18
I30
sg19
I00
sg20
I117
sg22
S'Steel Sword'
p1145
sa(dp1146
g15
Nsg16
I00
sg17
I00
sg18
I3
sg19
I00
sg20
I117
sg22
S'Potion'
p1147
sasg30
(lp1148
I70
aI70
aI10
aI30
aI30
aI40
aI20
aI50
asg32
I16
sg40
(lp1149
(I16
I0
tp1150
a(I5
I0
tp1151
a(I3
I0
tp1152
a(I9
I0
tp1153
a(I10
I0
tp1154
a(I2
I0
tp1155
a(I2
I0
tp1156
a(I2
I0
tp1157
a(I5
I0
tp1158
a(I5
I0
tp1159
asg52
S'0'
sg54
g721
sg56
g722
sg58
(lp1160
sg61
(lp1161
(dp1162
g64
Nsg65
Nsg66
Nsg67
(lp1163
sg69
Nsg70
Nsg22
g907
sa(dp1164
g64
Nsg65
Nsg66
Nsg67
(lp1165
sg69
Nsg70
Nsg22
g910
sasg75
(dp1166
g475
I0
sg476
I0
sg477
I0
ssg80
I00
sg81
I117
sg82
(lp1167
I16
aI0
aI0
aI0
aI0
aI0
aI0
asg84
g731
sg86
I0
sg87
I7
sg88
S'M'
sg89
I0
sg90
S'Myrmidon'
p1168
sg92
I0
sg93
S'enemy'
p1169
sg95
(I17
I12
tp1170
sa(dp1171
g7
S'Attack_3'
p1172
sg9
(lp1173
I95
aI45
aI35
aI55
aI55
aI40
aI20
aI25
asg11
I00
sg12
(lp1174
(dp1175
g15
Nsg16
I00
sg17
I00
sg18
I30
sg19
I00
sg20
I118
sg22
S'Steel Sword'
p1176
sa(dp1177
g15
Nsg16
I00
sg17
I00
sg18
I3
sg19
I00
sg20
I118
sg22
S'Potion'
p1178
sasg30
(lp1179
I70
aI70
aI10
aI30
aI30
aI40
aI20
aI50
asg32
I16
sg40
(lp1180
(I16
I0
tp1181
a(I5
I0
tp1182
a(I3
I0
tp1183
a(I9
I0
tp1184
a(I10
I0
tp1185
a(I2
I0
tp1186
a(I2
I0
tp1187
a(I2
I0
tp1188
a(I5
I0
tp1189
a(I5
I0
tp1190
asg52
S'0'
sg54
g721
sg56
g722
sg58
(lp1191
sg61
(lp1192
(dp1193
g64
Nsg65
Nsg66
Nsg67
(lp1194
sg69
Nsg70
Nsg22
g907
sa(dp1195
g64
Nsg65
Nsg66
Nsg67
(lp1196
sg69
Nsg70
Nsg22
g910
sasg75
(dp1197
g475
I0
sg476
I0
sg477
I0
ssg80
I00
sg81
I118
sg82
(lp1198
I16
aI0
aI0
aI0
aI0
aI0
aI0
asg84
g731
sg86
I0
sg87
I7
sg88
S'M'
sg89
I0
sg90
S'Myrmidon'
p1199
sg92
I0
sg93
S'enemy'
p1200
sg95
(I18
I11
tp1201
sa(dp1202
g7
S'Attack_2'
p1203
sg9
(lp1204
I85
aI45
aI35
aI55
aI105
aI45
aI15
aI45
asg11
I00
sg12
(lp1205
(dp1206
g15
Nsg16
I00
sg17
I01
sg18
I20
sg19
I00
sg20
I119
sg22
S'Mithril Lance'
p1207
sasg30
(lp1208
I40
aI80
aI40
aI20
aI20
aI80
aI60
aI80
asg32
I12
sg40
(lp1209
(I12
I0
tp1210
a(I3
I0
tp1211
a(I3
I0
tp1212
a(I5
I0
tp1213
a(I7
I0
tp1214
a(I1
I0
tp1215
a(I1
I0
tp1216
a(I3
I0
tp1217
a(I4
I0
tp1218
a(I6
I0
tp1219
asg52
S'0'
sg54
g721
sg56
g722
sg58
(lp1220
sg61
(lp1221
(dp1222
g64
Nsg65
Nsg66
Nsg67
(lp1223
sg69
Nsg70
Nsg22
g938
sa(dp1224
g64
Nsg65
Nsg66
Nsg67
(lp1225
sg69
Nsg70
Nsg22
g941
sasg75
(dp1226
g475
I0
sg476
I0
sg477
I0
ssg80
I00
sg81
I119
sg82
(lp1227
I0
aI41
aI0
aI0
aI0
aI0
aI0
asg84
g731
sg86
I0
sg87
I5
sg88
S'M'
sg89
I0
sg90
S'Skirmisher'
p1228
sg92
I0
sg93
S'enemy'
p1229
sg95
(I15
I15
tp1230
sa(dp1231
g7
S'Attack_2'
p1232
sg9
(lp1233
I85
aI45
aI35
aI55
aI105
aI45
aI15
aI45
asg11
I00
sg12
(lp1234
(dp1235
g15
Nsg16
I00
sg17
I00
sg18
I20
sg19
I00
sg20
I120
sg22
S'Javelin'
p1236
sasg30
(lp1237
I40
aI80
aI40
aI20
aI20
aI80
aI60
aI80
asg32
I12
sg40
(lp1238
(I12
I0
tp1239
a(I3
I0
tp1240
a(I3
I0
tp1241
a(I5
I0
tp1242
a(I7
I0
tp1243
a(I1
I0
tp1244
a(I1
I0
tp1245
a(I3
I0
tp1246
a(I4
I0
tp1247
a(I6
I0
tp1248
asg52
S'0'
sg54
g721
sg56
g722
sg58
(lp1249
sg61
(lp1250
(dp1251
g64
Nsg65
Nsg66
Nsg67
(lp1252
sg69
Nsg70
Nsg22
g938
sa(dp1253
g64
Nsg65
Nsg66
Nsg67
(lp1254
sg69
Nsg70
Nsg22
g941
sasg75
(dp1255
g475
I0
sg476
I0
sg477
I0
ssg80
I00
sg81
I120
sg82
(lp1256
I0
aI1
aI0
aI0
aI0
aI0
aI0
asg84
g731
sg86
I0
sg87
I5
sg88
S'M'
sg89
I0
sg90
S'Skirmisher'
p1257
sg92
I0
sg93
S'enemy'
p1258
sg95
(I16
I16
tp1259
sa(dp1260
g7
S'SoftGuard'
p1261
sg9
(lp1262
I95
aI45
aI40
aI55
aI45
aI45
aI20
aI25
asg11
I00
sg12
(lp1263
(dp1264
g15
Nsg16
I00
sg17
I00
sg18
I40
sg19
I00
sg20
I121
sg22
S'Poison Bow'
p1265
sasg30
(lp1266
I80
aI80
aI60
aI20
aI80
aI80
aI80
aI0
asg32
I15
sg40
(lp1267
(I15
I0
tp1268
a(I4
I0
tp1269
a(I1
I0
tp1270
a(I4
I0
tp1271
a(I4
I0
tp1272
a(I1
I0
tp1273
a(I2
I0
tp1274
a(I1
I0
tp1275
a(I4
I0
tp1276
a(I5
I0
tp1277
asg52
S'0'
sg54
g721
sg56
g722
sg58
(lp1278
sg61
(lp1279
(dp1280
g64
Nsg65
Nsg66
Nsg67
(lp1281
sg69
Nsg70
Nsg22
g1099
sa(dp1282
g64
Nsg65
Nsg66
Nsg67
(lp1283
sg69
I0
sg70
Nsg22
S'Critical'
p1284
sasg75
(dp1285
g475
I0
sg476
I0
sg477
I0
ssg80
I00
sg81
I121
sg82
(lp1286
I0
aI0
aI0
aI1
aI0
aI0
aI0
asg84
g731
sg86
I0
sg87
I5
sg88
S'M'
sg89
I0
sg90
S'Archer'
p1287
sg92
I0
sg93
S'enemy'
p1288
sg95
(I15
I5
tp1289
sa(dp1290
g7
S'SoftGuard'
p1291
sg9
(lp1292
I95
aI45
aI40
aI55
aI45
aI45
aI20
aI25
asg11
I00
sg12
(lp1293
(dp1294
g15
Nsg16
I00
sg17
I00
sg18
I40
sg19
I00
sg20
I122
sg22
S'Poison Bow'
p1295
sasg30
(lp1296
I80
aI80
aI60
aI20
aI80
aI80
aI80
aI0
asg32
I15
sg40
(lp1297
(I15
I0
tp1298
a(I4
I0
tp1299
a(I1
I0
tp1300
a(I4
I0
tp1301
a(I4
I0
tp1302
a(I1
I0
tp1303
a(I2
I0
tp1304
a(I1
I0
tp1305
a(I4
I0
tp1306
a(I5
I0
tp1307
asg52
S'0'
sg54
g721
sg56
g722
sg58
(lp1308
sg61
(lp1309
(dp1310
g64
Nsg65
Nsg66
Nsg67
(lp1311
sg69
Nsg70
Nsg22
g1099
sa(dp1312
g64
Nsg65
Nsg66
Nsg67
(lp1313
sg69
I0
sg70
Nsg22
g1284
sasg75
(dp1314
g475
I0
sg476
I0
sg477
I0
ssg80
I00
sg81
I122
sg82
(lp1315
I0
aI0
aI0
aI1
aI0
aI0
aI0
asg84
g731
sg86
I0
sg87
I5
sg88
S'M'
sg89
I0
sg90
S'Archer'
p1316
sg92
I0
sg93
S'enemy'
p1317
sg95
(I18
I7
tp1318
sa(dp1319
g7
S'Attack'
p1320
sg9
(lp1321
I75
aI15
aI65
aI45
aI65
aI40
aI20
aI45
asg11
I00
sg12
(lp1322
(dp1323
g15
Nsg16
I00
sg17
I00
sg18
I30
sg19
I00
sg20
I123
sg22
S'Fire'
p1324
sasg30
(lp1325
I50
aI90
aI90
aI70
aI90
aI40
aI20
aI70
asg32
I15
sg40
(lp1326
(I15
I0
tp1327
a(I0
I0
tp1328
a(I4
I0
tp1329
a(I3
I0
tp1330
a(I5
I0
tp1331
a(I2
I4
tp1332
a(I2
I0
tp1333
a(I4
I0
tp1334
a(I4
I0
tp1335
a(I5
I0
tp1336
asg52
S'0'
sg54
g721
sg56
g722
sg58
(lp1337
sg61
(lp1338
(dp1339
g64
Nsg65
Nsg66
Nsg67
(lp1340
sg69
Nsg70
Nsg22
g847
sa(dp1341
g64
Nsg65
Nsg66
Nsg67
(lp1342
sg69
Nsg70
Nsg22
S'fLuck +4'
p1343
sasg75
(dp1344
g475
I0
sg476
I0
sg477
I0
ssg80
I00
sg81
I123
sg82
(lp1345
I0
aI0
aI0
aI0
aI0
aI1
aI0
asg84
g731
sg86
I5
sg87
I7
sg88
S'M'
sg89
I0
sg90
S'Mage'
p1346
sg92
I0
sg93
S'enemy'
p1347
sg95
(I20
I9
tp1348
sa(dp1349
g7
S'Attack'
p1350
sg9
(lp1351
I65
aI20
aI65
aI45
aI40
aI25
aI25
aI55
asg11
I00
sg12
(lp1352
(dp1353
g15
Nsg16
I00
sg17
I01
sg18
I25
sg19
I00
sg20
I124
sg22
S'Nyx'
p1354
sa(dp1355
g15
Nsg16
I00
sg17
I00
sg18
I3
sg19
I00
sg20
I124
sg22
S'Potion'
p1356
sasg30
(lp1357
I55
aI40
aI55
aI15
aI80
aI75
aI75
aI85
asg32
I15
sg40
(lp1358
(I15
I0
tp1359
a(I2
I0
tp1360
a(I6
I0
tp1361
a(I4
I0
tp1362
a(I3
I0
tp1363
a(I1
I0
tp1364
a(I2
I0
tp1365
a(I6
I0
tp1366
a(I5
I0
tp1367
a(I4
I0
tp1368
asg52
S'0'
sg54
g813
sg56
g814
sg58
(lp1369
sg61
(lp1370
(dp1371
g64
Nsg65
Nsg66
Nsg67
(lp1372
sg69
Nsg70
Nsg22
g512
sa(dp1373
g64
Nsg65
Nsg66
Nsg67
(lp1374
sg69
Nsg70
Nsg22
g515
sasg75
(dp1375
g475
I0
sg476
I0
sg477
I0
ssg80
I00
sg81
I124
sg82
(lp1376
I0
aI0
aI0
aI0
aI0
aI0
aI16
asg84
g821
sg86
I5
sg87
I8
sg88
S'M'
sg89
I0
sg90
S'Shaman'
p1377
sg92
I0
sg93
S'enemy'
p1378
sg95
(I15
I0
tp1379
sa(dp1380
g7
S'SoftGuard'
p1381
sg9
(lp1382
I95
aI45
aI40
aI55
aI45
aI45
aI20
aI25
asg11
I00
sg12
(lp1383
(dp1384
g15
Nsg16
I00
sg17
I01
sg18
I20
sg19
I00
sg20
I125
sg22
S'Longbow'
p1385
sasg30
(lp1386
I80
aI80
aI60
aI20
aI80
aI80
aI80
aI0
asg32
I15
sg40
(lp1387
(I15
I0
tp1388
a(I4
I0
tp1389
a(I1
I0
tp1390
a(I4
I0
tp1391
a(I4
I0
tp1392
a(I1
I0
tp1393
a(I2
I0
tp1394
a(I1
I0
tp1395
a(I4
I0
tp1396
a(I5
I0
tp1397
asg52
S'0'
sg54
g721
sg56
g722
sg58
(lp1398
sg61
(lp1399
(dp1400
g64
Nsg65
Nsg66
Nsg67
(lp1401
sg69
Nsg70
Nsg22
g1099
sa(dp1402
g64
Nsg65
Nsg66
Nsg67
(lp1403
sg69
I0
sg70
Nsg22
g1284
sasg75
(dp1404
g475
I0
sg476
I0
sg477
I0
ssg80
I00
sg81
I125
sg82
(lp1405
I0
aI0
aI0
aI16
aI0
aI0
aI0
asg84
g731
sg86
I0
sg87
I5
sg88
S'M'
sg89
I0
sg90
S'Archer'
p1406
sg92
I0
sg93
S'enemy'
p1407
sg95
(I18
I4
tp1408
sa(dp1409
g7
S'Attack'
p1410
sg9
(lp1411
I100
aI45
aI15
aI25
aI35
aI25
aI40
aI35
asg11
I00
sg12
(lp1412
(dp1413
g15
Nsg16
I00
sg17
I00
sg18
I30
sg19
I00
sg20
I126
sg22
S'Steel Axe'
p1414
sasg30
(lp1415
I0
aI15
aI5
aI75
aI45
aI75
aI80
aI45
asg32
I20
sg40
(lp1416
(I20
I0
tp1417
a(I8
I0
tp1418
a(I1
I0
tp1419
a(I4
I0
tp1420
a(I3
I0
tp1421
a(I1
I0
tp1422
a(I7
I0
tp1423
a(I2
I0
tp1424
a(I9
I0
tp1425
a(I4
I0
tp1426
asg52
S'0'
sg54
g813
sg56
g814
sg58
(lp1427
sg61
(lp1428
(dp1429
g64
Nsg65
Nsg66
Nsg67
(lp1430
sg69
Nsg70
Nsg22
S'Patience'
p1431
sa(dp1432
g64
Nsg65
Nsg66
Nsg67
(lp1433
sg69
Nsg70
Nsg22
S'Defense_Aura'
p1434
sasg75
(dp1435
g475
I0
sg476
I0
sg477
I0
ssg80
I00
sg81
I126
sg82
(lp1436
I0
aI0
aI16
aI0
aI0
aI0
aI0
asg84
g821
sg86
I1
sg87
I8
sg88
S'M'
sg89
I0
sg90
S'Sentinel'
p1437
sg92
I0
sg93
S'enemy'
p1438
sg95
(I19
I5
tp1439
sa(dp1440
g7
S'Attack'
p1441
sg9
(lp1442
I100
aI45
aI15
aI25
aI35
aI25
aI40
aI35
asg11
I00
sg12
(lp1443
(dp1444
g15
Nsg16
I00
sg17
I00
sg18
I30
sg19
I00
sg20
I127
sg22
S'Steel Axe'
p1445
sasg30
(lp1446
I0
aI15
aI5
aI75
aI45
aI75
aI80
aI45
asg32
I20
sg40
(lp1447
(I20
I0
tp1448
a(I8
I0
tp1449
a(I1
I0
tp1450
a(I4
I0
tp1451
a(I3
I0
tp1452
a(I1
I0
tp1453
a(I7
I0
tp1454
a(I2
I0
tp1455
a(I9
I0
tp1456
a(I4
I0
tp1457
asg52
S'0'
sg54
g813
sg56
g814
sg58
(lp1458
sg61
(lp1459
(dp1460
g64
Nsg65
Nsg66
Nsg67
(lp1461
sg69
Nsg70
Nsg22
g1431
sa(dp1462
g64
Nsg65
Nsg66
Nsg67
(lp1463
sg69
Nsg70
Nsg22
g1434
sasg75
(dp1464
g475
I0
sg476
I0
sg477
I0
ssg80
I00
sg81
I127
sg82
(lp1465
I0
aI0
aI16
aI0
aI0
aI0
aI0
asg84
g821
sg86
I1
sg87
I8
sg88
S'M'
sg89
I0
sg90
S'Sentinel'
p1466
sg92
I0
sg93
S'enemy'
p1467
sg95
(I21
I6
tp1468
sa(dp1469
g7
S'HardGuard'
p1470
sg9
(lp1471
I65
aI20
aI65
aI45
aI40
aI25
aI25
aI55
asg11
I00
sg12
(lp1472
(dp1473
g15
Nsg16
I00
sg17
I00
sg18
I35
sg19
I00
sg20
I128
sg22
S'Flux'
p1474
sasg30
(lp1475
I85
aI80
aI85
aI5
aI60
aI25
aI25
aI95
asg32
I16
sg40
(lp1476
(I16
I0
tp1477
a(I2
I0
tp1478
a(I7
I0
tp1479
a(I5
I0
tp1480
a(I4
I0
tp1481
a(I2
I0
tp1482
a(I3
I0
tp1483
a(I7
I0
tp1484
a(I5
I0
tp1485
a(I4
I0
tp1486
asg52
S'N1'
p1487
sg54
g813
sg56
g814
sg58
(lp1488
sg61
(lp1489
(dp1490
g64
Nsg65
Nsg66
Nsg67
(lp1491
sg69
Nsg70
Nsg22
g512
sa(dp1492
g64
Nsg65
Nsg66
Nsg67
(lp1493
sg69
Nsg70
Nsg22
g515
sasg75
(dp1494
g475
I0
sg476
I0
sg477
I0
ssg80
I00
sg81
I128
sg82
(lp1495
I0
aI0
aI0
aI0
aI0
aI0
aI1
asg84
g821
sg86
I5
sg87
I10
sg88
S'M'
sg89
I0
sg90
S'Shaman'
p1496
sg92
I0
sg93
S'enemy'
p1497
sg95
Nsa(dp1498
g7
S'HardGuard'
p1499
sg9
(lp1500
I65
aI20
aI65
aI45
aI40
aI25
aI25
aI55
asg11
I00
sg12
(lp1501
(dp1502
g15
Nsg16
I00
sg17
I00
sg18
I35
sg19
I00
sg20
I129
sg22
S'Flux'
p1503
sasg30
(lp1504
I85
aI80
aI85
aI5
aI60
aI25
aI25
aI95
asg32
I16
sg40
(lp1505
(I16
I0
tp1506
a(I2
I0
tp1507
a(I7
I0
tp1508
a(I5
I0
tp1509
a(I4
I0
tp1510
a(I2
I0
tp1511
a(I3
I0
tp1512
a(I7
I0
tp1513
a(I5
I0
tp1514
a(I4
I0
tp1515
asg52
S'N2'
p1516
sg54
g813
sg56
g814
sg58
(lp1517
sg61
(lp1518
(dp1519
g64
Nsg65
Nsg66
Nsg67
(lp1520
sg69
Nsg70
Nsg22
g512
sa(dp1521
g64
Nsg65
Nsg66
Nsg67
(lp1522
sg69
Nsg70
Nsg22
g515
sasg75
(dp1523
g475
I0
sg476
I0
sg477
I0
ssg80
I00
sg81
I129
sg82
(lp1524
I0
aI0
aI0
aI0
aI0
aI0
aI1
asg84
g821
sg86
I5
sg87
I10
sg88
S'M'
sg89
I0
sg90
S'Shaman'
p1525
sg92
I0
sg93
S'enemy'
p1526
sg95
Nsa(dp1527
g7
S'SoftGuard_1'
p1528
sg9
(lp1529
I65
aI15
aI40
aI55
aI45
aI60
aI15
aI65
asg11
I00
sg12
(lp1530
(dp1531
g15
Nsg16
I00
sg17
I00
sg18
I35
sg19
I00
sg20
I130
sg22
S'Glimmer'
p1532
sa(dp1533
g15
Nsg16
I00
sg17
I00
sg18
I30
sg19
I00
sg20
I130
sg22
S'Heal'
p1534
sasg30
(lp1535
I25
aI75
aI0
aI75
aI25
aI0
aI75
aI25
asg32
I14
sg40
(lp1536
(I14
I0
tp1537
a(I0
I0
tp1538
a(I3
I0
tp1539
a(I3
I0
tp1540
a(I3
I0
tp1541
a(I3
I0
tp1542
a(I0
I0
tp1543
a(I7
I0
tp1544
a(I3
I0
tp1545
a(I5
I0
tp1546
asg52
S'0'
sg54
g813
sg56
g814
sg58
(lp1547
sg61
(lp1548
(dp1549
g64
Nsg65
Nsg66
Nsg67
(lp1550
sg69
Nsg70
Nsg22
S'Healtouch'
p1551
sa(dp1552
g64
I1
sg65
Nsg66
Nsg67
(lp1553
sg69
Nsg70
Nsg22
S'Miracle'
p1554
sasg75
(dp1555
g475
I0
sg476
I0
sg477
I0
ssg80
I00
sg81
I130
sg82
(lp1556
I0
aI0
aI0
aI0
aI1
aI0
aI0
asg84
g821
sg86
I5
sg87
I6
sg88
S'M'
sg89
I0
sg90
S'Mystic'
p1557
sg92
I0
sg93
S'enemy'
p1558
sg95
(I23
I12
tp1559
sa(dp1560
g7
S'SoftGuard_1'
p1561
sg9
(lp1562
I65
aI20
aI65
aI45
aI40
aI25
aI25
aI55
asg11
I00
sg12
(lp1563
(dp1564
g15
Nsg16
I00
sg17
I00
sg18
I35
sg19
I00
sg20
I131
sg22
S'Flux'
p1565
sasg30
(lp1566
I90
aI20
aI90
aI70
aI40
aI50
aI50
aI30
asg32
I14
sg40
(lp1567
(I14
I0
tp1568
a(I2
I0
tp1569
a(I5
I0
tp1570
a(I3
I0
tp1571
a(I3
I0
tp1572
a(I1
I0
tp1573
a(I2
I0
tp1574
a(I6
I0
tp1575
a(I5
I0
tp1576
a(I4
I0
tp1577
asg52
S'0'
sg54
g813
sg56
g814
sg58
(lp1578
sg61
(lp1579
(dp1580
g64
Nsg65
Nsg66
Nsg67
(lp1581
sg69
Nsg70
Nsg22
g512
sa(dp1582
g64
Nsg65
Nsg66
Nsg67
(lp1583
sg69
Nsg70
Nsg22
g515
sasg75
(dp1584
g475
I0
sg476
I0
sg477
I0
ssg80
I00
sg81
I131
sg82
(lp1585
I0
aI0
aI0
aI0
aI0
aI0
aI1
asg84
g821
sg86
I5
sg87
I7
sg88
S'M'
sg89
I0
sg90
S'Shaman'
p1586
sg92
I0
sg93
S'enemy'
p1587
sg95
(I22
I13
tp1588
sa(dp1589
g7
S'SoftGuard_1'
p1590
sg9
(lp1591
I65
aI20
aI65
aI45
aI40
aI25
aI25
aI55
asg11
I00
sg12
(lp1592
(dp1593
g15
Nsg16
I00
sg17
I00
sg18
I35
sg19
I00
sg20
I132
sg22
S'Flux'
p1594
sasg30
(lp1595
I90
aI20
aI90
aI70
aI40
aI50
aI50
aI30
asg32
I14
sg40
(lp1596
(I14
I0
tp1597
a(I2
I0
tp1598
a(I5
I0
tp1599
a(I3
I0
tp1600
a(I3
I0
tp1601
a(I1
I0
tp1602
a(I2
I0
tp1603
a(I6
I0
tp1604
a(I5
I0
tp1605
a(I4
I0
tp1606
asg52
S'0'
sg54
g813
sg56
g814
sg58
(lp1607
sg61
(lp1608
(dp1609
g64
Nsg65
Nsg66
Nsg67
(lp1610
sg69
Nsg70
Nsg22
g512
sa(dp1611
g64
Nsg65
Nsg66
Nsg67
(lp1612
sg69
Nsg70
Nsg22
g515
sasg75
(dp1613
g475
I0
sg476
I0
sg477
I0
ssg80
I00
sg81
I132
sg82
(lp1614
I0
aI0
aI0
aI0
aI0
aI0
aI1
asg84
g821
sg86
I5
sg87
I7
sg88
S'M'
sg89
I0
sg90
S'Shaman'
p1615
sg92
I0
sg93
S'enemy'
p1616
sg95
(I24
I13
tp1617
sa(dp1618
g7
S'Pursue'
p1619
sg9
(lp1620
I110
aI65
aI0
aI40
aI25
aI20
aI15
aI15
asg11
I00
sg12
(lp1621
(dp1622
g15
Nsg16
I00
sg17
I00
sg18
I45
sg19
I00
sg20
I133
sg22
S'Iron Axe'
p1623
sasg30
(lp1624
I60
aI90
aI0
aI40
aI50
aI20
aI90
aI90
asg32
I19
sg40
(lp1625
(I19
I0
tp1626
a(I6
I0
tp1627
a(I0
I0
tp1628
a(I3
I0
tp1629
a(I4
I0
tp1630
a(I1
I0
tp1631
a(I2
I0
tp1632
a(I0
I0
tp1633
a(I8
I0
tp1634
a(I5
I0
tp1635
asg52
S'pack1_1'
p1636
sg54
g721
sg56
g722
sg58
(lp1637
sg61
(lp1638
(dp1639
g64
Nsg65
Nsg66
Nsg67
(lp1640
sg69
Nsg70
Nsg22
g615
sa(dp1641
g64
Nsg65
Nsg66
Nsg67
(lp1642
sg69
I0
sg70
Nsg22
g618
sasg75
(dp1643
g475
I0
sg476
I0
sg477
I0
ssg80
I00
sg81
I133
sg82
(lp1644
I0
aI0
aI1
aI0
aI0
aI0
aI0
asg84
g731
sg86
I0
sg87
I7
sg88
S'M'
sg89
I0
sg90
S'Brigand'
p1645
sg92
I0
sg93
S'enemy'
p1646
sg95
Nsa(dp1647
g7
S'Pursue'
p1648
sg9
(lp1649
I110
aI65
aI0
aI40
aI25
aI20
aI15
aI15
asg11
I00
sg12
(lp1650
(dp1651
g15
Nsg16
I00
sg17
I00
sg18
I45
sg19
I00
sg20
I134
sg22
S'Iron Axe'
p1652
sasg30
(lp1653
I60
aI90
aI0
aI40
aI50
aI20
aI90
aI90
asg32
I19
sg40
(lp1654
(I19
I0
tp1655
a(I6
I0
tp1656
a(I0
I0
tp1657
a(I3
I0
tp1658
a(I4
I0
tp1659
a(I1
I0
tp1660
a(I2
I0
tp1661
a(I0
I0
tp1662
a(I8
I0
tp1663
a(I5
I0
tp1664
asg52
S'pack1_2'
p1665
sg54
g721
sg56
g722
sg58
(lp1666
sg61
(lp1667
(dp1668
g64
Nsg65
Nsg66
Nsg67
(lp1669
sg69
Nsg70
Nsg22
g615
sa(dp1670
g64
Nsg65
Nsg66
Nsg67
(lp1671
sg69
I0
sg70
Nsg22
g618
sasg75
(dp1672
g475
I0
sg476
I0
sg477
I0
ssg80
I00
sg81
I134
sg82
(lp1673
I0
aI0
aI1
aI0
aI0
aI0
aI0
asg84
g731
sg86
I0
sg87
I7
sg88
S'M'
sg89
I0
sg90
S'Brigand'
p1674
sg92
I0
sg93
S'enemy'
p1675
sg95
Nsa(dp1676
g7
S'Pursue'
p1677
sg9
(lp1678
I110
aI65
aI0
aI40
aI25
aI20
aI15
aI15
asg11
I00
sg12
(lp1679
(dp1680
g15
Nsg16
I00
sg17
I00
sg18
I45
sg19
I00
sg20
I135
sg22
S'Iron Axe'
p1681
sasg30
(lp1682
I60
aI90
aI0
aI40
aI50
aI20
aI90
aI90
asg32
I19
sg40
(lp1683
(I19
I0
tp1684
a(I6
I0
tp1685
a(I0
I0
tp1686
a(I3
I0
tp1687
a(I4
I0
tp1688
a(I1
I0
tp1689
a(I2
I0
tp1690
a(I0
I0
tp1691
a(I8
I0
tp1692
a(I5
I0
tp1693
asg52
S'pack1_3'
p1694
sg54
g721
sg56
g722
sg58
(lp1695
sg61
(lp1696
(dp1697
g64
Nsg65
Nsg66
Nsg67
(lp1698
sg69
Nsg70
Nsg22
g615
sa(dp1699
g64
Nsg65
Nsg66
Nsg67
(lp1700
sg69
I0
sg70
Nsg22
g618
sasg75
(dp1701
g475
I0
sg476
I0
sg477
I0
ssg80
I00
sg81
I135
sg82
(lp1702
I0
aI0
aI1
aI0
aI0
aI0
aI0
asg84
g731
sg86
I0
sg87
I7
sg88
S'M'
sg89
I0
sg90
S'Brigand'
p1703
sg92
I0
sg93
S'enemy'
p1704
sg95
Nsa(dp1705
g7
S'Pursue'
p1706
sg9
(lp1707
I75
aI15
aI65
aI45
aI65
aI40
aI20
aI45
asg11
I00
sg12
(lp1708
(dp1709
g15
Nsg16
I00
sg17
I00
sg18
I30
sg19
I00
sg20
I136
sg22
S'Fire'
p1710
sasg30
(lp1711
I75
aI75
aI25
aI25
aI25
aI0
aI0
aI25
asg32
I14
sg40
(lp1712
(I14
I0
tp1713
a(I0
I0
tp1714
a(I4
I0
tp1715
a(I3
I3
tp1716
a(I5
I0
tp1717
a(I2
I0
tp1718
a(I2
I0
tp1719
a(I4
I0
tp1720
a(I4
I0
tp1721
a(I5
I0
tp1722
asg52
S'pack1_4'
p1723
sg54
g721
sg56
g722
sg58
(lp1724
sg61
(lp1725
(dp1726
g64
Nsg65
Nsg66
Nsg67
(lp1727
sg69
Nsg70
Nsg22
g847
sa(dp1728
g64
Nsg65
Nsg66
Nsg67
(lp1729
sg69
Nsg70
Nsg22
S'fSkill +3'
p1730
sasg75
(dp1731
g475
I0
sg476
I0
sg477
I0
ssg80
I00
sg81
I136
sg82
(lp1732
I0
aI0
aI0
aI0
aI0
aI1
aI0
asg84
g731
sg86
I5
sg87
I6
sg88
S'M'
sg89
I0
sg90
S'Mage'
p1733
sg92
I0
sg93
S'enemy'
p1734
sg95
NsasS'convoy'
p1735
(lp1736
(dp1737
g15
Nsg16
I00
sg17
I00
sg18
I2
sg19
I00
sg20
I0
sg22
S'Spiritbane'
p1738
sa(dp1739
g15
Nsg16
I00
sg17
I00
sg18
I1
sg19
I00
sg20
I0
sg22
S'Secret Book'
p1740
sa(dp1741
g15
Nsg16
I00
sg17
I00
sg18
I1
sg19
I00
sg20
I0
sg22
S'Angelic Robe'
p1742
sa(dp1743
g15
Nsg16
I00
sg17
I00
sg18
I1
sg19
I00
sg20
I0
sg22
S'Mana Ring'
p1744
sa(dp1745
g15
Nsg16
I00
sg17
I00
sg18
I1
sg19
I00
sg20
I0
sg22
S'Talisman'
p1746
sa(dp1747
g15
Nsg16
I00
sg17
I00
sg18
Nsg19
I00
sg20
I0
sg22
S'Sapphire'
p1748
sa(dp1749
g15
Nsg16
I00
sg17
I00
sg18
I10
sg19
I00
sg20
I0
sg22
S'Windwall'
p1750
sa(dp1751
g15
Nsg16
I00
sg17
I00
sg18
I25
sg19
I00
sg20
I0
sg22
S'Great Lance'
p1752
sa(dp1753
g15
Nsg16
I00
sg17
I00
sg18
I8
sg19
I00
sg20
I0
sg22
S'Heal'
p1754
sa(dp1755
g15
Nsg16
I00
sg17
I00
sg18
I15
sg19
I00
sg20
I0
sg22
S'Magebane Sword'
p1756
sa(dp1757
g15
Nsg16
I00
sg17
I00
sg18
Nsg19
I00
sg20
I0
sg22
S'Ruby'
p1758
sa(dp1759
g15
Nsg16
I00
sg17
I00
sg18
Nsg19
I00
sg20
I0
sg22
S"Prim's Charm"
p1760
sa(dp1761
g15
Nsg16
I00
sg17
I00
sg18
I15
sg19
I00
sg20
I0
sg22
S'Willow Bow'
p1762
sa(dp1763
g15
Nsg16
I00
sg17
I00
sg18
I34
sg19
I00
sg20
I0
sg22
S'Hatchet'
p1764
sa(dp1765
g15
Nsg16
I00
sg17
I00
sg18
I16
sg19
I00
sg20
I0
sg22
S'Fire'
p1766
sasS'groups'
p1767
(dp1768
S'Bandit'
p1769
(g731
g721
g722
tp1770
sS'Claw'
p1771
(g821
g813
g814
tp1772
sS'Elite'
p1773
(g552
g540
g541
tp1774
ssS'allreinforcements'
p1775
(dp1776
S'Theo'
p1777
(g362
g399
tp1778
sS'Althea'
p1779
(g227
g272
tp1780
sS'Prim'
p1781
(g102
g135
tp1782
sg463
(g445
(I0
I0
ttp1783
sg1665
(I134
(I2
I0
ttp1784
sg1694
(I135
(I7
I0
ttp1785
sS'Joel'
p1786
(g141
g180
tp1787
sS'Nia'
p1788
(g186
g221
tp1789
sS'Renae'
p1790
(g323
g356
tp1791
sS'Drake'
p1792
(g278
g317
tp1793
sg1636
(I133
(I0
I0
ttp1794
sg505
(g487
(I0
I0
ttp1795
sg539
(I101
(I0
I0
ttp1796
sg1723
(I136
(I12
I0
ttp1797
sg573
(I102
(I0
I0
ttp1798
sg1487
(I128
(I21
I0
ttp1799
sg1516
(I129
(I19
I0
ttp1800
sS'Ophie'
p1801
(g21
g96
tp1802
sS'Eliza'
p1803
(g405
g439
tp1804
ssS'base_conversations'
p1805
(dp1806
S'Theo Sphinx, Pt. II'
p1807
I00
ssS'playtime'
p1808
I17944541
sS'message'
p1809
(lp1810
S'Assets/Lex-Talionis/Data/Level5/turnChangeScript.txt'
p1811
asS'unlocked_lore'
p1812
(lp1813
S'Sam'
p1814
aS'Joel'
p1815
aS'Prim'
p1816
aS'Ophie'
p1817
aS'Althea'
p1818
aS'Drake'
p1819
aS'Nia'
p1820
aS'Renae'
p1821
aS'Theo'
p1822
aS'Kerala'
p1823
aS'Empire'
p1824
aS'Eliza'
p1825
aS'Podoma'
p1826
aS'Rajas'
p1827
aS'Ulver'
p1828
aS'Vagnius'
p1829
asS'statistics'
p1830
(lp1831
g33
(cCode.CustomObjects
LevelStatistic
p1832
g35
NtRp1833
(dp1834
S'turncount'
p1835
I4
sg40
(dp1836
g85
(dp1837
S'damage'
p1838
I13
sS'kills'
p1839
I2
sS'healing'
p1840
I0
ssg132
(dp1841
g1838
I8
sg1839
I0
sg1840
I7
sssg84
S'Prologue'
p1842
sbag33
(g1832
g35
NtRp1843
(dp1844
g1835
I4
sg40
(dp1845
g85
(dp1846
g1838
I39
sg1839
I4
sg1840
I0
ssg177
(dp1847
g1838
I48
sg1839
I1
sg1840
I0
ssg218
(dp1848
g1838
I30
sg1839
I2
sg1840
I0
ssg132
(dp1849
g1838
I8
sg1839
I2
sg1840
I12
sssg84
S'Chapter I'
p1850
sbag33
(g1832
g35
NtRp1851
(dp1852
g1835
I9
sg40
(dp1853
g269
(dp1854
S'damage'
p1855
I67
sS'kills'
p1856
I3
sS'healing'
p1857
I0
ssg132
(dp1858
S'damage'
p1859
I4
sS'kills'
p1860
I0
sS'healing'
p1861
I43
ssg177
(dp1862
g1859
I52
sg1860
I4
sg1861
I0
ssg218
(dp1863
g1859
I14
sg1860
I2
sg1861
I0
ssg314
(dp1864
g1855
I44
sg1856
I3
sg1857
I0
ssg85
(dp1865
g1859
I21
sg1860
I3
sg1861
I0
sssg84
S'Chapter II'
p1866
sbag33
(g1832
g35
NtRp1867
(dp1868
g1835
I15
sg40
(dp1869
g396
(dp1870
S'damage'
p1871
I81
sS'kills'
p1872
I1
sS'healing'
p1873
I0
ssg269
(dp1874
S'damage'
p1875
I45
sS'kills'
p1876
I5
sS'healing'
p1877
I0
ssg132
(dp1878
g1875
I16
sg1876
I0
sg1877
I61
ssg177
(dp1879
g1875
I64
sg1876
I3
sg1877
I0
ssg218
(dp1880
g1875
I58
sg1876
I3
sg1877
I0
ssg353
(dp1881
g1871
I8
sg1872
I3
sg1873
I0
ssg314
(dp1882
g1875
I35
sg1876
I2
sg1877
I0
ssg85
(dp1883
g1875
I70
sg1876
I6
sg1877
I0
sssg84
S'Chapter III'
p1884
sbag33
(g1832
g35
NtRp1885
(dp1886
g1835
I9
sg40
(dp1887
g396
(dp1888
S'damage'
p1889
I61
sS'kills'
p1890
I4
sS'healing'
p1891
I0
ssg269
(dp1892
g1889
I125
sg1890
I8
sg1891
I0
ssg132
(dp1893
g1889
I5
sg1890
I0
sg1891
I44
ssg177
(dp1894
g1889
I47
sg1890
I2
sg1891
I0
ssg218
(dp1895
g1889
I51
sg1890
I2
sg1891
I0
ssg353
(dp1896
g1889
I54
sg1890
I5
sg1891
I0
ssg314
(dp1897
g1889
I58
sg1890
I2
sg1891
I0
ssg85
(dp1898
g1889
I47
sg1890
I5
sg1891
I0
ssg436
(dp1899
S'damage'
p1900
I52
sS'kills'
p1901
I7
sS'healing'
p1902
I0
sssg84
S'Chapter IV'
p1903
sbasS'market_items'
p1904
c__builtin__
set
p1905
((lp1906
S'Potion'
p1907
aS'Iron Lance'
p1908
aS'Fire'
p1909
aS'Heal'
p1910
aS'Willow Bow'
p1911
aS'Steel Sword'
p1912
aS'Slim Lance'
p1913
aS'Iron Axe'
p1914
aS'Glimmer'
p1915
aS'Vulnerary'
p1916
aS'Steel Axe'
p1917
aS'Iron Sword'
p1918
aS'Hatchet'
p1919
aS'Wind'
p1920
aS'Steel Lance'
p1921
atRp1922
sS'support'
p1923
NsS'event_triggers'
p1924
(lp1925
sS'objective'
p1926
(S'Seize Gate'
p1927
S'Seize Temple Gate'
p1928
S'Ophie dies,OR,Party size falls below 5. Currently {gameStateObj.get_total_party_members()}'
p1929
tp1930
sS'metaDataObj_changes'
p1931
(lp1932
sS'counters'
p1933
(dp1934
S'switches'
p1935
I3
sS'money'
p1936
I10480
sS'level'
p1937
I5
sS'Escaped_Wagons'
p1938
I0
sS'Dead_Wagons'
p1939
I12
ssS'map'
p1940
(dp1941
S'HP'
p1942
(lp1943
sS'command_list'
p1944
(lp1945
ssS'state_list'
p1946
((lp1947
S'free'
p1948
aS'status'
p1949
aS'phase_change'
p1950
aS'dialogue'
p1951
aS'prep_main'
p1952
a(ltp1953
sS'prefabs'
p1954
(dp1955
S'i1'
p1956
(lp1957
S'enemy'
p1958
aS'2'
ag1956
aS'Shaman'
p1959
aS'Nyx,Scathe'
p1960
aS'0,0'
p1961
aS'Pursue'
p1962
aS'Claw'
p1963
aS'Void_Curse'
p1964
asS'i2'
p1965
(lp1966
S'enemy'
p1967
aS'2'
ag1965
aS'Brigand'
p1968
aS'Steel Axe,Hand Axe'
p1969
aS'0,0'
p1970
aS'Pursue'
p1971
aS'Bandit'
p1972
aS'Void_Curse'
p1973
assS'phase_info'
p1974
(I0
I3
tp1975
sg1835
I1
sS'game_constants'
p1976
(lp1977
S'Convoy'
p1978
as.