(dp1
S'map'
p2
(dp3
S'HP'
p4
(lp5
sS'command_list'
p6
(lp7
(lp8
S'set_custom_origin'
p9
a(I12
I35
tp10
aa(lp11
S'change_tile_sprite'
p12
aS'o0,0'
p13
aS'floor_left'
p14
aa(lp15
S'change_tile_sprite'
p16
aS'o0,1'
p17
aS'floor'
p18
aa(lp19
S'replace_tile'
p20
aS'o0,0'
p21
aS'9'
aa(lp22
S'set_tile_info'
p23
aS'o0,0'
p24
aa(lp25
S'set_custom_origin'
p26
a(I1
I22
tp27
aa(lp28
S'set_tile_info'
p29
aS'o0,0'
p30
aa(lp31
S'change_tile_sprite'
p32
aS'o0,0'
p33
aS'switch_pulled'
p34
aa(lp35
S'set_custom_origin'
p36
a(I23
I22
tp37
aa(lp38
S'set_tile_info'
p39
aS'o0,0'
p40
aa(lp41
S'change_tile_sprite'
p42
aS'o0,0'
p43
aS'switch_pulled'
p44
aa(lp45
S'set_custom_origin'
p46
a(I6
I11
tp47
aa(lp48
S'change_tile_sprite'
p49
aS'o0,0'
p50
aS'wall_topleft'
p51
aS'2,2'
p52
aa(lp53
S'replace_tile'
p54
aS'o0,0'
p55
aS'9'
aa(lp56
S'replace_tile'
p57
aS'o0,1'
p58
aS'9'
aa(lp59
S'replace_tile'
p60
aS'o1,0'
p61
aS'9'
aa(lp62
S'replace_tile'
p63
aS'o1,1'
p64
aS'9'
aa(lp65
S'set_custom_origin'
p66
a(I17
I11
tp67
aa(lp68
S'change_tile_sprite'
p69
aS'o0,0'
p70
aS'wall_topright'
p71
aS'2,2'
p72
aa(lp73
S'replace_tile'
p74
aS'o0,0'
p75
aS'9'
aa(lp76
S'replace_tile'
p77
aS'o0,1'
p78
aS'9'
aa(lp79
S'replace_tile'
p80
aS'o1,0'
p81
aS'9'
aa(lp82
S'replace_tile'
p83
aS'o1,1'
p84
aS'9'
aa(lp85
S'set_custom_origin'
p86
a(I6
I22
tp87
aa(lp88
S'change_tile_sprite'
p89
aS'o0,0'
p90
aS'wall_topright'
p91
aS'2,2'
p92
aa(lp93
S'replace_tile'
p94
aS'o0,0'
p95
aS'9'
aa(lp96
S'replace_tile'
p97
aS'o0,1'
p98
aS'9'
aa(lp99
S'replace_tile'
p100
aS'o1,0'
p101
aS'9'
aa(lp102
S'replace_tile'
p103
aS'o1,1'
p104
aS'9'
aa(lp105
S'set_custom_origin'
p106
a(I17
I22
tp107
aa(lp108
S'change_tile_sprite'
p109
aS'o0,0'
p110
aS'wall_topright'
p111
aS'2,2'
p112
aa(lp113
S'replace_tile'
p114
aS'o0,0'
p115
aS'9'
aa(lp116
S'replace_tile'
p117
aS'o0,1'
p118
aS'9'
aa(lp119
S'replace_tile'
p120
aS'o1,0'
p121
aS'9'
aa(lp122
S'replace_tile'
p123
aS'o1,1'
p124
aS'9'
aa(lp125
S'set_custom_origin'
p126
a(I12
I26
tp127
aa(lp128
S'change_tile_sprite'
p129
aS'o0,0'
p130
aS'floor_left'
p131
aa(lp132
S'replace_tile'
p133
aS'o0,0'
p134
aS'9'
aa(lp135
S'set_tile_info'
p136
aS'o0,0'
p137
aassS'allunits'
p138
(lp139
(dp140
S'ai'
p141
S'SoftGuard'
p142
sS'growths'
p143
(lp144
I100
aI50
aI50
aI50
aI50
aI50
aI0
aI50
asS'dead'
p145
I00
sS'items'
p146
(lp147
(dp148
S'c_uses'
p149
NsS'locked'
p150
I00
sS'droppable'
p151
I00
sS'uses'
p152
I20
sS'event_combat'
p153
I00
sS'owner'
p154
S'Razia'
p155
sS'id'
p156
S'Mithril Sword'
p157
sa(dp158
g149
Nsg150
I00
sg151
I00
sg152
I25
sg153
I00
sg154
g155
sg156
S'Levin Sword'
p159
sasS'growth_points'
p160
(lp161
I0
aI0
aI0
aI0
aI0
aI0
aI0
aI0
asS'currenthp'
p162
I41
sS'stats'
p163
(lp164
(I41
I0
tp165
a(I12
I0
tp166
a(I9
I0
tp167
a(I17
I0
tp168
a(I18
I0
tp169
a(I8
I0
tp170
a(I9
I0
tp171
a(I10
I0
tp172
a(I8
I0
tp173
a(I0
I0
tp174
asS'event_id'
p175
S'0'
sS'faction'
p176
S'Empire'
p177
sS'desc'
p178
S'Harsh warden of the Tyrana Prison.'
p179
sS'tags'
p180
(lp181
S'Boss'
p182
aS'Zero_Move'
p183
asS'status_effects'
p184
(lp185
(dp186
S'count'
p187
NsS'time_left'
p188
NsS'upkeep_sc_count'
p189
NsS'children'
p190
(lp191
sS'charge'
p192
NsS'rhythm_sc_count'
p193
Nsg156
S'Riposte'
p194
sa(dp195
g187
Nsg188
Nsg189
Nsg190
(lp196
sg192
Nsg193
Nsg156
S'Vantage'
p197
sa(dp198
g187
Nsg188
Nsg189
Nsg190
(lp199
sg192
I0
sg193
Nsg156
S'Critical'
p200
sasS'records'
p201
(dp202
S'damage'
p203
I0
sS'kills'
p204
I0
sS'healing'
p205
I0
ssS'finished'
p206
I00
sS'u_id'
p207
g155
sS'wexp'
p208
(lp209
I76
aI0
aI0
aI0
aI0
aI0
aI0
asS'name'
p210
S'Razia'
p211
sS'movement_group'
p212
I0
sS'level'
p213
I14
sS'gender'
p214
S'F'
sS'TRV'
p215
I0
sS'klass'
p216
S'Swordmaster'
p217
sS'exp'
p218
I0
sS'team'
p219
S'enemy'
p220
sS'position'
p221
(I12
I2
tp222
sa(dp223
g141
S'SoftGuard'
p224
sg143
(lp225
I100
aI30
aI100
aI65
aI60
aI40
aI40
aI80
asg145
I00
sg146
(lp226
(dp227
g149
Nsg150
I00
sg151
I00
sg152
I25
sg153
I00
sg154
I106
sg156
S'Nyx'
p228
sa(dp229
g149
Nsg150
I00
sg151
I00
sg152
I5
sg153
I00
sg154
I106
sg156
S'Stun'
p230
sasg160
(lp231
I0
aI70
aI0
aI85
aI40
aI60
aI60
aI20
asg162
I25
sg163
(lp232
(I25
I0
tp233
a(I3
I0
tp234
a(I12
I0
tp235
a(I6
I0
tp236
a(I7
I0
tp237
a(I3
I0
tp238
a(I5
I0
tp239
a(I12
I0
tp240
a(I7
I0
tp241
a(I9
I0
tp242
asg175
S'0'
sg176
S'Empire'
p243
sg178
S'Guard at the Tyrana Prison'
p244
sg180
(lp245
sg184
(lp246
(dp247
g187
Nsg188
Nsg189
Nsg190
(lp248
sg192
Nsg193
Nsg156
S'Hex'
p249
sa(dp250
g187
Nsg188
Nsg189
Nsg190
(lp251
sg192
Nsg193
Nsg156
S'Empowered'
p252
sasg201
(dp253
g203
I0
sg204
I0
sg205
I0
ssg206
I00
sg207
I106
sg208
(lp254
I0
aI0
aI0
aI0
aI0
aI0
aI41
asg210
S'Guard'
p255
sg212
I3
sg213
I10
sg214
S'M'
sg215
I0
sg216
S'Shaman'
p256
sg218
I0
sg219
S'enemy'
p257
sg221
(I6
I3
tp258
sa(dp259
g141
S'SoftGuard'
p260
sg143
(lp261
I100
aI30
aI100
aI65
aI60
aI40
aI40
aI80
asg145
I00
sg146
(lp262
(dp263
g149
Nsg150
I00
sg151
I00
sg152
I25
sg153
I00
sg154
I107
sg156
S'Nyx'
p264
sa(dp265
g149
Nsg150
I00
sg151
I00
sg152
I5
sg153
I00
sg154
I107
sg156
S'Stun'
p266
sasg160
(lp267
I0
aI70
aI0
aI85
aI40
aI60
aI60
aI20
asg162
I25
sg163
(lp268
(I25
I0
tp269
a(I3
I0
tp270
a(I12
I0
tp271
a(I6
I0
tp272
a(I7
I0
tp273
a(I3
I0
tp274
a(I5
I0
tp275
a(I12
I0
tp276
a(I7
I0
tp277
a(I9
I0
tp278
asg175
S'0'
sg176
S'Empire'
p279
sg178
S'Guard at the Tyrana Prison'
p280
sg180
(lp281
sg184
(lp282
(dp283
g187
Nsg188
Nsg189
Nsg190
(lp284
sg192
Nsg193
Nsg156
g249
sa(dp285
g187
Nsg188
Nsg189
Nsg190
(lp286
sg192
Nsg193
Nsg156
g252
sasg201
(dp287
g203
I0
sg204
I0
sg205
I0
ssg206
I00
sg207
I107
sg208
(lp288
I0
aI0
aI0
aI0
aI0
aI0
aI41
asg210
S'Guard'
p289
sg212
I3
sg213
I10
sg214
S'M'
sg215
I0
sg216
S'Shaman'
p290
sg218
I0
sg219
S'enemy'
p291
sg221
(I18
I3
tp292
sa(dp293
g141
S'SoftGuard'
p294
sg143
(lp295
I130
aI60
aI40
aI60
aI40
aI60
aI30
aI50
asg145
I00
sg146
(lp296
(dp297
g149
Nsg150
I00
sg151
I00
sg152
I20
sg153
I00
sg154
I108
sg156
S'Yew Bow'
p298
sasg160
(lp299
I0
aI0
aI0
aI0
aI0
aI0
aI0
aI0
asg162
I34
sg163
(lp300
(I34
I0
tp301
a(I13
I0
tp302
a(I8
I0
tp303
a(I12
I0
tp304
a(I11
I0
tp305
a(I6
I0
tp306
a(I8
I0
tp307
a(I8
I0
tp308
a(I9
I0
tp309
a(I12
I0
tp310
asg175
S'0'
sg176
S'Empire'
p311
sg178
S'Guard at the Tyrana Prison'
p312
sg180
(lp313
sg184
(lp314
(dp315
g187
Nsg188
Nsg189
Nsg190
(lp316
sg192
Nsg193
Nsg156
S'Prescience'
p317
sa(dp318
g187
Nsg188
Nsg189
Nsg190
(lp319
sg192
I0
sg193
Nsg156
S'Critical'
p320
sa(dp321
g187
Nsg188
Nsg189
Nsg190
(lp322
sg192
Nsg193
Nsg156
g317
sa(dp323
g187
Nsg188
Nsg189
Nsg190
(lp324
sg192
I0
sg193
Nsg156
g320
sa(dp325
g187
Nsg188
Nsg189
Nsg190
(lp326
sg192
Nsg193
Nsg156
S'Evasion'
p327
sasg201
(dp328
g203
I0
sg204
I0
sg205
I0
ssg206
I00
sg207
I108
sg208
(lp329
I0
aI0
aI0
aI41
aI0
aI0
aI0
asg210
S'Guard'
p330
sg212
I0
sg213
I11
sg214
S'M'
sg215
I0
sg216
S'Ranger'
p331
sg218
I0
sg219
S'enemy'
p332
sg221
(I12
I5
tp333
sa(dp334
g141
S'SoftGuard'
p335
sg143
(lp336
I100
aI30
aI100
aI65
aI60
aI40
aI40
aI80
asg145
I00
sg146
(lp337
(dp338
g149
Nsg150
I00
sg151
I00
sg152
I35
sg153
I00
sg154
I109
sg156
S'Flux'
p339
sa(dp340
g149
Nsg150
I00
sg151
I00
sg152
I10
sg153
I00
sg154
I109
sg156
S'Scathe'
p341
sasg160
(lp342
I0
aI80
aI0
aI90
aI60
aI40
aI40
aI80
asg162
I22
sg163
(lp343
(I22
I0
tp344
a(I2
I0
tp345
a(I9
I0
tp346
a(I4
I0
tp347
a(I5
I0
tp348
a(I2
I0
tp349
a(I4
I0
tp350
a(I9
I0
tp351
a(I7
I0
tp352
a(I9
I0
tp353
asg175
S'0'
sg176
S'Empire'
p354
sg178
S'Guard at the Tyrana Prison'
p355
sg180
(lp356
sg184
(lp357
(dp358
g187
Nsg188
Nsg189
Nsg190
(lp359
sg192
Nsg193
Nsg156
g249
sa(dp360
g187
Nsg188
Nsg189
Nsg190
(lp361
sg192
Nsg193
Nsg156
g252
sasg201
(dp362
g203
I0
sg204
I0
sg205
I0
ssg206
I00
sg207
I109
sg208
(lp363
I0
aI0
aI0
aI0
aI0
aI0
aI16
asg210
S'Guard'
p364
sg212
I3
sg213
I7
sg214
S'M'
sg215
I0
sg216
S'Shaman'
p365
sg218
I0
sg219
S'enemy'
p366
sg221
(I6
I9
tp367
sa(dp368
g141
S'SoftGuard'
p369
sg143
(lp370
I100
aI30
aI100
aI65
aI60
aI40
aI40
aI80
asg145
I00
sg146
(lp371
(dp372
g149
Nsg150
I00
sg151
I00
sg152
I35
sg153
I00
sg154
I110
sg156
S'Flux'
p373
sa(dp374
g149
Nsg150
I00
sg151
I00
sg152
I10
sg153
I00
sg154
I110
sg156
S'Scathe'
p375
sasg160
(lp376
I0
aI80
aI0
aI90
aI60
aI40
aI40
aI80
asg162
I22
sg163
(lp377
(I22
I0
tp378
a(I2
I0
tp379
a(I9
I0
tp380
a(I4
I0
tp381
a(I5
I0
tp382
a(I2
I0
tp383
a(I4
I0
tp384
a(I9
I0
tp385
a(I7
I0
tp386
a(I9
I0
tp387
asg175
S'0'
sg176
S'Empire'
p388
sg178
S'Guard at the Tyrana Prison'
p389
sg180
(lp390
sg184
(lp391
(dp392
g187
Nsg188
Nsg189
Nsg190
(lp393
sg192
Nsg193
Nsg156
g249
sa(dp394
g187
Nsg188
Nsg189
Nsg190
(lp395
sg192
Nsg193
Nsg156
g252
sasg201
(dp396
g203
I0
sg204
I0
sg205
I0
ssg206
I00
sg207
I110
sg208
(lp397
I0
aI0
aI0
aI0
aI0
aI0
aI16
asg210
S'Guard'
p398
sg212
I3
sg213
I7
sg214
S'M'
sg215
I0
sg216
S'Shaman'
p399
sg218
I0
sg219
S'enemy'
p400
sg221
(I18
I9
tp401
sa(dp402
g141
S'SoftGuard'
p403
sg143
(lp404
I100
aI30
aI100
aI65
aI60
aI40
aI40
aI80
asg145
I00
sg146
(lp405
(dp406
g149
Nsg150
I00
sg151
I00
sg152
I35
sg153
I00
sg154
I111
sg156
S'Flux'
p407
sa(dp408
g149
Nsg150
I00
sg151
I00
sg152
I5
sg153
I00
sg154
I111
sg156
S'Hex'
p409
sasg160
(lp410
I0
aI80
aI0
aI90
aI60
aI40
aI40
aI80
asg162
I22
sg163
(lp411
(I22
I0
tp412
a(I2
I0
tp413
a(I9
I0
tp414
a(I4
I0
tp415
a(I5
I0
tp416
a(I2
I0
tp417
a(I4
I0
tp418
a(I9
I0
tp419
a(I7
I0
tp420
a(I9
I0
tp421
asg175
S'0'
sg176
S'Empire'
p422
sg178
S'Guard at the Tyrana Prison'
p423
sg180
(lp424
sg184
(lp425
(dp426
g187
Nsg188
Nsg189
Nsg190
(lp427
sg192
Nsg193
Nsg156
g249
sa(dp428
g187
Nsg188
Nsg189
Nsg190
(lp429
sg192
Nsg193
Nsg156
g252
sasg201
(dp430
g203
I0
sg204
I0
sg205
I0
ssg206
I00
sg207
I111
sg208
(lp431
I0
aI0
aI0
aI0
aI0
aI0
aI16
asg210
S'Guard'
p432
sg212
I3
sg213
I7
sg214
S'M'
sg215
I0
sg216
S'Shaman'
p433
sg218
I0
sg219
S'enemy'
p434
sg221
(I7
I9
tp435
sa(dp436
g141
S'SoftGuard'
p437
sg143
(lp438
I100
aI30
aI100
aI65
aI60
aI40
aI40
aI80
asg145
I00
sg146
(lp439
(dp440
g149
Nsg150
I00
sg151
I00
sg152
I35
sg153
I00
sg154
I112
sg156
S'Flux'
p441
sa(dp442
g149
Nsg150
I00
sg151
I00
sg152
I5
sg153
I00
sg154
I112
sg156
S'Hex'
p443
sasg160
(lp444
I0
aI80
aI0
aI90
aI60
aI40
aI40
aI80
asg162
I22
sg163
(lp445
(I22
I0
tp446
a(I2
I0
tp447
a(I9
I0
tp448
a(I4
I0
tp449
a(I5
I0
tp450
a(I2
I0
tp451
a(I4
I0
tp452
a(I9
I0
tp453
a(I7
I0
tp454
a(I9
I0
tp455
asg175
S'0'
sg176
S'Empire'
p456
sg178
S'Guard at the Tyrana Prison'
p457
sg180
(lp458
sg184
(lp459
(dp460
g187
Nsg188
Nsg189
Nsg190
(lp461
sg192
Nsg193
Nsg156
g249
sa(dp462
g187
Nsg188
Nsg189
Nsg190
(lp463
sg192
Nsg193
Nsg156
g252
sasg201
(dp464
g203
I0
sg204
I0
sg205
I0
ssg206
I00
sg207
I112
sg208
(lp465
I0
aI0
aI0
aI0
aI0
aI0
aI16
asg210
S'Guard'
p466
sg212
I3
sg213
I7
sg214
S'M'
sg215
I0
sg216
S'Shaman'
p467
sg218
I0
sg219
S'enemy'
p468
sg221
(I17
I9
tp469
sa(dp470
g141
S'Attack_3'
p471
sg143
(lp472
I160
aI80
aI20
aI60
aI30
aI50
aI80
aI40
asg145
I00
sg146
(lp473
(dp474
g149
Nsg150
I00
sg151
I01
sg152
I15
sg153
I00
sg154
I113
sg156
S'Short Spear'
p475
sa(dp476
g149
Nsg150
I00
sg151
I00
sg152
I3
sg153
I00
sg154
I113
sg156
S'Potion'
p477
sasg160
(lp478
I60
aI80
aI20
aI60
aI80
aI0
aI80
aI40
asg162
I26
sg163
(lp479
(I26
I0
tp480
a(I9
I0
tp481
a(I1
I0
tp482
a(I6
I0
tp483
a(I2
I0
tp484
a(I3
I0
tp485
a(I13
I0
tp486
a(I3
I0
tp487
a(I12
I0
tp488
a(I9
I0
tp489
asg175
S'0'
sg176
S'Empire'
p490
sg178
S'Guard at the Tyrana Prison'
p491
sg180
(lp492
sg184
(lp493
(dp494
g187
Nsg188
Nsg189
Nsg190
(lp495
sg192
Nsg193
Nsg156
S'Provoke'
p496
sa(dp497
g187
Nsg188
Nsg189
Nsg190
(lp498
sg192
I0
sg193
Nsg156
S'Shove'
p499
sasg201
(dp500
g203
I0
sg204
I0
sg205
I0
ssg206
I00
sg207
I113
sg208
(lp501
I0
aI16
aI0
aI0
aI0
aI0
aI0
asg210
S'Guard'
p502
sg212
I2
sg213
I7
sg214
S'M'
sg215
I0
sg216
S'Knight'
p503
sg218
I0
sg219
S'enemy'
p504
sg221
(I6
I10
tp505
sa(dp506
g141
S'Attack_3'
p507
sg143
(lp508
I160
aI80
aI20
aI60
aI30
aI50
aI80
aI40
asg145
I00
sg146
(lp509
(dp510
g149
Nsg150
I00
sg151
I00
sg152
I20
sg153
I00
sg154
I114
sg156
S'Javelin'
p511
sa(dp512
g149
Nsg150
I00
sg151
I00
sg152
I30
sg153
I00
sg154
I114
sg156
S'Steel Lance'
p513
sasg160
(lp514
I60
aI80
aI20
aI60
aI80
aI0
aI80
aI40
asg162
I26
sg163
(lp515
(I26
I0
tp516
a(I9
I0
tp517
a(I1
I0
tp518
a(I6
I0
tp519
a(I2
I0
tp520
a(I3
I0
tp521
a(I13
I0
tp522
a(I3
I0
tp523
a(I12
I0
tp524
a(I9
I0
tp525
asg175
S'0'
sg176
S'Empire'
p526
sg178
S'Guard at the Tyrana Prison'
p527
sg180
(lp528
sg184
(lp529
(dp530
g187
Nsg188
Nsg189
Nsg190
(lp531
sg192
Nsg193
Nsg156
g496
sa(dp532
g187
Nsg188
Nsg189
Nsg190
(lp533
sg192
I0
sg193
Nsg156
g499
sasg201
(dp534
g203
I0
sg204
I0
sg205
I0
ssg206
I00
sg207
I114
sg208
(lp535
I0
aI16
aI0
aI0
aI0
aI0
aI0
asg210
S'Guard'
p536
sg212
I2
sg213
I7
sg214
S'M'
sg215
I0
sg216
S'Knight'
p537
sg218
I0
sg219
S'enemy'
p538
sg221
(I18
I10
tp539
sa(dp540
g141
S'Attack_3'
p541
sg143
(lp542
I170
aI110
aI20
aI70
aI60
aI30
aI40
aI30
asg145
I00
sg146
(lp543
(dp544
g149
Nsg150
I00
sg151
I00
sg152
I45
sg153
I00
sg154
I115
sg156
S'Iron Axe'
p545
sasg160
(lp546
I60
aI80
aI60
aI60
aI80
aI40
aI20
aI40
asg162
I33
sg163
(lp547
(I33
I0
tp548
a(I13
I0
tp549
a(I1
I0
tp550
a(I7
I0
tp551
a(I8
I0
tp552
a(I2
I0
tp553
a(I5
I0
tp554
a(I2
I0
tp555
a(I11
I0
tp556
a(I10
I0
tp557
asg175
S'0'
sg176
S'Empire'
p558
sg178
S'Guard at the Tyrana Prison'
p559
sg180
(lp560
sg184
(lp561
(dp562
g187
Nsg188
Nsg189
Nsg190
(lp563
sg192
I0
sg193
Nsg156
S'Cleave'
p564
sa(dp565
g187
Nsg188
Nsg189
Nsg190
(lp566
sg192
I0
sg193
Nsg156
S'Shove'
p567
sasg201
(dp568
g203
I0
sg204
I0
sg205
I0
ssg206
I00
sg207
I115
sg208
(lp569
I0
aI0
aI1
aI0
aI0
aI0
aI0
asg210
S'Guard'
p570
sg212
I1
sg213
I9
sg214
S'M'
sg215
I0
sg216
S'Fighter'
p571
sg218
I0
sg219
S'enemy'
p572
sg221
(I7
I10
tp573
sa(dp574
g141
S'Attack_3'
p575
sg143
(lp576
I170
aI110
aI20
aI70
aI60
aI30
aI40
aI30
asg145
I00
sg146
(lp577
(dp578
g149
Nsg150
I00
sg151
I00
sg152
I45
sg153
I00
sg154
I116
sg156
S'Iron Axe'
p579
sasg160
(lp580
I60
aI80
aI60
aI60
aI80
aI40
aI20
aI40
asg162
I33
sg163
(lp581
(I33
I0
tp582
a(I13
I0
tp583
a(I1
I0
tp584
a(I7
I0
tp585
a(I8
I0
tp586
a(I2
I0
tp587
a(I5
I0
tp588
a(I2
I0
tp589
a(I11
I0
tp590
a(I10
I0
tp591
asg175
S'0'
sg176
S'Empire'
p592
sg178
S'Guard at the Tyrana Prison'
p593
sg180
(lp594
sg184
(lp595
(dp596
g187
Nsg188
Nsg189
Nsg190
(lp597
sg192
I0
sg193
Nsg156
g564
sa(dp598
g187
Nsg188
Nsg189
Nsg190
(lp599
sg192
I0
sg193
Nsg156
g567
sasg201
(dp600
g203
I0
sg204
I0
sg205
I0
ssg206
I00
sg207
I116
sg208
(lp601
I0
aI0
aI1
aI0
aI0
aI0
aI0
asg210
S'Guard'
p602
sg212
I1
sg213
I9
sg214
S'M'
sg215
I0
sg216
S'Fighter'
p603
sg218
I0
sg219
S'enemy'
p604
sg221
(I17
I10
tp605
sa(dp606
g141
S'Attack'
p607
sg143
(lp608
I140
aI70
aI50
aI80
aI80
aI60
aI30
aI40
asg145
I00
sg146
(lp609
(dp610
g149
Nsg150
I00
sg151
I00
sg152
I20
sg153
I00
sg154
I117
sg156
S'Mithril Sword'
p611
sa(dp612
g149
Nsg150
I00
sg151
I01
sg152
I1
sg153
I00
sg154
I117
sg156
S'Energy Ring'
p613
sasg160
(lp614
I20
aI60
aI0
aI40
aI40
aI80
aI40
aI20
asg162
I27
sg163
(lp615
(I27
I0
tp616
a(I9
I0
tp617
a(I6
I0
tp618
a(I15
I0
tp619
a(I16
I0
tp620
a(I4
I0
tp621
a(I4
I0
tp622
a(I4
I0
tp623
a(I7
I0
tp624
a(I11
I0
tp625
asg175
S'0'
sg176
S'Empire'
p626
sg178
S'Guard at the Tyrana Prison'
p627
sg180
(lp628
sg184
(lp629
(dp630
g187
Nsg188
Nsg189
Nsg190
(lp631
sg192
Nsg193
Nsg156
g194
sa(dp632
g187
Nsg188
Nsg189
Nsg190
(lp633
sg192
Nsg193
Nsg156
g197
sasg201
(dp634
g203
I0
sg204
I0
sg205
I0
ssg206
I00
sg207
I117
sg208
(lp635
I41
aI0
aI0
aI0
aI0
aI0
aI0
asg210
S'Guard'
p636
sg212
I0
sg213
I9
sg214
S'M'
sg215
I0
sg216
S'Myrmidon'
p637
sg218
I0
sg219
S'enemy'
p638
sg221
(I12
I8
tp639
sa(dp640
g141
S'Attack'
p641
sg143
(lp642
I100
aI20
aI60
aI85
aI65
aI90
aI20
aI100
asg145
I00
sg146
(lp643
(dp644
g149
Nsg150
I00
sg151
I00
sg152
I35
sg153
I00
sg154
I118
sg156
S'Glimmer'
p645
sa(dp646
g149
Nsg150
I00
sg151
I00
sg152
I15
sg153
I00
sg154
I118
sg156
S'Mend'
p647
sasg160
(lp648
I0
aI40
aI20
aI95
aI55
aI30
aI40
aI0
asg162
I23
sg163
(lp649
(I23
I0
tp650
a(I1
I0
tp651
a(I5
I0
tp652
a(I7
I0
tp653
a(I6
I0
tp654
a(I6
I0
tp655
a(I1
I0
tp656
a(I13
I0
tp657
a(I5
I0
tp658
a(I11
I0
tp659
asg175
S'0'
sg176
S'Empire'
p660
sg178
S'Guard at the Tyrana Prison'
p661
sg180
(lp662
sg184
(lp663
(dp664
g187
Nsg188
Nsg189
Nsg190
(lp665
sg192
Nsg193
Nsg156
S'Healtouch'
p666
sa(dp667
g187
I1
sg188
Nsg189
Nsg190
(lp668
sg192
Nsg193
Nsg156
S'Miracle'
p669
sasg201
(dp670
g203
I0
sg204
I0
sg205
I0
ssg206
I00
sg207
I118
sg208
(lp671
I0
aI0
aI0
aI0
aI16
aI0
aI0
asg210
S'Guard'
p672
sg212
I3
sg213
I8
sg214
S'M'
sg215
I0
sg216
S'Mystic'
p673
sg218
I0
sg219
S'enemy'
p674
sg221
(I2
I8
tp675
sa(dp676
g141
S'Attack'
p677
sg143
(lp678
I100
aI20
aI60
aI85
aI65
aI90
aI20
aI100
asg145
I00
sg146
(lp679
(dp680
g149
Nsg150
I00
sg151
I00
sg152
I35
sg153
I00
sg154
I119
sg156
S'Glimmer'
p681
sa(dp682
g149
Nsg150
I00
sg151
I00
sg152
I10
sg153
I00
sg154
I119
sg156
S'Fortune'
p683
sasg160
(lp684
I0
aI40
aI20
aI95
aI55
aI30
aI40
aI0
asg162
I23
sg163
(lp685
(I23
I0
tp686
a(I1
I0
tp687
a(I5
I0
tp688
a(I7
I0
tp689
a(I6
I0
tp690
a(I6
I0
tp691
a(I1
I0
tp692
a(I13
I0
tp693
a(I5
I0
tp694
a(I11
I0
tp695
asg175
S'0'
sg176
S'Empire'
p696
sg178
S'Guard at the Tyrana Prison'
p697
sg180
(lp698
sg184
(lp699
(dp700
g187
Nsg188
Nsg189
Nsg190
(lp701
sg192
Nsg193
Nsg156
g666
sa(dp702
g187
I1
sg188
Nsg189
Nsg190
(lp703
sg192
Nsg193
Nsg156
g669
sasg201
(dp704
g203
I0
sg204
I0
sg205
I0
ssg206
I00
sg207
I119
sg208
(lp705
I0
aI0
aI0
aI0
aI1
aI0
aI0
asg210
S'Guard'
p706
sg212
I3
sg213
I8
sg214
S'M'
sg215
I0
sg216
S'Mystic'
p707
sg218
I0
sg219
S'enemy'
p708
sg221
(I22
I8
tp709
sa(dp710
g141
S'Pursue'
p711
sg143
(lp712
I160
aI100
aI20
aI100
aI90
aI50
aI50
aI30
asg145
I00
sg146
(lp713
(dp714
g149
Nsg150
I00
sg151
I00
sg152
I45
sg153
I00
sg154
I153
sg156
S'Iron Lance'
p715
sasg160
(lp716
I20
aI0
aI40
aI0
aI30
aI50
aI50
aI10
asg162
I31
sg163
(lp717
(I31
I0
tp718
a(I10
I0
tp719
a(I1
I0
tp720
a(I13
I0
tp721
a(I6
I0
tp722
a(I3
I0
tp723
a(I3
I0
tp724
a(I2
I0
tp725
a(I8
I3
tp726
a(I10
I0
tp727
asg175
S'pack_l7_1'
p728
sg176
S'Empire'
p729
sg178
S'Guard at the Tyrana Prison'
p730
sg180
(lp731
sg184
(lp732
(dp733
g187
Nsg188
Nsg189
Nsg190
(lp734
sg192
Nsg193
Nsg156
S'Synergy'
p735
sa(dp736
g187
Nsg188
Nsg189
Nsg190
(lp737
sg192
Nsg193
Nsg156
S'fConstitution +3'
p738
sasg201
(dp739
g203
I0
sg204
I0
sg205
I0
ssg206
I00
sg207
I153
sg208
(lp740
I0
aI1
aI0
aI0
aI0
aI0
aI0
asg210
S'Guard'
p741
sg212
I1
sg213
I8
sg214
S'M'
sg215
I0
sg216
S'Soldier'
p742
sg218
I0
sg219
S'enemy'
p743
sg221
Nsa(dp744
g141
S'Pursue'
p745
sg143
(lp746
I160
aI100
aI20
aI100
aI90
aI50
aI50
aI30
asg145
I00
sg146
(lp747
(dp748
g149
Nsg150
I00
sg151
I00
sg152
I20
sg153
I00
sg154
I154
sg156
S'Javelin'
p749
sasg160
(lp750
I20
aI0
aI40
aI0
aI30
aI50
aI50
aI10
asg162
I31
sg163
(lp751
(I31
I0
tp752
a(I10
I0
tp753
a(I1
I0
tp754
a(I13
I0
tp755
a(I6
I0
tp756
a(I3
I0
tp757
a(I3
I0
tp758
a(I2
I2
tp759
a(I8
I0
tp760
a(I10
I0
tp761
asg175
S'pack_l7_2'
p762
sg176
S'Empire'
p763
sg178
S'Guard at the Tyrana Prison'
p764
sg180
(lp765
sg184
(lp766
(dp767
g187
Nsg188
Nsg189
Nsg190
(lp768
sg192
Nsg193
Nsg156
g735
sa(dp769
g187
Nsg188
Nsg189
Nsg190
(lp770
sg192
Nsg193
Nsg156
S'fResistance +2'
p771
sasg201
(dp772
g203
I0
sg204
I0
sg205
I0
ssg206
I00
sg207
I154
sg208
(lp773
I0
aI1
aI0
aI0
aI0
aI0
aI0
asg210
S'Guard'
p774
sg212
I1
sg213
I8
sg214
S'M'
sg215
I0
sg216
S'Soldier'
p775
sg218
I0
sg219
S'enemy'
p776
sg221
Nsa(dp777
g141
S'Pursue'
p778
sg143
(lp779
I160
aI100
aI20
aI100
aI90
aI50
aI50
aI30
asg145
I00
sg146
(lp780
(dp781
g149
Nsg150
I00
sg151
I00
sg152
I45
sg153
I00
sg154
I155
sg156
S'Iron Lance'
p782
sasg160
(lp783
I20
aI0
aI40
aI0
aI30
aI50
aI50
aI10
asg162
I31
sg163
(lp784
(I31
I0
tp785
a(I10
I0
tp786
a(I1
I0
tp787
a(I13
I0
tp788
a(I6
I0
tp789
a(I3
I0
tp790
a(I3
I0
tp791
a(I2
I0
tp792
a(I8
I3
tp793
a(I10
I0
tp794
asg175
S'pack_r7_1'
p795
sg176
S'Empire'
p796
sg178
S'Guard at the Tyrana Prison'
p797
sg180
(lp798
sg184
(lp799
(dp800
g187
Nsg188
Nsg189
Nsg190
(lp801
sg192
Nsg193
Nsg156
g735
sa(dp802
g187
Nsg188
Nsg189
Nsg190
(lp803
sg192
Nsg193
Nsg156
g738
sasg201
(dp804
g203
I0
sg204
I0
sg205
I0
ssg206
I00
sg207
I155
sg208
(lp805
I0
aI1
aI0
aI0
aI0
aI0
aI0
asg210
S'Guard'
p806
sg212
I1
sg213
I8
sg214
S'M'
sg215
I0
sg216
S'Soldier'
p807
sg218
I0
sg219
S'enemy'
p808
sg221
Nsa(dp809
g141
S'Pursue'
p810
sg143
(lp811
I160
aI100
aI20
aI100
aI90
aI50
aI50
aI30
asg145
I00
sg146
(lp812
(dp813
g149
Nsg150
I00
sg151
I00
sg152
I20
sg153
I00
sg154
I156
sg156
S'Javelin'
p814
sasg160
(lp815
I20
aI0
aI40
aI0
aI30
aI50
aI50
aI10
asg162
I31
sg163
(lp816
(I31
I0
tp817
a(I10
I0
tp818
a(I1
I0
tp819
a(I13
I0
tp820
a(I6
I0
tp821
a(I3
I4
tp822
a(I3
I0
tp823
a(I2
I0
tp824
a(I8
I0
tp825
a(I10
I0
tp826
asg175
S'pack_r7_2'
p827
sg176
S'Empire'
p828
sg178
S'Guard at the Tyrana Prison'
p829
sg180
(lp830
sg184
(lp831
(dp832
g187
Nsg188
Nsg189
Nsg190
(lp833
sg192
Nsg193
Nsg156
g735
sa(dp834
g187
Nsg188
Nsg189
Nsg190
(lp835
sg192
Nsg193
Nsg156
S'fLuck +4'
p836
sasg201
(dp837
g203
I0
sg204
I0
sg205
I0
ssg206
I00
sg207
I156
sg208
(lp838
I0
aI1
aI0
aI0
aI0
aI0
aI0
asg210
S'Guard'
p839
sg212
I1
sg213
I8
sg214
S'M'
sg215
I0
sg216
S'Soldier'
p840
sg218
I0
sg219
S'enemy'
p841
sg221
Nsa(dp842
g141
S'Pursue'
p843
sg143
(lp844
I160
aI100
aI20
aI100
aI90
aI50
aI50
aI30
asg145
I00
sg146
(lp845
(dp846
g149
Nsg150
I00
sg151
I00
sg152
I45
sg153
I00
sg154
I157
sg156
S'Iron Lance'
p847
sasg160
(lp848
I80
aI0
aI60
aI0
aI20
aI0
aI0
aI40
asg162
I32
sg163
(lp849
(I32
I0
tp850
a(I11
I0
tp851
a(I1
I0
tp852
a(I14
I0
tp853
a(I7
I0
tp854
a(I4
I0
tp855
a(I4
I0
tp856
a(I2
I2
tp857
a(I8
I0
tp858
a(I10
I0
tp859
asg175
S'pack_l8_1'
p860
sg176
S'Empire'
p861
sg178
S'Guard at the Tyrana Prison'
p862
sg180
(lp863
sg184
(lp864
(dp865
g187
Nsg188
Nsg189
Nsg190
(lp866
sg192
Nsg193
Nsg156
g735
sa(dp867
g187
Nsg188
Nsg189
Nsg190
(lp868
sg192
Nsg193
Nsg156
g771
sasg201
(dp869
g203
I0
sg204
I0
sg205
I0
ssg206
I00
sg207
I157
sg208
(lp870
I0
aI1
aI0
aI0
aI0
aI0
aI0
asg210
S'Guard'
p871
sg212
I1
sg213
I9
sg214
S'M'
sg215
I0
sg216
S'Soldier'
p872
sg218
I0
sg219
S'enemy'
p873
sg221
Nsa(dp874
g141
S'Pursue'
p875
sg143
(lp876
I110
aI20
aI100
aI70
aI100
aI60
aI30
aI70
asg145
I00
sg146
(lp877
(dp878
g149
Nsg150
I00
sg151
I00
sg152
I30
sg153
I00
sg154
I158
sg156
S'Wind'
p879
sa(dp880
g149
Nsg150
I00
sg151
I00
sg152
I30
sg153
I00
sg154
I158
sg156
S'Water'
p881
sasg160
(lp882
I70
aI40
aI0
aI90
aI0
aI20
aI10
aI90
asg162
I23
sg163
(lp883
(I23
I0
tp884
a(I1
I0
tp885
a(I9
I0
tp886
a(I6
I0
tp887
a(I10
I2
tp888
a(I4
I0
tp889
a(I3
I0
tp890
a(I7
I0
tp891
a(I6
I3
tp892
a(I11
I0
tp893
asg175
S'pack_l8_2'
p894
sg176
S'Empire'
p895
sg178
S'Guard at the Tyrana Prison'
p896
sg180
(lp897
sg184
(lp898
(dp899
g187
Nsg188
Nsg189
Nsg190
(lp900
sg192
Nsg193
Nsg156
S'Speed +2'
p901
sa(dp902
g187
Nsg188
Nsg189
Nsg190
(lp903
sg192
Nsg193
Nsg156
S'Focus'
p904
sa(dp905
g187
Nsg188
Nsg189
Nsg190
(lp906
sg192
Nsg193
Nsg156
g738
sasg201
(dp907
g203
I0
sg204
I0
sg205
I0
ssg206
I00
sg207
I158
sg208
(lp908
I0
aI0
aI0
aI0
aI0
aI1
aI0
asg210
S'Guard'
p909
sg212
I3
sg213
I8
sg214
S'M'
sg215
I0
sg216
S'Mage'
p910
sg218
I0
sg219
S'enemy'
p911
sg221
Nsa(dp912
g141
S'Pursue'
p913
sg143
(lp914
I160
aI100
aI20
aI100
aI90
aI50
aI50
aI30
asg145
I00
sg146
(lp915
(dp916
g149
Nsg150
I00
sg151
I00
sg152
I45
sg153
I00
sg154
I159
sg156
S'Iron Lance'
p917
sasg160
(lp918
I80
aI0
aI60
aI0
aI20
aI0
aI0
aI40
asg162
I32
sg163
(lp919
(I32
I0
tp920
a(I11
I0
tp921
a(I1
I0
tp922
a(I14
I0
tp923
a(I7
I0
tp924
a(I4
I4
tp925
a(I4
I0
tp926
a(I2
I0
tp927
a(I8
I0
tp928
a(I10
I0
tp929
asg175
S'pack_r8_1'
p930
sg176
S'Empire'
p931
sg178
S'Guard at the Tyrana Prison'
p932
sg180
(lp933
sg184
(lp934
(dp935
g187
Nsg188
Nsg189
Nsg190
(lp936
sg192
Nsg193
Nsg156
g735
sa(dp937
g187
Nsg188
Nsg189
Nsg190
(lp938
sg192
Nsg193
Nsg156
g836
sasg201
(dp939
g203
I0
sg204
I0
sg205
I0
ssg206
I00
sg207
I159
sg208
(lp940
I0
aI1
aI0
aI0
aI0
aI0
aI0
asg210
S'Guard'
p941
sg212
I1
sg213
I9
sg214
S'M'
sg215
I0
sg216
S'Soldier'
p942
sg218
I0
sg219
S'enemy'
p943
sg221
Nsa(dp944
g141
S'Pursue'
p945
sg143
(lp946
I110
aI20
aI100
aI70
aI100
aI60
aI30
aI70
asg145
I00
sg146
(lp947
(dp948
g149
Nsg150
I00
sg151
I00
sg152
I30
sg153
I00
sg154
I160
sg156
S'Wind'
p949
sa(dp950
g149
Nsg150
I00
sg151
I00
sg152
I30
sg153
I00
sg154
I160
sg156
S'Water'
p951
sasg160
(lp952
I70
aI40
aI0
aI90
aI0
aI20
aI10
aI90
asg162
I23
sg163
(lp953
(I23
I0
tp954
a(I1
I0
tp955
a(I9
I0
tp956
a(I6
I0
tp957
a(I10
I2
tp958
a(I4
I0
tp959
a(I3
I0
tp960
a(I7
I0
tp961
a(I6
I3
tp962
a(I11
I0
tp963
asg175
S'pack_r8_2'
p964
sg176
S'Empire'
p965
sg178
S'Guard at the Tyrana Prison'
p966
sg180
(lp967
sg184
(lp968
(dp969
g187
Nsg188
Nsg189
Nsg190
(lp970
sg192
Nsg193
Nsg156
g901
sa(dp971
g187
Nsg188
Nsg189
Nsg190
(lp972
sg192
Nsg193
Nsg156
g904
sa(dp973
g187
Nsg188
Nsg189
Nsg190
(lp974
sg192
Nsg193
Nsg156
g738
sasg201
(dp975
g203
I0
sg204
I0
sg205
I0
ssg206
I00
sg207
I160
sg208
(lp976
I0
aI0
aI0
aI0
aI0
aI1
aI0
asg210
S'Guard'
p977
sg212
I3
sg213
I8
sg214
S'M'
sg215
I0
sg216
S'Mage'
p978
sg218
I0
sg219
S'enemy'
p979
sg221
Nsa(dp980
g141
S'Pursue'
p981
sg143
(lp982
I110
aI20
aI100
aI70
aI100
aI60
aI30
aI70
asg145
I00
sg146
(lp983
(dp984
g149
Nsg150
I00
sg151
I00
sg152
I30
sg153
I00
sg154
I161
sg156
S'Wind'
p985
sa(dp986
g149
Nsg150
I00
sg151
I00
sg152
I30
sg153
I00
sg154
I161
sg156
S'Water'
p987
sasg160
(lp988
I80
aI60
aI0
aI60
aI0
aI80
aI40
aI60
asg162
I24
sg163
(lp989
(I24
I0
tp990
a(I1
I0
tp991
a(I10
I0
tp992
a(I7
I0
tp993
a(I11
I2
tp994
a(I4
I0
tp995
a(I3
I0
tp996
a(I8
I0
tp997
a(I6
I3
tp998
a(I11
I0
tp999
asg175
S'pack_l9_1'
p1000
sg176
S'Empire'
p1001
sg178
S'Guard at the Tyrana Prison'
p1002
sg180
(lp1003
sg184
(lp1004
(dp1005
g187
Nsg188
Nsg189
Nsg190
(lp1006
sg192
Nsg193
Nsg156
g901
sa(dp1007
g187
Nsg188
Nsg189
Nsg190
(lp1008
sg192
Nsg193
Nsg156
g904
sa(dp1009
g187
Nsg188
Nsg189
Nsg190
(lp1010
sg192
Nsg193
Nsg156
g738
sasg201
(dp1011
g203
I0
sg204
I0
sg205
I0
ssg206
I00
sg207
I161
sg208
(lp1012
I0
aI0
aI0
aI0
aI0
aI1
aI0
asg210
S'Guard'
p1013
sg212
I3
sg213
I9
sg214
S'M'
sg215
I0
sg216
S'Mage'
p1014
sg218
I0
sg219
S'enemy'
p1015
sg221
Nsa(dp1016
g141
S'Pursue'
p1017
sg143
(lp1018
I110
aI20
aI100
aI70
aI100
aI60
aI30
aI70
asg145
I00
sg146
(lp1019
(dp1020
g149
Nsg150
I00
sg151
I00
sg152
I30
sg153
I00
sg154
I162
sg156
S'Wind'
p1021
sa(dp1022
g149
Nsg150
I00
sg151
I00
sg152
I30
sg153
I00
sg154
I162
sg156
S'Water'
p1023
sasg160
(lp1024
I80
aI60
aI0
aI60
aI0
aI80
aI40
aI60
asg162
I24
sg163
(lp1025
(I24
I0
tp1026
a(I1
I0
tp1027
a(I10
I0
tp1028
a(I7
I0
tp1029
a(I11
I2
tp1030
a(I4
I0
tp1031
a(I3
I0
tp1032
a(I8
I2
tp1033
a(I6
I0
tp1034
a(I11
I0
tp1035
asg175
S'pack_l9_2'
p1036
sg176
S'Empire'
p1037
sg178
S'Guard at the Tyrana Prison'
p1038
sg180
(lp1039
sg184
(lp1040
(dp1041
g187
Nsg188
Nsg189
Nsg190
(lp1042
sg192
Nsg193
Nsg156
g901
sa(dp1043
g187
Nsg188
Nsg189
Nsg190
(lp1044
sg192
Nsg193
Nsg156
g904
sa(dp1045
g187
Nsg188
Nsg189
Nsg190
(lp1046
sg192
Nsg193
Nsg156
g771
sasg201
(dp1047
g203
I0
sg204
I0
sg205
I0
ssg206
I00
sg207
I162
sg208
(lp1048
I0
aI0
aI0
aI0
aI0
aI1
aI0
asg210
S'Guard'
p1049
sg212
I3
sg213
I9
sg214
S'M'
sg215
I0
sg216
S'Mage'
p1050
sg218
I0
sg219
S'enemy'
p1051
sg221
Nsa(dp1052
g141
S'Pursue'
p1053
sg143
(lp1054
I110
aI20
aI100
aI70
aI100
aI60
aI30
aI70
asg145
I00
sg146
(lp1055
(dp1056
g149
Nsg150
I00
sg151
I00
sg152
I30
sg153
I00
sg154
I163
sg156
S'Wind'
p1057
sa(dp1058
g149
Nsg150
I00
sg151
I00
sg152
I30
sg153
I00
sg154
I163
sg156
S'Water'
p1059
sasg160
(lp1060
I80
aI60
aI0
aI60
aI0
aI80
aI40
aI60
asg162
I24
sg163
(lp1061
(I24
I0
tp1062
a(I1
I0
tp1063
a(I10
I0
tp1064
a(I7
I0
tp1065
a(I11
I2
tp1066
a(I4
I0
tp1067
a(I3
I0
tp1068
a(I8
I0
tp1069
a(I6
I3
tp1070
a(I11
I0
tp1071
asg175
S'pack_r9_1'
p1072
sg176
S'Empire'
p1073
sg178
S'Guard at the Tyrana Prison'
p1074
sg180
(lp1075
sg184
(lp1076
(dp1077
g187
Nsg188
Nsg189
Nsg190
(lp1078
sg192
Nsg193
Nsg156
g901
sa(dp1079
g187
Nsg188
Nsg189
Nsg190
(lp1080
sg192
Nsg193
Nsg156
g904
sa(dp1081
g187
Nsg188
Nsg189
Nsg190
(lp1082
sg192
Nsg193
Nsg156
g738
sasg201
(dp1083
g203
I0
sg204
I0
sg205
I0
ssg206
I00
sg207
I163
sg208
(lp1084
I0
aI0
aI0
aI0
aI0
aI1
aI0
asg210
S'Guard'
p1085
sg212
I3
sg213
I9
sg214
S'M'
sg215
I0
sg216
S'Mage'
p1086
sg218
I0
sg219
S'enemy'
p1087
sg221
Nsa(dp1088
g141
S'Pursue'
p1089
sg143
(lp1090
I110
aI20
aI100
aI70
aI100
aI60
aI30
aI70
asg145
I00
sg146
(lp1091
(dp1092
g149
Nsg150
I00
sg151
I00
sg152
I30
sg153
I00
sg154
I164
sg156
S'Wind'
p1093
sa(dp1094
g149
Nsg150
I00
sg151
I00
sg152
I30
sg153
I00
sg154
I164
sg156
S'Water'
p1095
sasg160
(lp1096
I80
aI60
aI0
aI60
aI0
aI80
aI40
aI60
asg162
I24
sg163
(lp1097
(I24
I0
tp1098
a(I1
I0
tp1099
a(I10
I0
tp1100
a(I7
I0
tp1101
a(I11
I2
tp1102
a(I4
I4
tp1103
a(I3
I0
tp1104
a(I8
I0
tp1105
a(I6
I0
tp1106
a(I11
I0
tp1107
asg175
S'pack_r9_2'
p1108
sg176
S'Empire'
p1109
sg178
S'Guard at the Tyrana Prison'
p1110
sg180
(lp1111
sg184
(lp1112
(dp1113
g187
Nsg188
Nsg189
Nsg190
(lp1114
sg192
Nsg193
Nsg156
g901
sa(dp1115
g187
Nsg188
Nsg189
Nsg190
(lp1116
sg192
Nsg193
Nsg156
g904
sa(dp1117
g187
Nsg188
Nsg189
Nsg190
(lp1118
sg192
Nsg193
Nsg156
g836
sasg201
(dp1119
g203
I0
sg204
I0
sg205
I0
ssg206
I00
sg207
I164
sg208
(lp1120
I0
aI0
aI0
aI0
aI0
aI1
aI0
asg210
S'Guard'
p1121
sg212
I3
sg213
I9
sg214
S'M'
sg215
I0
sg216
S'Mage'
p1122
sg218
I0
sg219
S'enemy'
p1123
sg221
Nsa(dp1124
g141
S'Unlock2'
p1125
sg143
(lp1126
I100
aI60
aI50
aI90
aI80
aI80
aI10
aI50
asg145
I00
sg146
(lp1127
(dp1128
g149
Nsg150
I00
sg151
I00
sg152
I20
sg153
I00
sg154
I165
sg156
S'Iron Knife'
p1129
sasg160
(lp1130
I0
aI20
aI50
aI30
aI60
aI60
aI70
aI50
asg162
I23
sg163
(lp1131
(I23
I0
tp1132
a(I7
I0
tp1133
a(I5
I0
tp1134
a(I9
I0
tp1135
a(I14
I0
tp1136
a(I5
I0
tp1137
a(I2
I0
tp1138
a(I5
I0
tp1139
a(I6
I0
tp1140
a(I11
I0
tp1141
asg175
S'pack_lt_1'
p1142
sg176
S'Empire'
p1143
sg178
S'Just doing some... uh... inventory management'
p1144
sg180
(lp1145
sg184
(lp1146
(dp1147
g187
Nsg188
Nsg189
Nsg190
(lp1148
sg192
Nsg193
Nsg156
S'Locktouch'
p1149
sa(dp1150
g187
Nsg188
Nsg189
Nsg190
(lp1151
sg192
Nsg193
Nsg156
S'Steal'
p1152
sasg201
(dp1153
g203
I0
sg204
I0
sg205
I0
ssg206
I00
sg207
I165
sg208
(lp1154
I1
aI0
aI0
aI0
aI0
aI0
aI0
asg210
S'Guard'
p1155
sg212
I0
sg213
I8
sg214
S'M'
sg215
I0
sg216
S'Thief'
p1156
sg218
I0
sg219
S'enemy'
p1157
sg221
Nsa(dp1158
g141
S'Unlock2'
p1159
sg143
(lp1160
I100
aI60
aI50
aI90
aI80
aI80
aI10
aI50
asg145
I00
sg146
(lp1161
(dp1162
g149
Nsg150
I00
sg151
I00
sg152
I20
sg153
I00
sg154
I166
sg156
S'Iron Knife'
p1163
sasg160
(lp1164
I0
aI20
aI50
aI30
aI60
aI60
aI70
aI50
asg162
I23
sg163
(lp1165
(I23
I0
tp1166
a(I7
I0
tp1167
a(I5
I0
tp1168
a(I9
I0
tp1169
a(I14
I0
tp1170
a(I5
I0
tp1171
a(I2
I0
tp1172
a(I5
I0
tp1173
a(I6
I0
tp1174
a(I11
I0
tp1175
asg175
S'pack_rt_1'
p1176
sg176
S'Empire'
p1177
sg178
S'Just doing some... uh... inventory management'
p1178
sg180
(lp1179
sg184
(lp1180
(dp1181
g187
Nsg188
Nsg189
Nsg190
(lp1182
sg192
Nsg193
Nsg156
g1149
sa(dp1183
g187
Nsg188
Nsg189
Nsg190
(lp1184
sg192
Nsg193
Nsg156
g1152
sasg201
(dp1185
g203
I0
sg204
I0
sg205
I0
ssg206
I00
sg207
I166
sg208
(lp1186
I1
aI0
aI0
aI0
aI0
aI0
aI0
asg210
S'Guard'
p1187
sg212
I0
sg213
I8
sg214
S'M'
sg215
I0
sg216
S'Thief'
p1188
sg218
I0
sg219
S'enemy'
p1189
sg221
Nsa(dp1190
g141
S'Pursue'
p1191
sg143
(lp1192
I180
aI100
aI10
aI80
aI60
aI30
aI50
aI30
asg145
I00
sg146
(lp1193
(dp1194
g149
Nsg150
I00
sg151
I00
sg152
I20
sg153
I00
sg154
S'Coyote'
p1195
sg156
S'Rusted Sword'
p1196
sa(dp1197
g149
Nsg150
I00
sg151
I00
sg152
I3
sg153
I00
sg154
g1195
sg156
S'Vulnerary'
p1198
sasg160
(lp1199
I0
aI0
aI0
aI0
aI0
aI0
aI0
aI0
asg162
I37
sg163
(lp1200
(I37
I0
tp1201
a(I14
I0
tp1202
a(I0
I0
tp1203
a(I17
I0
tp1204
a(I14
I0
tp1205
a(I6
I0
tp1206
a(I9
I0
tp1207
a(I3
I0
tp1208
a(I10
I0
tp1209
a(I10
I0
tp1210
asg175
S'0'
sg176
S'Resistance'
p1211
sg178
S'A troubled wandererer with a mysterious past.'
p1212
sg180
(lp1213
sg184
(lp1214
(dp1215
g187
Nsg188
Nsg189
Nsg190
(lp1216
sg192
Nsg193
Nsg156
S'Initiative'
p1217
sa(dp1218
g187
Nsg188
Nsg189
Nsg190
(lp1219
sg192
Nsg193
Nsg156
S'Resist Status'
p1220
sasg201
(dp1221
g203
I0
sg204
I0
sg205
I0
ssg206
I01
sg207
g1195
sg208
(lp1222
I41
aI0
aI0
aI0
aI0
aI0
aI0
asg210
S'Coyote'
p1223
sg212
I1
sg213
I9
sg214
S'M'
sg215
I0
sg216
S'Mercenary'
p1224
sg218
I0
sg219
S'other'
p1225
sg221
(I7
I27
tp1226
sa(dp1227
g141
S'AttackThiefEscape'
p1228
sg143
(lp1229
I0
aI0
aI0
aI0
aI0
aI0
aI0
aI0
asg145
I00
sg146
(lp1230
(dp1231
g149
Nsg150
I00
sg151
I00
sg152
I20
sg153
I00
sg154
S'Kiley'
p1232
sg156
S'Rusted Axe'
p1233
sasg160
(lp1234
I0
aI0
aI0
aI0
aI0
aI0
aI0
aI0
asg162
ccopy_reg
_reconstructor
p1235
(cCode.UnitObject
Stat
p1236
c__builtin__
object
p1237
NtRp1238
(dp1239
S'bonuses'
p1240
I0
sS'base_stat'
p1241
I40
sbsg163
(lp1242
(I40
I0
tp1243
a(I18
I0
tp1244
a(I1
I0
tp1245
a(I13
I0
tp1246
a(I12
I0
tp1247
a(I9
I0
tp1248
a(I8
I0
tp1249
a(I4
I0
tp1250
a(I11
I0
tp1251
a(I13
I0
tp1252
asg175
S'0'
sg176
S'Resistance'
p1253
sg178
S'Jovial leader by acclamation of the Tyrana prisoners.'
p1254
sg180
(lp1255
sg184
(lp1256
(dp1257
g187
Nsg188
Nsg189
Nsg190
(lp1258
sg192
Nsg193
Nsg156
S'Prescience'
p1259
sa(dp1260
g187
Nsg188
Nsg189
Nsg190
(lp1261
sg192
I0
sg193
Nsg156
S'Shove'
p1262
sa(dp1263
g187
Nsg188
Nsg189
Nsg190
(lp1264
sg192
Nsg193
Nsg156
S'Regeneration'
p1265
sasg201
(dp1266
S'damage'
p1267
I0
sS'kills'
p1268
I0
sS'healing'
p1269
I0
ssg206
I00
sg207
g1232
sg208
(lp1270
I0
aI0
aI76
aI0
aI0
aI0
aI0
asg210
S'Kiley'
p1271
sg212
I1
sg213
I12
sg214
S'M'
sg215
I0
sg216
S'Berserker'
p1272
sg218
I0
sg219
S'other'
p1273
sg221
Nsa(dp1274
g141
S'None'
p1275
sg143
(lp1276
I165
aI100
aI0
aI60
aI40
aI30
aI20
aI25
asg145
I00
sg146
(lp1277
(dp1278
g149
Nsg150
I00
sg151
I00
sg152
I20
sg153
I00
sg154
I101
sg156
S'Rusted Axe'
p1279
sasg160
(lp1280
I25
aI0
aI0
aI0
aI0
aI50
aI0
aI25
asg162
I28
sg163
(lp1281
(I28
I0
tp1282
a(I10
I0
tp1283
a(I0
I0
tp1284
a(I4
I0
tp1285
a(I7
I0
tp1286
a(I1
I0
tp1287
a(I4
I0
tp1288
a(I1
I0
tp1289
a(I12
I0
tp1290
a(I11
I0
tp1291
asg175
S'C1_2'
p1292
sg176
S'Neutral'
p1293
sg178
S'Captive of the Tyrana prison'
p1294
sg180
(lp1295
sg184
(lp1296
(dp1297
g187
Nsg188
Nsg189
Nsg190
(lp1298
sg192
Nsg193
Nsg156
S'Fleet_of_Foot'
p1299
sa(dp1300
g187
Nsg188
Nsg189
Nsg190
(lp1301
sg192
I0
sg193
Nsg156
S'Shove'
p1302
sasg201
(dp1303
g203
I0
sg204
I0
sg205
I0
ssg206
I00
sg207
I101
sg208
(lp1304
I0
aI0
aI1
aI0
aI0
aI0
aI0
asg210
S'Prisoner'
p1305
sg212
I0
sg213
I6
sg214
S'M'
sg215
I0
sg216
S'Brigand'
p1306
sg218
I0
sg219
S'other'
p1307
sg221
(I0
I34
tp1308
sa(dp1309
g141
S'None'
p1310
sg143
(lp1311
I150
aI100
aI10
aI70
aI50
aI30
aI20
aI25
asg145
I00
sg146
(lp1312
(dp1313
g149
Nsg150
I00
sg151
I00
sg152
I20
sg153
I00
sg154
I102
sg156
S'Rusted Axe'
p1314
sasg160
(lp1315
I50
aI0
aI50
aI50
aI50
aI50
aI0
aI25
asg162
I26
sg163
(lp1316
(I26
I0
tp1317
a(I9
I0
tp1318
a(I0
I0
tp1319
a(I5
I0
tp1320
a(I8
I0
tp1321
a(I1
I0
tp1322
a(I4
I0
tp1323
a(I1
I0
tp1324
a(I11
I0
tp1325
a(I10
I0
tp1326
asg175
S'C1_3'
p1327
sg176
S'Neutral'
p1328
sg178
S'Captive of the Tyrana prison'
p1329
sg180
(lp1330
sg184
(lp1331
(dp1332
g187
Nsg188
Nsg189
Nsg190
(lp1333
sg192
Nsg193
Nsg156
g1259
sa(dp1334
g187
Nsg188
Nsg189
Nsg190
(lp1335
sg192
I0
sg193
Nsg156
g1262
sasg201
(dp1336
g203
I0
sg204
I0
sg205
I0
ssg206
I00
sg207
I102
sg208
(lp1337
I0
aI0
aI1
aI0
aI0
aI0
aI0
asg210
S'Prisoner'
p1338
sg212
I0
sg213
I6
sg214
S'M'
sg215
I0
sg216
S'Raider'
p1339
sg218
I0
sg219
S'other'
p1340
sg221
(I1
I34
tp1341
sa(dp1342
g141
S'None'
p1343
sg143
(lp1344
I100
aI0
aI0
aI0
aI0
aI0
aI0
aI0
asg145
I00
sg146
(lp1345
sg160
(lp1346
I0
aI0
aI0
aI0
aI0
aI0
aI0
aI0
asg162
I14
sg163
(lp1347
(I14
I0
tp1348
a(I1
I0
tp1349
a(I0
I0
tp1350
a(I1
I0
tp1351
a(I1
I0
tp1352
a(I1
I0
tp1353
a(I1
I0
tp1354
a(I0
I0
tp1355
a(I4
I0
tp1356
a(I9
I0
tp1357
asg175
S'C2_1'
p1358
sg176
S'Neutral'
p1359
sg178
S'Captive of the Tyrana prison'
p1360
sg180
(lp1361
sg184
(lp1362
sg201
(dp1363
g203
I0
sg204
I0
sg205
I0
ssg206
I00
sg207
I103
sg208
(lp1364
I0
aI0
aI0
aI0
aI0
aI0
asg210
S'Prisoner'
p1365
sg212
I0
sg213
I5
sg214
S'M'
sg215
I0
sg216
S'Citizen'
p1366
sg218
I0
sg219
S'other'
p1367
sg221
(I23
I34
tp1368
sa(dp1369
g141
S'None'
p1370
sg143
(lp1371
I100
aI0
aI0
aI0
aI0
aI0
aI0
aI0
asg145
I00
sg146
(lp1372
sg160
(lp1373
I0
aI0
aI0
aI0
aI0
aI0
aI0
aI0
asg162
I14
sg163
(lp1374
(I14
I0
tp1375
a(I1
I0
tp1376
a(I0
I0
tp1377
a(I1
I0
tp1378
a(I1
I0
tp1379
a(I1
I0
tp1380
a(I1
I0
tp1381
a(I0
I0
tp1382
a(I4
I0
tp1383
a(I9
I0
tp1384
asg175
S'C2_2'
p1385
sg176
S'Neutral'
p1386
sg178
S'Captive of the Tyrana prison'
p1387
sg180
(lp1388
sg184
(lp1389
sg201
(dp1390
g203
I0
sg204
I0
sg205
I0
ssg206
I00
sg207
I104
sg208
(lp1391
I0
aI0
aI0
aI0
aI0
aI0
asg210
S'Prisoner'
p1392
sg212
I0
sg213
I5
sg214
S'M'
sg215
I0
sg216
S'Citizen'
p1393
sg218
I0
sg219
S'other'
p1394
sg221
(I22
I33
tp1395
sa(dp1396
g141
S'None'
p1397
sg143
(lp1398
I100
aI0
aI0
aI0
aI0
aI0
aI0
aI0
asg145
I00
sg146
(lp1399
sg160
(lp1400
I0
aI0
aI0
aI0
aI0
aI0
aI0
aI0
asg162
I14
sg163
(lp1401
(I14
I0
tp1402
a(I1
I0
tp1403
a(I0
I0
tp1404
a(I1
I0
tp1405
a(I1
I0
tp1406
a(I1
I0
tp1407
a(I1
I0
tp1408
a(I0
I0
tp1409
a(I4
I0
tp1410
a(I9
I0
tp1411
asg175
S'C2_3'
p1412
sg176
S'Neutral'
p1413
sg178
S'Captive of the Tyrana prison'
p1414
sg180
(lp1415
sg184
(lp1416
sg201
(dp1417
g203
I0
sg204
I0
sg205
I0
ssg206
I00
sg207
I105
sg208
(lp1418
I0
aI0
aI0
aI0
aI0
aI0
asg210
S'Prisoner'
p1419
sg212
I0
sg213
I5
sg214
S'M'
sg215
I0
sg216
S'Citizen'
p1420
sg218
I0
sg219
S'other'
p1421
sg221
(I24
I32
tp1422
sa(dp1423
g141
S'None'
p1424
sg143
(lp1425
I100
aI20
aI50
aI70
aI80
aI80
aI60
aI100
asg145
I00
sg146
(lp1426
(dp1427
g149
Nsg150
I00
sg151
I00
sg152
I15
sg153
I00
sg154
S'Sam'
p1428
sg156
S'Shine'
p1429
sa(dp1430
g149
Nsg150
I00
sg151
I00
sg152
I28
sg153
I00
sg154
g1428
sg156
S'Heal'
p1431
sa(dp1432
g149
Nsg150
I00
sg151
I00
sg152
I13
sg153
I00
sg154
g1428
sg156
S'Mend'
p1433
sa(dp1434
g149
Nsg150
I00
sg151
I00
sg152
I10
sg153
I00
sg154
g1428
sg156
S'Fortune'
p1435
sasg160
(lp1436
I0
aI20
aI50
aI70
aI80
aI80
aI60
aI0
asg162
g1235
(g1236
g1237
NtRp1437
(dp1438
g1240
I0
sg1241
I28
sbsg163
(lp1439
(I28
I0
tp1440
a(I4
I0
tp1441
a(I11
I0
tp1442
a(I12
I0
tp1443
a(I13
I0
tp1444
a(I10
I0
tp1445
a(I5
I0
tp1446
a(I12
I0
tp1447
a(I9
I0
tp1448
a(I11
I0
tp1449
asg175
S'Sam'
p1450
sg176
S'Resistance'
p1451
sg178
S"The resistance's leader. Ambitious and inquisitive."
p1452
sg180
(lp1453
sg184
(lp1454
(dp1455
g187
Nsg188
Nsg189
Nsg190
(lp1456
sg192
I0
sg193
Nsg156
S'Refresh'
p1457
sa(dp1458
g187
Nsg188
Nsg189
Nsg190
(lp1459
sg192
Nsg193
Nsg156
S'Skill_Aura'
p1460
sasg201
(dp1461
S'damage'
p1462
I62
sS'kills'
p1463
I3
sS'healing'
p1464
I32
ssg206
I00
sg207
g1428
sg208
(lp1465
I0
aI0
aI0
aI0
aI42
aI0
aI0
asg210
S'Sam'
p1466
sg212
I3
sg213
I8
sg214
S'M'
sg215
I0
sg216
S'Tactician'
p1467
sg218
I98
sg219
S'player'
p1468
sg221
(I1
I26
tp1469
sa(dp1470
g141
S'None'
p1471
sg143
(lp1472
I80
aI10
aI100
aI80
aI70
aI50
aI60
aI80
asg145
I00
sg146
(lp1473
(dp1474
g149
Nsg150
I00
sg151
I00
sg152
I29
sg153
I00
sg154
S'Kayla'
p1475
sg156
S'Flux'
p1476
sa(dp1477
g149
Nsg150
I00
sg151
I00
sg152
I23
sg153
I00
sg154
g1475
sg156
S'Nyx'
p1478
sa(dp1479
g149
Nsg150
I00
sg151
I00
sg152
I8
sg153
I00
sg154
g1475
sg156
S'Scathe'
p1480
sa(dp1481
g149
Nsg150
I00
sg151
I00
sg152
I3
sg153
I00
sg154
g1475
sg156
S'Spiritbane'
p1482
sa(dp1483
g149
Nsg150
I00
sg151
I00
sg152
I1
sg153
I00
sg154
g1475
sg156
S'Vulnerary'
p1484
sasg160
(lp1485
I80
aI10
aI0
aI80
aI70
aI50
aI60
aI80
asg162
g1235
(g1236
g1237
NtRp1486
(dp1487
g1240
I0
sg1241
I28
sbsg163
(lp1488
(I28
I0
tp1489
a(I2
I0
tp1490
a(I15
I0
tp1491
a(I12
I0
tp1492
a(I11
I0
tp1493
a(I9
I0
tp1494
a(I7
I0
tp1495
a(I11
I0
tp1496
a(I6
I0
tp1497
a(I9
I0
tp1498
asg175
S'Kayla'
p1499
sg176
S'Resistance'
p1500
sg178
S'A scheming diplomat from the Confederacy.'
p1501
sg180
(lp1502
sg184
(lp1503
(dp1504
g187
Nsg188
Nsg189
Nsg190
(lp1505
sg192
Nsg193
Nsg156
S'Hex'
p1506
sa(dp1507
g187
Nsg188
Nsg189
Nsg190
(lp1508
sg192
Nsg193
Nsg156
S'Empowered'
p1509
sasg201
(dp1510
g1462
I87
sg1463
I3
sg1464
I0
ssg206
I00
sg207
g1475
sg208
(lp1511
I0
aI0
aI0
aI0
aI0
aI0
aI44
asg210
S'Kayla'
p1512
sg212
I3
sg213
I9
sg214
S'F'
sg215
I0
sg216
S'Shaman'
p1513
sg218
I35
sg219
S'player'
p1514
sg221
(I7
I22
tp1515
sa(dp1516
g141
S'None'
p1517
sg143
(lp1518
I110
aI100
aI30
aI110
aI120
aI90
aI60
aI50
asg145
I00
sg146
(lp1519
(dp1520
g149
Nsg150
I00
sg151
I00
sg152
I33
sg153
I00
sg154
S'Eliza'
p1521
sg156
S'Iron Lance'
p1522
sa(dp1523
g149
Nsg150
I00
sg151
I00
sg152
I23
sg153
I00
sg154
g1521
sg156
S'Steel Lance'
p1524
sa(dp1525
g149
Nsg150
I00
sg151
I00
sg152
I16
sg153
I00
sg154
g1521
sg156
S'Javelin'
p1526
sa(dp1527
g149
Nsg150
I00
sg151
I00
sg152
Nsg153
I00
sg154
I0
sg156
S"Prim's Charm"
p1528
sa(dp1529
g149
Nsg150
I00
sg151
I00
sg152
I2
sg153
I00
sg154
g1521
sg156
S'Vulnerary'
p1530
sasg160
(lp1531
I60
aI0
aI80
aI60
aI20
aI40
aI60
aI0
asg162
g1235
(g1236
g1237
NtRp1532
(dp1533
g1240
I5
sg1241
I23
sbsg163
(lp1534
(I23
I5
tp1535
a(I11
I0
tp1536
a(I1
I0
tp1537
a(I12
I0
tp1538
a(I16
I0
tp1539
a(I14
I0
tp1540
a(I8
I0
tp1541
a(I6
I0
tp1542
a(I7
I0
tp1543
a(I10
I0
tp1544
asg175
S'0'
sg176
S'Resistance'
p1545
sg178
S'A moody but hopeful soldier.'
p1546
sg180
(lp1547
sg184
(lp1548
(dp1549
g187
Nsg188
Nsg189
Nsg190
(lp1550
sg192
Nsg193
Nsg156
S'Synergy'
p1551
sa(dp1552
g187
Nsg188
Nsg189
Nsg190
(lp1553
sg192
Nsg193
Nsg156
S'Underdog'
p1554
sa(dp1555
g187
Nsg188
Nsg189
Nsg190
(lp1556
sg192
Nsg193
Nsg156
S'fMaximum HP +5'
p1557
sasg201
(dp1558
g1462
I153
sg1463
I4
sg1464
I0
ssg206
I00
sg207
g1521
sg208
(lp1559
I0
aI40
aI0
aI0
aI0
aI0
aI0
asg210
S'Eliza'
p1560
sg212
I1
sg213
I7
sg214
S'F'
sg215
I0
sg216
S'Soldier'
p1561
sg218
I65
sg219
S'player'
p1562
sg221
(I6
I25
tp1563
sa(dp1564
g141
S'None'
p1565
sg143
(lp1566
I160
aI80
aI50
aI110
aI120
aI120
aI50
aI60
asg145
I00
sg146
(lp1567
(dp1568
g149
Nsg150
I00
sg151
I00
sg152
I16
sg153
I00
sg154
S'Ophie'
p1569
sg156
S'Levin Sword'
p1570
sa(dp1571
g149
Nsg150
I00
sg151
I00
sg152
I31
sg153
I00
sg154
g1569
sg156
S'Iron Sword'
p1572
sa(dp1573
g149
Nsg150
I00
sg151
I00
sg152
I12
sg153
I00
sg154
g1569
sg156
S'Iron Knife'
p1574
sa(dp1575
g149
Nsg150
I00
sg151
I00
sg152
I24
sg153
I00
sg154
g1569
sg156
S'Steel Sword'
p1576
sa(dp1577
g149
Nsg150
I00
sg151
I00
sg152
I2
sg153
I00
sg154
I0
sg156
S'Vulnerary'
p1578
sasg160
(lp1579
I80
aI40
aI0
aI80
aI60
aI60
aI0
aI80
asg162
g1235
(g1236
g1237
NtRp1580
(dp1581
g1240
I0
sg1241
I30
sbsg163
(lp1582
(I30
I0
tp1583
a(I11
I0
tp1584
a(I6
I0
tp1585
a(I16
I0
tp1586
a(I18
I0
tp1587
a(I12
I0
tp1588
a(I7
I0
tp1589
a(I5
I0
tp1590
a(I7
I0
tp1591
a(I11
I0
tp1592
asg175
S'Ophie'
p1593
sg176
S'Resistance'
p1594
sg178
S'A strong-hearted renegade who often acts before he thinks.'
p1595
sg180
(lp1596
S'Lord'
p1597
asg184
(lp1598
(dp1599
g187
Nsg188
Nsg189
Nsg190
(lp1600
sg192
Nsg193
Nsg156
S'Riposte'
p1601
sa(dp1602
g187
Nsg188
Nsg189
Nsg190
(lp1603
sg192
Nsg193
Nsg156
S'Vantage'
p1604
sasg201
(dp1605
g1462
I74
sg1463
I3
sg1464
I0
ssg206
I00
sg207
g1569
sg208
(lp1606
I45
aI0
aI0
aI0
aI0
aI0
aI0
asg210
S'Ophie'
p1607
sg212
I0
sg213
I9
sg214
S'M'
sg215
I0
sg216
S'Myrmidon'
p1608
sg218
I2
sg219
S'player'
p1609
sg221
(I18
I23
tp1610
sa(dp1611
g141
S'None'
p1612
sg143
(lp1613
I100
aI20
aI100
aI60
aI80
aI120
aI35
aI120
asg145
I00
sg146
(lp1614
(dp1615
g149
Nsg150
I00
sg151
I00
sg152
I23
sg153
I00
sg154
S'Prim'
p1616
sg156
S'Glimmer'
p1617
sa(dp1618
g149
Nsg150
I00
sg151
I00
sg152
I22
sg153
I00
sg154
g1616
sg156
S'Shine'
p1619
sa(dp1620
g149
Nsg150
I00
sg151
I00
sg152
I1
sg153
I00
sg154
g1616
sg156
S'Heal'
p1621
sa(dp1622
g149
Nsg150
I00
sg151
I00
sg152
I8
sg153
I00
sg154
g1616
sg156
S'Mend'
p1623
sa(dp1624
g149
Nsg150
I00
sg151
I00
sg152
I10
sg153
I00
sg154
g1616
sg156
S'Mage Shield'
p1625
sasg160
(lp1626
I0
aI40
aI0
aI20
aI60
aI40
aI45
aI40
asg162
g1235
(g1236
g1237
NtRp1627
(dp1628
g1240
I0
sg1241
I24
sbsg163
(lp1629
(I24
I0
tp1630
a(I1
I0
tp1631
a(I10
I0
tp1632
a(I9
I0
tp1633
a(I13
I0
tp1634
a(I14
I0
tp1635
a(I3
I0
tp1636
a(I14
I0
tp1637
a(I5
I0
tp1638
a(I11
I0
tp1639
asg175
S'Prim'
p1640
sg176
S'Resistance'
p1641
sg178
S'A shy but kind-hearted young woman. Has an affinity with the spiritual.'
p1642
sg180
(lp1643
sg184
(lp1644
(dp1645
g187
Nsg188
Nsg189
Nsg190
(lp1646
sg192
Nsg193
Nsg156
S'Healtouch'
p1647
sa(dp1648
g187
I1
sg188
Nsg189
Nsg190
(lp1649
sg192
Nsg193
Nsg156
S'Miracle'
p1650
sasg201
(dp1651
g1462
I18
sg1463
I1
sg1464
I60
ssg206
I00
sg207
g1616
sg208
(lp1652
I0
aI0
aI0
aI0
aI49
aI0
aI0
asg210
S'Prim'
p1653
sg212
I3
sg213
I8
sg214
S'F'
sg215
I0
sg216
S'Mystic'
p1654
sg218
I97
sg219
S'player'
p1655
sg221
(I17
I24
tp1656
sa(dp1657
g141
S'None'
p1658
sg143
(lp1659
I160
aI120
aI10
aI90
aI80
aI70
aI50
aI30
asg145
I00
sg146
(lp1660
(dp1661
g149
Nsg150
I00
sg151
I00
sg152
I19
sg153
I00
sg154
S'Joel'
p1662
sg156
S'Iron Axe'
p1663
sa(dp1664
g149
Nsg150
I00
sg151
I00
sg152
I13
sg153
I00
sg154
g1662
sg156
S'Hatchet'
p1665
sa(dp1666
g149
Nsg150
I00
sg151
I00
sg152
I17
sg153
I00
sg154
g1662
sg156
S'Hand Axe'
p1667
sa(dp1668
g149
Nsg150
I00
sg151
I00
sg152
I1
sg153
I00
sg154
g1662
sg156
S'Skeleton Key'
p1669
sasg160
(lp1670
I20
aI40
aI70
aI30
aI60
aI90
aI50
aI10
asg162
I37
sg163
(lp1671
(I42
I0
tp1672
a(I16
I0
tp1673
a(I0
I0
tp1674
a(I11
I0
tp1675
a(I11
I0
tp1676
a(I8
I0
tp1677
a(I8
I0
tp1678
a(I2
I0
tp1679
a(I11
I0
tp1680
a(I10
I0
tp1681
asg175
S'0'
sg176
S'Resistance'
p1682
sg178
S'A jovial former sailor. Always ready for a new adventure.'
p1683
sg180
(lp1684
sg184
(lp1685
(dp1686
g187
Nsg188
Nsg189
Nsg190
(lp1687
sg192
I20
sg193
Nsg156
S'Cleave'
p1688
sa(dp1689
g187
Nsg188
Nsg189
Nsg190
(lp1690
sg192
I0
sg193
Nsg156
S'Shove'
p1691
sasg201
(dp1692
g1462
I138
sg1463
I4
sg1464
I0
ssg206
I00
sg207
g1662
sg208
(lp1693
I0
aI0
aI64
aI0
aI0
aI0
aI0
asg210
S'Joel'
p1694
sg212
I1
sg213
I10
sg214
S'M'
sg215
I0
sg216
S'Fighter'
p1695
sg218
I63
sg219
S'player'
p1696
sg221
(I12
I27
tp1697
sa(dp1698
g141
S'None'
p1699
sg143
(lp1700
I120
aI80
aI50
aI100
aI120
aI60
aI30
aI60
asg145
I00
sg146
(lp1701
(dp1702
g149
Nsg150
I00
sg151
I00
sg152
I19
sg153
I00
sg154
S'Nia'
p1703
sg156
S'Longbow'
p1704
sa(dp1705
g149
Nsg150
I00
sg151
I00
sg152
I23
sg153
I00
sg154
g1703
sg156
S'Great Bow'
p1706
sa(dp1707
g149
Nsg150
I00
sg151
I00
sg152
I25
sg153
I00
sg154
g1703
sg156
S'Willow Bow'
p1708
sa(dp1709
g149
Nsg150
I00
sg151
I00
sg152
I28
sg153
I00
sg154
g1703
sg156
S'Oak Bow'
p1710
sa(dp1711
g149
Nsg150
I00
sg151
I00
sg152
I1
sg153
I00
sg154
I0
sg156
g1578
sasg160
(lp1712
I0
aI0
aI50
aI0
aI0
aI0
aI50
aI0
asg162
g1235
(g1236
g1237
NtRp1713
(dp1714
g1240
I0
sg1241
I25
sbsg163
(lp1715
(I25
I0
tp1716
a(I10
I0
tp1717
a(I5
I0
tp1718
a(I12
I0
tp1719
a(I14
I0
tp1720
a(I8
I0
tp1721
a(I4
I0
tp1722
a(I5
I0
tp1723
a(I6
I0
tp1724
a(I10
I0
tp1725
asg175
S'0'
sg176
S'Resistance'
p1726
sg178
S'A quiet archer most at home in the wilderness.'
p1727
sg180
(lp1728
sg184
(lp1729
(dp1730
g187
Nsg188
Nsg189
Nsg190
(lp1731
sg192
Nsg193
Nsg156
S'Prescience'
p1732
sa(dp1733
g187
Nsg188
Nsg189
Nsg190
(lp1734
sg192
I12
sg193
Nsg156
S'Critical'
p1735
sasg201
(dp1736
g1462
I96
sg1463
I4
sg1464
I0
ssg206
I00
sg207
g1703
sg208
(lp1737
I0
aI0
aI0
aI50
aI0
aI0
aI0
asg210
S'Nia'
p1738
sg212
I0
sg213
I8
sg214
S'F'
sg215
I0
sg216
S'Archer'
p1739
sg218
I87
sg219
S'player'
p1740
sg221
(I18
I25
tp1741
sa(dp1742
g141
S'None'
p1743
sg143
(lp1744
I90
aI20
aI130
aI60
aI90
aI90
aI30
aI80
asg145
I00
sg146
(lp1745
(dp1746
g149
Nsg150
I00
sg151
I00
sg152
I11
sg153
I00
sg154
S'Althea'
p1747
sg156
S'Wind'
p1748
sa(dp1749
g149
Nsg150
I00
sg151
I00
sg152
I28
sg153
I00
sg154
g1747
sg156
S'Earth'
p1750
sa(dp1751
g149
Nsg150
I00
sg151
I00
sg152
I11
sg153
I00
sg154
g1747
sg156
S'Fire'
p1752
sa(dp1753
g149
Nsg150
I00
sg151
I00
sg152
I18
sg153
I00
sg154
g1747
sg156
S'Water'
p1754
sa(dp1755
g149
Nsg150
I00
sg151
I00
sg152
I2
sg153
I00
sg154
I0
sg156
S'Vulnerary'
p1756
sasg160
(lp1757
I20
aI60
aI40
aI80
aI20
aI20
aI40
aI40
asg162
g1235
(g1236
g1237
NtRp1758
(dp1759
g1240
I5
sg1241
I24
sbsg163
(lp1760
(I24
I5
tp1761
a(I2
I0
tp1762
a(I17
I0
tp1763
a(I10
I0
tp1764
a(I14
I2
tp1765
a(I15
I0
tp1766
a(I5
I0
tp1767
a(I11
I0
tp1768
a(I5
I0
tp1769
a(I11
I0
tp1770
asg175
S'0'
sg176
S'Resistance'
p1771
sg178
S'A forthright but elegant and refined sorceress.'
p1772
sg180
(lp1773
sg184
(lp1774
(dp1775
g187
Nsg188
Nsg189
Nsg190
(lp1776
sg192
Nsg193
Nsg156
S'Focus'
p1777
sa(dp1778
g187
Nsg188
Nsg189
Nsg190
(lp1779
sg192
Nsg193
Nsg156
S'fMaximum HP +5'
p1780
sa(dp1781
g187
Nsg188
Nsg189
Nsg190
(lp1782
sg192
Nsg193
Nsg156
S'Speed +2'
p1783
sasg201
(dp1784
g1462
I124
sg1463
I4
sg1464
I0
ssg206
I00
sg207
g1747
sg208
(lp1785
I0
aI0
aI0
aI0
aI0
aI40
aI0
asg210
S'Althea'
p1786
sg212
I3
sg213
I10
sg214
S'F'
sg215
I0
sg216
S'Mage'
p1787
sg218
I30
sg219
S'player'
p1788
sg221
g37
sa(dp1789
g141
S'None'
p1790
sg143
(lp1791
I140
aI100
aI10
aI90
aI90
aI60
aI80
aI60
asg145
I00
sg146
(lp1792
(dp1793
g149
Nsg150
I00
sg151
I00
sg152
I21
sg153
I00
sg154
S'Drake'
p1794
sg156
S'Iron Lance'
p1795
sa(dp1796
g149
Nsg150
I00
sg151
I00
sg152
I37
sg153
I00
sg154
g1794
sg156
S'Iron Sword'
p1797
sa(dp1798
g149
Nsg150
I00
sg151
I00
sg152
I18
sg153
I00
sg154
g1794
sg156
S'Javelin'
p1799
sa(dp1800
g149
Nsg150
I00
sg151
I00
sg152
I2
sg153
I00
sg154
g1794
sg156
S'Potion'
p1801
sa(dp1802
g149
Nsg150
I00
sg151
I00
sg152
I14
sg153
I00
sg154
g1794
sg156
S'Swordreaver'
p1803
sasg160
(lp1804
I20
aI0
aI30
aI70
aI70
aI80
aI40
aI80
asg162
g1235
(g1236
g1237
NtRp1805
(dp1806
g1240
I0
sg1241
I30
sbsg163
(lp1807
(I30
I0
tp1808
a(I12
I0
tp1809
a(I1
I0
tp1810
a(I11
I0
tp1811
a(I10
I0
tp1812
a(I11
I0
tp1813
a(I9
I0
tp1814
a(I5
I0
tp1815
a(I11
I0
tp1816
a(I14
I0
tp1817
asg175
S'0'
sg176
S'Resistance'
p1818
sg178
S"A disgraced Imperial knight now in Althea's service."
p1819
sg180
(lp1820
sg184
(lp1821
(dp1822
g187
Nsg188
Nsg189
Nsg190
(lp1823
sg192
Nsg193
Nsg156
S'Canto'
p1824
sa(dp1825
g187
Nsg188
Nsg189
Nsg190
(lp1826
sg192
Nsg193
Nsg156
S'Savior'
p1827
sasg201
(dp1828
g1462
I59
sg1463
I2
sg1464
I0
ssg206
I00
sg207
g1794
sg208
(lp1829
I14
aI41
aI0
aI0
aI0
aI0
aI0
asg210
S'Drake'
p1830
sg212
I2
sg213
I8
sg214
S'M'
sg215
I0
sg216
S'Cavalier'
p1831
sg218
I75
sg219
S'player'
p1832
sg221
g27
sa(dp1833
g141
S'None'
p1834
sg143
(lp1835
I140
aI60
aI30
aI80
aI140
aI100
aI50
aI40
asg145
I00
sg146
(lp1836
(dp1837
g149
Nsg150
I00
sg151
I00
sg152
I22
sg153
I00
sg154
S'Renae'
p1838
sg156
S'Iron Sword'
p1839
sa(dp1840
g149
Nsg150
I00
sg151
I00
sg152
I10
sg153
I00
sg154
g1838
sg156
S'Steel Knife'
p1841
sa(dp1842
g149
Nsg150
I00
sg151
I00
sg152
I28
sg153
I00
sg154
g1838
sg156
S'Steel Sword'
p1843
sa(dp1844
g149
Nsg150
I00
sg151
I00
sg152
I1
sg153
I00
sg154
I0
sg156
S'Vulnerary'
p1845
sasg160
(lp1846
I20
aI80
aI90
aI40
aI20
aI0
aI50
aI20
asg162
g1235
(g1236
g1237
NtRp1847
(dp1848
g1240
I0
sg1241
I24
sbsg163
(lp1849
(I24
I0
tp1850
a(I6
I0
tp1851
a(I4
I0
tp1852
a(I10
I0
tp1853
a(I17
I0
tp1854
a(I8
I0
tp1855
a(I5
I0
tp1856
a(I2
I0
tp1857
a(I6
I0
tp1858
a(I11
I0
tp1859
asg175
S'0'
sg176
S'Kerala'
p1860
sg178
S'An energetic thief with a kleptomanic streak.'
p1861
sg180
(lp1862
sg184
(lp1863
(dp1864
g187
Nsg188
Nsg189
Nsg190
(lp1865
sg192
Nsg193
Nsg156
S'Locktouch'
p1866
sa(dp1867
g187
Nsg188
Nsg189
Nsg190
(lp1868
sg192
Nsg193
Nsg156
S'Steal'
p1869
sasg201
(dp1870
g1462
I23
sg1463
I1
sg1464
I0
ssg206
I00
sg207
g1838
sg208
(lp1871
I32
aI0
aI0
aI0
aI0
aI0
aI0
asg210
S'Renae'
p1872
sg212
I0
sg213
I7
sg214
S'F'
sg215
I0
sg216
S'Thief'
p1873
sg218
I26
sg219
S'player'
p1874
sg221
(I19
I31
tp1875
sa(dp1876
g141
S'None'
p1877
sg143
(lp1878
I180
aI80
aI40
aI60
aI60
aI70
aI110
aI60
asg145
I00
sg146
(lp1879
(dp1880
g149
Nsg150
I00
sg151
I00
sg152
I4
sg153
I00
sg154
S'Theo'
p1881
sg156
S'Short Spear'
p1882
sa(dp1883
g149
Nsg150
I00
sg151
I00
sg152
I32
sg153
I00
sg154
g1881
sg156
S'Iron Lance'
p1884
sa(dp1885
g149
Nsg150
I00
sg151
I00
sg152
I29
sg153
I00
sg154
g1881
sg156
S'Steel Lance'
p1886
sa(dp1887
g149
Nsg150
I00
sg151
I00
sg152
I1
sg153
I00
sg154
I0
sg156
g1578
sa(dp1888
g149
Nsg150
I00
sg151
I00
sg152
I1
sg153
I00
sg154
g1881
sg156
S'Skeleton Key'
p1889
sasg160
(lp1890
I40
aI40
aI20
aI80
aI80
aI10
aI30
aI80
asg162
I31
sg163
(lp1891
(I32
I0
tp1892
a(I15
I0
tp1893
a(I1
I0
tp1894
a(I11
I0
tp1895
a(I6
I0
tp1896
a(I6
I0
tp1897
a(I15
I0
tp1898
a(I4
I0
tp1899
a(I12
I0
tp1900
a(I9
I0
tp1901
asg175
S'0'
sg176
S'Resistance'
p1902
sg178
S'An avid scholar. Interested in esoteric philosophy.'
p1903
sg180
(lp1904
sg184
(lp1905
(dp1906
g187
Nsg188
Nsg189
Nsg190
(lp1907
I144
aI143
aI120
asg192
Nsg193
Nsg156
S'Provoke'
p1908
sa(dp1909
g187
Nsg188
Nsg189
Nsg190
(lp1910
sg192
I0
sg193
Nsg156
S'Shove'
p1911
sasg201
(dp1912
g1462
I87
sg1463
I4
sg1464
I0
ssg206
I00
sg207
g1881
sg208
(lp1913
I0
aI39
aI0
aI0
aI0
aI0
aI0
asg210
S'Theo'
p1914
sg212
I2
sg213
I7
sg214
S'M'
sg215
I0
sg216
S'Knight'
p1915
sg218
I70
sg219
S'player'
p1916
sg221
(I5
I29
tp1917
sasS'statistics'
p1918
(lp1919
g1235
(cCode.CustomObjects
LevelStatistic
p1920
g1237
NtRp1921
(dp1922
S'turncount'
p1923
I1
sg163
(dp1924
g1607
(dp1925
S'damage'
p1926
I0
sS'kills'
p1927
I0
sS'healing'
p1928
I0
ssg1653
(dp1929
g1926
I0
sg1927
I0
sg1928
I0
sssg210
S'Prologue'
p1930
sbag1235
(g1920
g1237
NtRp1931
(dp1932
g1923
I7
sg163
(dp1933
g1607
(dp1934
g1926
I44
sg1927
I6
sg1928
I0
ssg1694
(dp1935
S'damage'
p1936
I93
sS'kills'
p1937
I3
sS'healing'
p1938
I0
ssg1738
(dp1939
g1936
I69
sg1937
I2
sg1938
I0
ssg1653
(dp1940
g1926
I64
sg1927
I0
sg1928
I40
sssg210
S'Chapter I'
p1941
sbag1235
(g1920
g1237
NtRp1942
(dp1943
g1923
I10
sg163
(dp1944
g1786
(dp1945
S'damage'
p1946
I27
sS'kills'
p1947
I3
sS'healing'
p1948
I0
ssg1653
(dp1949
g1936
I85
sg1937
I0
sg1938
I78
ssg1694
(dp1950
g1936
I58
sg1937
I4
sg1938
I0
ssg1738
(dp1951
g1936
I93
sg1937
I3
sg1938
I0
ssg1830
(dp1952
g1946
I54
sg1947
I1
sg1948
I0
ssg1607
(dp1953
g1936
I65
sg1937
I4
sg1938
I0
sssg210
S'Chapter II'
p1954
sbag1235
(g1920
g1237
NtRp1955
(dp1956
g1923
I17
sg163
(dp1957
g1914
(dp1958
S'damage'
p1959
I0
sS'kills'
p1960
I0
sS'healing'
p1961
I0
ssg1786
(dp1962
g1959
I0
sg1960
I0
sg1961
I0
ssg1653
(dp1963
g1959
I0
sg1960
I0
sg1961
I0
ssg1694
(dp1964
g1959
I0
sg1960
I0
sg1961
I0
ssg1738
(dp1965
g1959
I0
sg1960
I0
sg1961
I0
ssg1872
(dp1966
g1959
I0
sg1960
I0
sg1961
I0
ssg1830
(dp1967
g1959
I0
sg1960
I0
sg1961
I0
ssg1607
(dp1968
g1959
I0
sg1960
I0
sg1961
I0
sssg210
S'Chapter III'
p1969
sbag1235
(g1920
g1237
NtRp1970
(dp1971
g1923
I9
sg163
(dp1972
g1914
(dp1973
g1959
I69
sg1960
I4
sg1961
I0
ssg1786
(dp1974
g1959
I106
sg1960
I6
sg1961
I0
ssg1653
(dp1975
g1959
I21
sg1960
I3
sg1961
I116
ssg1560
(dp1976
S'damage'
p1977
I63
sS'kills'
p1978
I4
sS'healing'
p1979
I0
ssg1738
(dp1980
g1959
I89
sg1960
I4
sg1961
I0
ssg1872
(dp1981
g1959
I20
sg1960
I0
sg1961
I0
ssg1830
(dp1982
g1959
I98
sg1960
I3
sg1961
I0
ssg1607
(dp1983
g1959
I119
sg1960
I7
sg1961
I0
ssg1694
(dp1984
g1959
I182
sg1960
I5
sg1961
I0
sssg210
S'Chapter IV'
p1985
sbag1235
(g1920
g1237
NtRp1986
(dp1987
g1923
I12
sg163
(dp1988
g1914
(dp1989
S'damage'
p1990
I0
sS'kills'
p1991
I0
sS'healing'
p1992
I0
ssg1786
(dp1993
g1990
I177
sg1991
I7
sg1992
I0
ssg1653
(dp1994
g1990
I33
sg1991
I2
sg1992
I147
ssg1466
(dp1995
g1990
I41
sg1991
I1
sg1992
I36
ssg1560
(dp1996
g1990
I48
sg1991
I3
sg1992
I0
ssg1738
(dp1997
g1990
I65
sg1991
I2
sg1992
I0
ssg1872
(dp1998
g1990
I64
sg1991
I3
sg1992
I0
ssg1830
(dp1999
g1990
I38
sg1991
I1
sg1992
I0
ssg1512
(dp2000
g1990
I20
sg1991
I2
sg1992
I0
ssg1607
(dp2001
g1990
I104
sg1991
I3
sg1992
I0
ssg1694
(dp2002
g1990
I107
sg1991
I4
sg1992
I0
sssg210
S'Chapter V'
p2003
sbasS'convoy'
p2004
(lp2005
(dp2006
g149
Nsg150
I00
sg151
I00
sg152
I3
sg153
I00
sg154
I0
sg156
S'Herbs'
p2007
sa(dp2008
g149
Nsg150
I00
sg151
I00
sg152
I2
sg153
I00
sg154
I0
sg156
S'Spiritbane'
p2009
sa(dp2010
g149
Nsg150
I00
sg151
I00
sg152
I1
sg153
I00
sg154
I0
sg156
S'Secret Book'
p2011
sa(dp2012
g149
Nsg150
I00
sg151
I00
sg152
I1
sg153
I00
sg154
I0
sg156
S'Angelic Robe'
p2013
sa(dp2014
g149
Nsg150
I00
sg151
I00
sg152
I1
sg153
I00
sg154
I0
sg156
S'Vulnerary'
p2015
sa(dp2016
g149
Nsg150
I00
sg151
I00
sg152
I1
sg153
I00
sg154
I0
sg156
S'Mana Ring'
p2017
sa(dp2018
g149
Nsg150
I00
sg151
I00
sg152
I19
sg153
I00
sg154
I0
sg156
S'Willow Bow'
p2019
sa(dp2020
g149
Nsg150
I00
sg151
I00
sg152
I10
sg153
I00
sg154
I0
sg156
S'Windwall'
p2021
sa(dp2022
g149
Nsg150
I00
sg151
I00
sg152
I35
sg153
I00
sg154
I0
sg156
S'Hatchet'
p2023
sa(dp2024
g149
Nsg150
I00
sg151
I00
sg152
I25
sg153
I00
sg154
I0
sg156
S'Great Lance'
p2025
sa(dp2026
g149
Nsg150
I00
sg151
I00
sg152
I1
sg153
I00
sg154
I0
sg156
S'Talisman'
p2027
sa(dp2028
g149
Nsg150
I00
sg151
I00
sg152
I12
sg153
I00
sg154
I0
sg156
S'Iron Knife'
p2029
sa(dp2030
g149
Nsg150
I00
sg151
I00
sg152
I1
sg153
I00
sg154
I0
sg156
S'Speedwings'
p2031
sa(dp2032
g149
Nsg150
I00
sg151
I00
sg152
I20
sg153
I00
sg154
I0
sg156
S'Mithril Lance'
p2033
sa(dp2034
g149
Nsg150
I00
sg151
I00
sg152
I25
sg153
I00
sg154
I0
sg156
S'Great Sword'
p2035
sa(dp2036
g149
Nsg150
I00
sg151
I00
sg152
I9
sg153
I00
sg154
I0
sg156
S'Fly'
p2037
sa(dp2038
g149
Nsg150
I00
sg151
I00
sg152
I12
sg153
I00
sg154
I0
sg156
S'Lancereaver'
p2039
sa(dp2040
g149
Nsg150
I00
sg151
I00
sg152
I22
sg153
I00
sg154
I0
sg156
S'Nyx'
p2041
sa(dp2042
g149
Nsg150
I00
sg151
I00
sg152
I25
sg153
I00
sg154
I0
sg156
S'Steel Axe'
p2043
sa(dp2044
g149
Nsg150
I00
sg151
I00
sg152
I24
sg153
I00
sg154
I0
sg156
S'Great Lance'
p2045
sa(dp2046
g149
Nsg150
I00
sg151
I00
sg152
I15
sg153
I00
sg154
I0
sg156
S'Axereaver'
p2047
sa(dp2048
g149
Nsg150
I00
sg151
I00
sg152
I1
sg153
I00
sg154
I0
sg156
S'Potion'
p2049
sasS'prefabs'
p2050
(dp2051
S'i1'
p2052
(lp2053
S'enemy'
p2054
aS'2'
ag2052
aS'Knight'
p2055
aS'Mithril Lance,Short Spear'
p2056
aS'0,0'
p2057
aS'Pursue'
p2058
aS'Soldier'
p2059
aS'Empire'
p2060
aS'An imperial soldier'
p2061
aS''
aS'Void_Curse'
p2062
asS'i2'
p2063
(lp2064
S'enemy'
p2065
aS'2'
ag2063
aS'Mage'
p2066
aS'Wind,Water'
p2067
aS'0,0'
p2068
aS'Pursue'
p2069
aS'Soldier'
p2070
aS'Empire'
p2071
aS'An imperial soldier'
p2072
aS''
aS'Void_Curse'
p2073
assS'talk_options'
p2074
(lp2075
(S'Sam'
S'Coyote'
tp2076
a(S'Ophie'
S'Coyote'
tp2077
a(S'Kayla'
S'Coyote'
tp2078
a(S'Sam'
S'Kiley'
tp2079
asS'market_items'
p2080
c__builtin__
set
p2081
((lp2082
S'Nyx'
p2083
aS'Glimmer'
p2084
aS'Mend'
p2085
aS'Rapier'
p2086
aS'Potion'
p2087
aS'Fire'
p2088
aS'Heal'
p2089
aS'Water'
p2090
aS'Vulnerary'
p2091
aS'Iron Sword'
p2092
aS'Shine'
p2093
aS'Iron Lance'
p2094
aS'Short Bow'
p2095
aS'Hatchet'
p2096
aS'Hand Axe'
p2097
aS'Willow Bow'
p2098
aS'Flux'
p2099
aS'Slim Lance'
p2100
aS'Wind'
p2101
aS'Steel Lance'
p2102
aS'Longbow'
p2103
aS'Iron Knife'
p2104
aS'Scathe'
p2105
aS'Oak Bow'
p2106
aS'Steel Sword'
p2107
aS'Javelin'
p2108
aS'Steel Axe'
p2109
aS'Earth'
p2110
aS'Iron Axe'
p2111
atRp2112
sS'support'
p2113
NsS'allreinforcements'
p2114
(dp2115
g1327
(I102
g1341
tp2116
sg1292
(I101
g1308
tp2117
sg1176
(I166
(I18
I0
ttp2118
sg1142
(I165
(I6
I0
ttp2119
sS'pack_l2_1'
p2120
(I143
(I0
I27
ttp2121
sS'pack_l2_2'
p2122
(I144
(I0
I28
ttp2123
sS'pack_l3_1'
p2124
(I145
(I0
I27
ttp2125
sS'pack_l3_2'
p2126
(I146
(I0
I28
ttp2127
sS'pack_r2_2'
p2128
(I142
(I24
I28
ttp2129
sg930
(I159
(I19
I0
ttp2130
sg964
(I160
(I17
I0
ttp2131
sg1385
(I104
g1395
tp2132
sg1412
(I105
g1422
tp2133
sg1358
(I103
g1368
tp2134
sg1036
(I162
(I5
I0
ttp2135
sg1000
(I161
(I7
I0
ttp2136
sS'pack_r2_1'
p2137
(I141
(I24
I27
ttp2138
sg728
(I153
(I7
I0
ttp2139
sg762
(I154
(I5
I0
ttp2140
sS'pack_r3_2'
p2141
(I148
(I24
I28
ttp2142
sS'pack_r3_1'
p2143
(I147
(I24
I27
ttp2144
sS'pack_r4_1'
p2145
(I151
(I24
I27
ttp2146
sS'pack_r4_2'
p2147
(I152
(I24
I28
ttp2148
sS'pack_l4_2'
p2149
(I150
(I0
I28
ttp2150
sS'pack_l4_1'
p2151
(I149
(I0
I27
ttp2152
sg1072
(I163
(I17
I0
ttp2153
sg827
(I156
(I19
I0
ttp2154
sg894
(I158
(I7
I0
ttp2155
sg860
(I157
(I5
I0
ttp2156
sg1108
(I164
(I19
I0
ttp2157
sg795
(I155
(I17
I0
ttp2158
ssS'event_triggers'
p2159
(lp2160
S'BothSwitchesPulled1'
p2161
aS'BothSwitchesPulled2'
p2162
asg1923
I8
sS'base_conversations'
p2163
(dp2164
sS'phase_info'
p2165
(I0
I3
tp2166
sS'playtime'
p2167
I24989859
sS'objective'
p2168
(S'Defeat Boss'
p2169
S'Free the Prisoners,AND,Defeat the warden'
p2170
S'Ophie dies OR Sam dies,OR,Party size falls below 5. Currently {gameStateObj.get_total_party_members()}'
p2171
tp2172
sS'state_list'
p2173
((lp2174
S'free'
p2175
aS'status'
p2176
aS'phase_change'
p2177
aS'battle_save'
p2178
a(ltp2179
sS'message'
p2180
(lp2181
sS'metaDataObj_changes'
p2182
(lp2183
sS'unlocked_lore'
p2184
(lp2185
S'Sam'
p2186
aS'Joel'
p2187
aS'Prim'
p2188
aS'Ophie'
p2189
aS'Althea'
p2190
aS'Drake'
p2191
aS'Nia'
p2192
aS'Renae'
p2193
aS'Theo'
p2194
aS'Kerala'
p2195
aS'Empire'
p2196
aS'Eliza'
p2197
aS'Podoma'
p2198
aS'Rajas'
p2199
aS'Ulver'
p2200
aS'Vagnius'
p2201
aS'CFS'
p2202
aS'Kayla'
p2203
aS'CFS'
p2204
aS'Kayla'
p2205
aS'Tyrana'
p2206
aS'Coyote'
p2207
asS'game_constants'
p2208
(lp2209
S'Convoy'
p2210
asS'counters'
p2211
(dp2212
S'Dead_Wagons'
p2213
I12
sS'line_cross'
p2214
I-100
sS'level'
p2215
I6
sS'money'
p2216
I8060
sS'switches'
p2217
I2
sS'Civ_Escape'
p2218
I0
sS'turns'
p2219
I5
sS'Escaped_Wagons'
p2220
I0
ss.