(dp1
S'talk_options'
p2
(lp3
sS'allunits'
p4
(lp5
(dp6
S'ai'
p7
S'None'
p8
sS'growths'
p9
(lp10
I105
aI55
aI35
aI75
aI80
aI80
aI40
aI40
asS'dead'
p11
I00
sS'items'
p12
(lp13
(dp14
S'c_uses'
p15
NsS'locked'
p16
I00
sS'droppable'
p17
I00
sS'uses'
p18
I26
sS'event_combat'
p19
I00
sS'owner'
p20
S'Ophie'
p21
sS'id'
p22
S'Steel Sword'
p23
sa(dp24
g15
Nsg16
I00
sg17
I00
sg18
I43
sg19
I00
sg20
g21
sg22
S'Iron Sword'
p25
sa(dp26
g15
Nsg16
I00
sg17
I00
sg18
I18
sg19
I00
sg20
g21
sg22
S'Iron Knife'
p27
sa(dp28
g15
Nsg16
I00
sg17
I00
sg18
I2
sg19
I00
sg20
g21
sg22
S'Vulnerary'
p29
sa(dp30
g15
Nsg16
I00
sg17
I00
sg18
I15
sg19
I00
sg20
g21
sg22
S'Magebane Sword'
p31
sasS'growth_points'
p32
(lp33
I75
aI25
aI25
aI25
aI50
aI50
aI50
aI50
asS'currenthp'
p34
ccopy_reg
_reconstructor
p35
(cCode.UnitObject
Stat
p36
c__builtin__
object
p37
NtRp38
(dp39
S'bonuses'
p40
I0
sS'base_stat'
p41
I17
sbsS'stats'
p42
(lp43
(I17
I0
tp44
a(I6
I0
tp45
a(I3
I0
tp46
a(I9
I0
tp47
a(I11
I0
tp48
a(I6
I0
tp49
a(I3
I0
tp50
a(I3
I0
tp51
a(I5
I0
tp52
a(I5
I0
tp53
asS'event_id'
p54
S'Ophie'
p55
sS'faction'
p56
S'Resistance'
p57
sS'desc'
p58
S'A strong-hearted renegade who often acts before he thinks.'
p59
sS'tags'
p60
(lp61
S'Lord'
p62
asS'status_effects'
p63
(lp64
(dp65
S'count'
p66
NsS'time_left'
p67
NsS'upkeep_sc_count'
p68
NsS'children'
p69
(lp70
sS'charge'
p71
NsS'rhythm_sc_count'
p72
Nsg22
S'Riposte'
p73
sa(dp74
g66
Nsg67
Nsg68
Nsg69
(lp75
sg71
Nsg72
Nsg22
S'Vantage'
p76
sasS'records'
p77
(dp78
S'damage'
p79
I0
sS'kills'
p80
I0
sS'healing'
p81
I0
ssS'finished'
p82
I00
sS'u_id'
p83
g21
sS'wexp'
p84
(lp85
I31
aI0
aI0
aI0
aI0
aI0
aI0
asS'name'
p86
S'Ophie'
p87
sS'movement_group'
p88
I0
sS'level'
p89
I6
sS'gender'
p90
S'M'
sS'TRV'
p91
I0
sS'klass'
p92
S'Myrmidon'
p93
sS'exp'
p94
I93
sS'team'
p95
S'player'
p96
sS'position'
p97
Nsa(dp98
g7
S'None'
p99
sg9
(lp100
I65
aI15
aI65
aI40
aI55
aI80
aI25
aI80
asg11
I00
sg12
(lp101
(dp102
g15
Nsg16
I00
sg17
I00
sg18
I8
sg19
I00
sg20
S'Prim'
p103
sg22
S'Heal'
p104
sa(dp105
g15
Nsg16
I00
sg17
I00
sg18
I25
sg19
I00
sg20
g103
sg22
S'Glimmer'
p106
sa(dp107
g15
Nsg16
I00
sg17
I00
sg18
I30
sg19
I00
sg20
g103
sg22
S'Heal'
p108
sasg32
(lp109
I45
aI95
aI45
aI70
aI15
aI90
aI25
aI90
asg34
g35
(g36
g37
NtRp110
(dp111
g40
I0
sg41
I13
sbsg42
(lp112
(I13
I0
tp113
a(I0
I0
tp114
a(I4
I0
tp115
a(I4
I0
tp116
a(I7
I0
tp117
a(I6
I0
tp118
a(I2
I0
tp119
a(I6
I0
tp120
a(I3
I0
tp121
a(I5
I0
tp122
asg54
S'Prim'
p123
sg56
S'Resistance'
p124
sg58
S'A shy but kind-hearted young woman. Has an affinity with the spiritual.'
p125
sg60
(lp126
sg63
(lp127
(dp128
g66
Nsg67
Nsg68
Nsg69
(lp129
sg71
Nsg72
Nsg22
S'Healtouch'
p130
sasg77
(dp131
g79
I0
sg80
I0
sg81
I0
ssg82
I00
sg83
g103
sg84
(lp132
I0
aI0
aI0
aI0
aI31
aI0
aI0
asg86
S'Prim'
p133
sg88
I5
sg89
I4
sg90
S'F'
sg91
I0
sg92
S'Mystic'
p134
sg94
I95
sg95
S'player'
p135
sg97
Nsa(dp136
g7
S'None'
p137
sg9
(lp138
I105
aI80
aI5
aI60
aI55
aI45
aI35
aI20
asg11
I00
sg12
(lp139
(dp140
g15
Nsg16
I00
sg17
I00
sg18
I34
sg19
I00
sg20
S'Joel'
p141
sg22
S'Hatchet'
p142
sa(dp143
g15
Nsg16
I00
sg17
I00
sg18
I27
sg19
I00
sg20
g141
sg22
S'Iron Axe'
p144
sa(dp145
g15
Nsg16
I00
sg17
I00
sg18
I27
sg19
I00
sg20
g141
sg22
S'Steel Axe'
p146
sa(dp147
g15
Nsg16
I00
sg17
I00
sg18
I15
sg19
I00
sg20
g141
sg22
S'Hand Axe'
p148
sa(dp149
g15
Nsg16
I00
sg17
I00
sg18
I2
sg19
I00
sg20
g141
sg22
S'Potion'
p150
sasg32
(lp151
I65
aI90
aI65
aI30
aI15
aI85
aI55
aI10
asg34
g35
(g36
g37
NtRp152
(dp153
g40
I0
sg41
I24
sbsg42
(lp154
(I24
I0
tp155
a(I7
I0
tp156
a(I0
I0
tp157
a(I5
I0
tp158
a(I6
I0
tp159
a(I4
I0
tp160
a(I4
I0
tp161
a(I1
I0
tp162
a(I7
I0
tp163
a(I5
I0
tp164
asg54
S'0'
sg56
S'Resistance'
p165
sg58
S'A jovial former sailor. Always ready for a new adventure.'
p166
sg60
(lp167
sg63
(lp168
(dp169
g66
Nsg67
Nsg68
Nsg69
(lp170
sg71
I0
sg72
Nsg22
S'Cleave'
p171
sa(dp172
g66
Nsg67
Nsg68
Nsg69
(lp173
sg71
I0
sg72
Nsg22
S'Shove'
p174
sasg77
(dp175
g79
I0
sg80
I0
sg81
I0
ssg82
I00
sg83
g141
sg84
(lp176
I0
aI0
aI41
aI0
aI0
aI0
aI0
asg86
S'Joel'
p177
sg88
I4
sg89
I6
sg90
S'M'
sg91
I0
sg92
S'Fighter'
p178
sg94
I83
sg95
S'player'
p179
sg97
Nsa(dp180
g7
S'None'
p181
sg9
(lp182
I80
aI55
aI35
aI80
aI80
aI25
aI20
aI40
asg11
I00
sg12
(lp183
(dp184
g15
Nsg16
I00
sg17
I00
sg18
I36
sg19
I00
sg20
S'Nia'
p185
sg22
S'Willow Bow'
p186
sa(dp187
g15
Nsg16
I00
sg17
I00
sg18
I1
sg19
I00
sg20
g185
sg22
S'Vulnerary'
p188
sa(dp189
g15
Nsg16
I00
sg17
I00
sg18
I30
sg19
I00
sg20
g185
sg22
S'Oak Bow'
p190
sasg32
(lp191
I90
aI15
aI55
aI90
aI90
aI25
aI10
aI70
asg34
g35
(g36
g37
NtRp192
(dp193
g40
I0
sg41
I15
sbsg42
(lp194
(I15
I0
tp195
a(I6
I0
tp196
a(I3
I0
tp197
a(I7
I0
tp198
a(I7
I0
tp199
a(I4
I0
tp200
a(I3
I0
tp201
a(I2
I0
tp202
a(I4
I0
tp203
a(I5
I0
tp204
asg54
S'0'
sg56
S'Resistance'
p205
sg58
S'A quiet archer most at home in the wilderness.'
p206
sg60
(lp207
sg63
(lp208
(dp209
g66
Nsg67
Nsg68
Nsg69
(lp210
sg71
Nsg72
Nsg22
S'Prescience'
p211
sa(dp212
g66
Nsg67
Nsg68
Nsg69
(lp213
sg71
I0
sg72
Nsg22
S'Critical'
p214
sasg77
(dp215
g79
I0
sg80
I0
sg81
I0
ssg82
I00
sg83
g185
sg84
(lp216
I0
aI0
aI0
aI36
aI0
aI0
aI0
asg86
S'Nia'
p217
sg88
I0
sg89
I6
sg90
S'F'
sg91
I0
sg92
S'Archer'
p218
sg94
I22
sg95
S'player'
p219
sg97
Nsa(dp220
g7
S'None'
p221
sg9
(lp222
I60
aI15
aI85
aI40
aI60
aI60
aI20
aI55
asg11
I00
sg12
(lp223
(dp224
g15
Nsg16
I00
sg17
I00
sg18
I27
sg19
I00
sg20
S'Althea'
p225
sg22
S'Wind'
p226
sa(dp227
g15
Nsg16
I00
sg17
I00
sg18
I16
sg19
I00
sg20
g225
sg22
S'Fire'
p228
sa(dp229
g15
Nsg16
I00
sg17
I00
sg18
I28
sg19
I00
sg20
g225
sg22
S'Water'
p230
sa(dp231
g15
Nsg16
I00
sg17
I00
sg18
I7
sg19
I00
sg20
g225
sg22
S'Wyrmsfire'
p232
sa(dp233
g15
Nsg16
I00
sg17
I00
sg18
I3
sg19
I00
sg20
g225
sg22
S'Vulnerary'
p234
sasg32
(lp235
I50
aI25
aI75
aI50
aI50
aI50
aI50
aI25
asg34
g35
(g36
g37
NtRp236
(dp237
g40
I5
sg41
I14
sbsg42
(lp238
(I14
I5
tp239
a(I2
I0
tp240
a(I9
I0
tp241
a(I6
I0
tp242
a(I8
I2
tp243
a(I8
I0
tp244
a(I3
I0
tp245
a(I6
I0
tp246
a(I3
I0
tp247
a(I5
I0
tp248
asg54
S'0'
sg56
S'Resistance'
p249
sg58
S'A forthright but elegant and refined sorceress.'
p250
sg60
(lp251
sg63
(lp252
(dp253
g66
Nsg67
Nsg68
Nsg69
(lp254
sg71
Nsg72
Nsg22
S'Focus'
p255
sa(dp256
g66
Nsg67
Nsg68
Nsg69
(lp257
sg71
Nsg72
Nsg22
S'fMaximum HP +5'
p258
sa(dp259
g66
Nsg67
Nsg68
Nsg69
(lp260
sg71
Nsg72
Nsg22
S'Speed +2'
p261
sasg77
(dp262
g79
I0
sg80
I0
sg81
I0
ssg82
I00
sg83
g225
sg84
(lp263
I0
aI0
aI0
aI0
aI0
aI24
aI0
asg86
S'Althea'
p264
sg88
I5
sg89
I7
sg90
S'F'
sg91
I0
sg92
S'Mage'
p265
sg94
I62
sg95
S'player'
p266
sg97
Nsa(dp267
g7
S'None'
p268
sg9
(lp269
I95
aI65
aI5
aI60
aI60
aI40
aI55
aI40
asg11
I00
sg12
(lp270
(dp271
g15
Nsg16
I00
sg17
I00
sg18
I29
sg19
I00
sg20
S'Drake'
p272
sg22
S'Iron Lance'
p273
sa(dp274
g15
Nsg16
I00
sg17
I00
sg18
I40
sg19
I00
sg20
g272
sg22
S'Iron Sword'
p275
sa(dp276
g15
Nsg16
I00
sg17
I00
sg18
I2
sg19
I00
sg20
g272
sg22
S'Vulnerary'
p277
sa(dp278
g15
Nsg16
I00
sg17
I00
sg18
I25
sg19
I00
sg20
g272
sg22
S'Shine'
p279
sa(dp280
g15
Nsg16
I00
sg17
I00
sg18
I25
sg19
I00
sg20
g272
sg22
S'Great Lance'
p281
sasg32
(lp282
I45
aI15
aI55
aI10
aI10
aI90
aI5
aI90
asg34
g35
(g36
g37
NtRp283
(dp284
g40
I0
sg41
I18
sbsg42
(lp285
(I18
I0
tp286
a(I7
I0
tp287
a(I1
I0
tp288
a(I7
I0
tp289
a(I6
I0
tp290
a(I7
I0
tp291
a(I6
I0
tp292
a(I3
I0
tp293
a(I7
I0
tp294
a(I7
I0
tp295
asg54
S'0'
sg56
S'Resistance'
p296
sg58
S"A disgraced Imperial knight now in Althea's service."
p297
sg60
(lp298
sg63
(lp299
(dp300
g66
Nsg67
Nsg68
Nsg69
(lp301
sg71
Nsg72
Nsg22
S'Canto'
p302
sa(dp303
g66
Nsg67
Nsg68
Nsg69
(lp304
sg71
Nsg72
Nsg22
S'Savior'
p305
sasg77
(dp306
g79
I0
sg80
I0
sg81
I0
ssg82
I00
sg83
g272
sg84
(lp307
I20
aI23
aI0
aI0
aI0
aI0
aI0
asg86
S'Drake'
p308
sg88
I2
sg89
I6
sg90
S'M'
sg91
I0
sg92
S'Cavalier'
p309
sg94
I91
sg95
S'player'
p310
sg97
Nsa(dp311
g7
S'None'
p312
sg9
(lp313
I95
aI40
aI60
aI55
aI95
aI65
aI35
aI55
asg11
I00
sg12
(lp314
(dp315
g15
Nsg16
I00
sg17
I00
sg18
I17
sg19
I00
sg20
S'Renae'
p316
sg22
S'Steel Sword'
p317
sa(dp318
g15
Nsg16
I00
sg17
I00
sg18
I7
sg19
I00
sg20
g316
sg22
S'Iron Sword'
p319
sa(dp320
g15
Nsg16
I00
sg17
I00
sg18
I23
sg19
I00
sg20
g316
sg22
S'Levin Sword'
p321
sa(dp322
g15
Nsg16
I00
sg17
I00
sg18
I3
sg19
I00
sg20
g316
sg22
S'Vulnerary'
p323
sasg32
(lp324
I40
aI30
aI70
aI60
aI40
aI80
aI20
aI60
asg34
g35
(g36
g37
NtRp325
(dp326
g40
I0
sg41
I15
sbsg42
(lp327
(I15
I0
tp328
a(I4
I0
tp329
a(I4
I0
tp330
a(I6
I0
tp331
a(I11
I0
tp332
a(I4
I0
tp333
a(I3
I0
tp334
a(I4
I0
tp335
a(I4
I0
tp336
a(I6
I0
tp337
asg54
S'0'
sg56
S'Kerala'
p338
sg58
S'An energetic thief with a kleptomanic streak.'
p339
sg60
(lp340
sg63
(lp341
(dp342
g66
Nsg67
Nsg68
Nsg69
(lp343
sg71
Nsg72
Nsg22
S'Locktouch'
p344
sa(dp345
g66
Nsg67
Nsg68
Nsg69
(lp346
sg71
Nsg72
Nsg22
S'Steal'
p347
sasg77
(dp348
g79
I0
sg80
I0
sg81
I0
ssg82
I00
sg83
g316
sg84
(lp349
I27
aI0
aI0
aI0
aI0
aI0
aI0
asg86
S'Renae'
p350
sg88
I0
sg89
I6
sg90
S'F'
sg91
I0
sg92
S'Thief'
p351
sg94
I48
sg95
S'player'
p352
sg97
Nsa(dp353
g7
S'None'
p354
sg9
(lp355
I120
aI55
aI25
aI40
aI40
aI45
aI75
aI40
asg11
I00
sg12
(lp356
(dp357
g15
Nsg16
I00
sg17
I00
sg18
I41
sg19
I00
sg20
S'Theo'
p358
sg22
S'Iron Lance'
p359
sa(dp360
g15
Nsg16
I00
sg17
I00
sg18
I18
sg19
I00
sg20
g358
sg22
S'Javelin'
p361
sa(dp362
g15
Nsg16
I00
sg17
I00
sg18
I3
sg19
I00
sg20
g358
sg22
S'Vulnerary'
p363
sa(dp364
g15
Nsg16
I00
sg17
I00
sg18
I15
sg19
I00
sg20
g358
sg22
S'Steel Knife'
p365
sa(dp366
g15
Nsg16
I00
sg17
I00
sg18
Nsg19
I00
sg20
g358
sg22
S'Ruby'
p367
sasg32
(lp368
I90
aI60
aI0
aI30
aI30
aI40
aI0
aI30
asg34
g35
(g36
g37
NtRp369
(dp370
g40
I0
sg41
I20
sbsg42
(lp371
(I20
I0
tp372
a(I10
I0
tp373
a(I1
I0
tp374
a(I8
I0
tp375
a(I4
I0
tp376
a(I4
I0
tp377
a(I10
I0
tp378
a(I3
I0
tp379
a(I8
I0
tp380
a(I4
I0
tp381
asg54
S'0'
sg56
S'Resistance'
p382
sg58
S'An avid scholar. Interested in esoteric philosophy.'
p383
sg60
(lp384
sg63
(lp385
(dp386
g66
Nsg67
Nsg68
Nsg69
(lp387
sg71
Nsg72
Nsg22
S'Provoke'
p388
sa(dp389
g66
Nsg67
Nsg68
Nsg69
(lp390
sg71
I0
sg72
Nsg22
S'Shove'
p391
sasg77
(dp392
g79
I0
sg80
I0
sg81
I0
ssg82
I00
sg83
g358
sg84
(lp393
I0
aI31
aI0
aI0
aI0
aI0
aI0
asg86
S'Theo'
p394
sg88
I1
sg89
I6
sg90
S'M'
sg91
I0
sg92
S'Knight'
p395
sg94
I43
sg95
S'player'
p396
sg97
Nsa(dp397
g7
S'None'
p398
sg9
(lp399
I75
aI65
aI65
aI80
aI65
aI35
aI65
aI35
asg11
I00
sg12
(lp400
(dp401
g15
Nsg16
I00
sg17
I00
sg18
I43
sg19
I00
sg20
S'Eliza'
p402
sg22
S'Iron Lance'
p403
sa(dp404
g15
Nsg16
I00
sg17
I00
sg18
I27
sg19
I00
sg20
g402
sg22
S'Slim Lance'
p405
sa(dp406
g15
Nsg16
I00
sg17
I00
sg18
Nsg19
I00
sg20
g402
sg22
S"Prim's Charm"
p407
sa(dp408
g15
Nsg16
I00
sg17
I00
sg18
I30
sg19
I00
sg20
g402
sg22
S'Steel Lance'
p409
sa(dp410
g15
Nsg16
I00
sg17
I00
sg18
I20
sg19
I00
sg20
g402
sg22
S'Javelin'
p411
sasg32
(lp412
I75
aI45
aI45
aI90
aI45
aI55
aI45
aI55
asg34
g35
(g36
g37
NtRp413
(dp414
g40
I0
sg41
I15
sbsg42
(lp415
(I15
I0
tp416
a(I5
I0
tp417
a(I2
I0
tp418
a(I6
I0
tp419
a(I8
I0
tp420
a(I4
I0
tp421
a(I5
I0
tp422
a(I2
I0
tp423
a(I5
I0
tp424
a(I5
I0
tp425
asg54
S'0'
sg56
S'Resistance'
p426
sg58
S'A moody, sarcastic soldier.'
p427
sg60
(lp428
sg63
(lp429
(dp430
g66
Nsg67
Nsg68
Nsg69
(lp431
sg71
Nsg72
Nsg22
S'Synergy'
p432
sa(dp433
g66
Nsg67
Nsg68
Nsg69
(lp434
sg71
Nsg72
Nsg22
S'Underdog'
p435
sasg77
(dp436
g79
I0
sg80
I0
sg81
I0
ssg82
I00
sg83
g402
sg84
(lp437
I0
aI28
aI0
aI0
aI0
aI0
aI0
asg86
S'Eliza'
p438
sg88
I4
sg89
I4
sg90
S'F'
sg91
I0
sg92
S'Soldier'
p439
sg94
I80
sg95
S'player'
p440
sg97
NsasS'convoy'
p441
(lp442
(dp443
g15
Nsg16
I00
sg17
I00
sg18
I2
sg19
I00
sg20
I0
sg22
S'Spiritbane'
p444
sa(dp445
g15
Nsg16
I00
sg17
I00
sg18
I1
sg19
I00
sg20
I0
sg22
S'Secret Book'
p446
sa(dp447
g15
Nsg16
I00
sg17
I00
sg18
I1
sg19
I00
sg20
I0
sg22
S'Angelic Robe'
p448
sa(dp449
g15
Nsg16
I00
sg17
I00
sg18
I1
sg19
I00
sg20
I0
sg22
S'Mana Ring'
p450
sa(dp451
g15
Nsg16
I00
sg17
I00
sg18
I24
sg19
I00
sg20
I0
sg22
S'Willow Bow'
p452
sa(dp453
g15
Nsg16
I00
sg17
I00
sg18
I30
sg19
I00
sg20
I0
sg22
S'Earth'
p454
sa(dp455
g15
Nsg16
I00
sg17
I00
sg18
I1
sg19
I00
sg20
I0
sg22
S'Talisman'
p456
sa(dp457
g15
Nsg16
I00
sg17
I00
sg18
I3
sg19
I00
sg20
I0
sg22
S'Vulnerary'
p458
sa(dp459
g15
Nsg16
I00
sg17
I00
sg18
I35
sg19
I00
sg20
I0
sg22
S'Hatchet'
p460
sa(dp461
g15
Nsg16
I00
sg17
I00
sg18
I30
sg19
I00
sg20
I0
sg22
S'Steel Sword'
p462
sa(dp463
g15
Nsg16
I00
sg17
I00
sg18
Nsg19
I00
sg20
I0
sg22
S'Sapphire'
p464
sa(dp465
g15
Nsg16
I00
sg17
I00
sg18
I10
sg19
I00
sg20
I0
sg22
S'Windwall'
p466
sasS'groups'
p467
(dp468
sS'allreinforcements'
p469
(dp470
sS'base_conversations'
p471
(dp472
sS'playtime'
p473
I17502208
sS'message'
p474
(lp475
sS'unlocked_lore'
p476
(lp477
S'Sam'
p478
aS'Joel'
p479
aS'Prim'
p480
aS'Ophie'
p481
aS'Althea'
p482
aS'Drake'
p483
aS'Nia'
p484
aS'Renae'
p485
aS'Theo'
p486
aS'Kerala'
p487
aS'Empire'
p488
aS'Eliza'
p489
aS'Podoma'
p490
aS'Rajas'
p491
aS'Ulver'
p492
aS'Vagnius'
p493
asS'statistics'
p494
(lp495
g35
(cCode.CustomObjects
LevelStatistic
p496
g37
NtRp497
(dp498
S'turncount'
p499
I4
sg42
(dp500
g87
(dp501
S'damage'
p502
I13
sS'kills'
p503
I2
sS'healing'
p504
I0
ssg133
(dp505
g502
I8
sg503
I0
sg504
I7
sssg86
S'Prologue'
p506
sbag35
(g496
g37
NtRp507
(dp508
g499
I4
sg42
(dp509
g87
(dp510
g502
I39
sg503
I4
sg504
I0
ssg177
(dp511
g502
I48
sg503
I1
sg504
I0
ssg217
(dp512
g502
I30
sg503
I2
sg504
I0
ssg133
(dp513
g502
I8
sg503
I2
sg504
I12
sssg86
S'Chapter I'
p514
sbag35
(g496
g37
NtRp515
(dp516
g499
I9
sg42
(dp517
g264
(dp518
S'damage'
p519
I67
sS'kills'
p520
I3
sS'healing'
p521
I0
ssg133
(dp522
S'damage'
p523
I4
sS'kills'
p524
I0
sS'healing'
p525
I43
ssg177
(dp526
g523
I52
sg524
I4
sg525
I0
ssg217
(dp527
g523
I14
sg524
I2
sg525
I0
ssg308
(dp528
g519
I44
sg520
I3
sg521
I0
ssg87
(dp529
g523
I21
sg524
I3
sg525
I0
sssg86
S'Chapter II'
p530
sbag35
(g496
g37
NtRp531
(dp532
g499
I15
sg42
(dp533
g394
(dp534
S'damage'
p535
I81
sS'kills'
p536
I1
sS'healing'
p537
I0
ssg264
(dp538
S'damage'
p539
I45
sS'kills'
p540
I5
sS'healing'
p541
I0
ssg133
(dp542
g539
I16
sg540
I0
sg541
I61
ssg177
(dp543
g539
I64
sg540
I3
sg541
I0
ssg217
(dp544
g539
I58
sg540
I3
sg541
I0
ssg350
(dp545
g535
I8
sg536
I3
sg537
I0
ssg308
(dp546
g539
I35
sg540
I2
sg541
I0
ssg87
(dp547
g539
I70
sg540
I6
sg541
I0
sssg86
S'Chapter III'
p548
sbag35
(g496
g37
NtRp549
(dp550
g499
I9
sg42
(dp551
g394
(dp552
S'damage'
p553
I61
sS'kills'
p554
I4
sS'healing'
p555
I0
ssg264
(dp556
g553
I125
sg554
I8
sg555
I0
ssg133
(dp557
g553
I5
sg554
I0
sg555
I44
ssg177
(dp558
g553
I47
sg554
I2
sg555
I0
ssg217
(dp559
g553
I51
sg554
I2
sg555
I0
ssg350
(dp560
g553
I54
sg554
I5
sg555
I0
ssg308
(dp561
g553
I58
sg554
I2
sg555
I0
ssg87
(dp562
g553
I47
sg554
I5
sg555
I0
ssg438
(dp563
S'damage'
p564
I52
sS'kills'
p565
I7
sS'healing'
p566
I0
sssg86
S'Chapter IV'
p567
sbasS'market_items'
p568
c__builtin__
set
p569
((lp570
S'Iron Lance'
p571
aS'Fire'
p572
aS'Heal'
p573
aS'Willow Bow'
p574
aS'Slim Lance'
p575
aS'Iron Axe'
p576
aS'Glimmer'
p577
aS'Vulnerary'
p578
aS'Hatchet'
p579
aS'Wind'
p580
aS'Iron Sword'
p581
atRp582
sS'support'
p583
NsS'event_triggers'
p584
(lp585
sS'objective'
p586
NsS'metaDataObj_changes'
p587
(lp588
sS'counters'
p589
(dp590
S'switches'
p591
I3
sS'money'
p592
I10480
sS'level'
p593
I5
sS'Escaped_Wagons'
p594
I0
sS'Dead_Wagons'
p595
I12
ssS'map'
p596
NsS'state_list'
p597
((lp598
S'turn_change'
p599
a(ltp600
sS'prefabs'
p601
(lp602
sS'phase_info'
p603
(I0
I0
tp604
sg499
I0
sS'game_constants'
p605
(lp606
S'Convoy'
p607
as.