(dp1
S'talk_options'
p2
(lp3
sS'allunits'
p4
(lp5
(dp6
S'ai'
p7
S'None'
p8
sS'growths'
p9
(lp10
I105
aI55
aI35
aI75
aI80
aI80
aI40
aI40
asS'dead'
p11
I00
sS'items'
p12
(lp13
(dp14
S'c_uses'
p15
NsS'locked'
p16
I00
sS'droppable'
p17
I00
sS'uses'
p18
I21
sS'event_combat'
p19
I00
sS'owner'
p20
S'Ophie'
p21
sS'id'
p22
S'Steel Sword'
p23
sa(dp24
g15
Nsg16
I00
sg17
I00
sg18
I7
sg19
I00
sg20
g21
sg22
S'Lancereaver'
p25
sa(dp26
g15
Nsg16
I00
sg17
I00
sg18
I3
sg19
I00
sg20
g21
sg22
S'Steel Knife'
p27
sa(dp28
g15
Nsg16
I00
sg17
I00
sg18
I36
sg19
I00
sg20
g21
sg22
S'Iron Sword'
p29
sa(dp30
g15
Nsg16
I00
sg17
I00
sg18
I2
sg19
I00
sg20
g21
sg22
S'Vulnerary'
p31
sasS'growth_points'
p32
(lp33
I5
aI55
aI35
aI75
aI30
aI30
aI90
aI90
asS'currenthp'
p34
ccopy_reg
_reconstructor
p35
(cCode.UnitObject
Stat
p36
c__builtin__
object
p37
NtRp38
(dp39
S'bonuses'
p40
I0
sS'base_stat'
p41
I29
sbsS'stats'
p42
(lp43
(I29
I0
tp44
a(I11
I2
tp45
a(I6
I0
tp46
a(I13
I0
tp47
a(I16
I0
tp48
a(I11
I0
tp49
a(I7
I0
tp50
a(I6
I0
tp51
a(I7
I0
tp52
a(I6
I0
tp53
asS'event_id'
p54
S'Ophie'
p55
sS'faction'
p56
S'Resistance'
p57
sS'desc'
p58
S'A strong-hearted renegade who often acts before he thinks.'
p59
sS'tags'
p60
(lp61
S'Lord'
p62
asS'status_effects'
p63
(lp64
(dp65
S'count'
p66
NsS'time_left'
p67
NsS'upkeep_sc_count'
p68
NsS'children'
p69
(lp70
sS'parent_id'
p71
NsS'charge'
p72
NsS'rhythm_sc_count'
p73
Nsg22
S'Riposte'
p74
sa(dp75
g66
Nsg67
Nsg68
Nsg69
(lp76
sg71
Nsg72
Nsg73
Nsg22
S'Vantage'
p77
sa(dp78
g66
Nsg67
Nsg68
Nsg69
(lp79
sg71
Nsg72
Nsg73
Nsg22
S'fStrength +2'
p80
sa(dp81
g66
Nsg67
Nsg68
Nsg69
(lp82
sg71
Nsg72
I0
sg73
Nsg22
S'Critical'
p83
sasS'records'
p84
(dp85
S'damage'
p86
I0
sS'kills'
p87
I0
sS'healing'
p88
I0
ssS'finished'
p89
I00
sS'u_id'
p90
g21
sS'wexp'
p91
(lp92
I73
aI0
aI0
aI0
aI0
aI0
aI0
asS'name'
p93
S'Ophie'
p94
sS'movement_group'
p95
I0
sS'level'
p96
I13
sS'gender'
p97
S'M'
sS'TRV'
p98
I0
sS'klass'
p99
S'Swordmaster'
p100
sS'exp'
p101
I36
sS'team'
p102
S'player'
p103
sS'position'
p104
Nsa(dp105
g7
S'None'
p106
sg9
(lp107
I65
aI15
aI65
aI40
aI55
aI80
aI25
aI80
asg11
I00
sg12
(lp108
(dp109
g15
Nsg16
I00
sg17
I00
sg18
I12
sg19
I00
sg20
S'Prim'
p110
sg22
S'Mend'
p111
sa(dp112
g15
Nsg16
I00
sg17
I00
sg18
I23
sg19
I00
sg20
g110
sg22
S'Heal'
p113
sa(dp114
g15
Nsg16
I00
sg17
I00
sg18
I22
sg19
I00
sg20
g110
sg22
S'Glimmer'
p115
sa(dp116
g15
Nsg16
I00
sg17
I00
sg18
I23
sg19
I00
sg20
g110
sg22
S'Shine'
p117
sasg32
(lp118
I35
aI85
aI35
aI10
aI45
aI70
aI75
aI70
asg34
g35
(g36
g37
NtRp119
(dp120
g40
I0
sg41
I17
sbsg42
(lp121
(I17
I0
tp122
a(I1
I0
tp123
a(I8
I0
tp124
a(I7
I0
tp125
a(I10
I0
tp126
a(I11
I0
tp127
a(I3
I0
tp128
a(I11
I0
tp129
a(I3
I0
tp130
a(I5
I0
tp131
asg54
S'Prim'
p132
sg56
S'Resistance'
p133
sg58
S'A shy but kind-hearted young woman. Has an affinity with the spiritual.'
p134
sg60
(lp135
sg63
(lp136
(dp137
g66
Nsg67
Nsg68
Nsg69
(lp138
sg71
Nsg72
Nsg73
Nsg22
S'Healtouch'
p139
sa(dp140
g66
I1
sg67
Nsg68
Nsg69
(lp141
sg71
Nsg72
Nsg73
Nsg22
S'Miracle'
p142
sasg84
(dp143
g86
I0
sg87
I0
sg88
I0
ssg89
I00
sg90
g110
sg91
(lp144
I0
aI0
aI0
aI0
aI65
aI0
aI0
asg93
S'Prim'
p145
sg95
I5
sg96
I10
sg97
S'F'
sg98
I0
sg99
S'Mystic'
p146
sg101
I39
sg102
S'player'
p147
sg104
Nsa(dp148
g7
S'None'
p149
sg9
(lp150
I105
aI80
aI5
aI60
aI55
aI45
aI35
aI20
asg11
I00
sg12
(lp151
(dp152
g15
Nsg16
I00
sg17
I00
sg18
I29
sg19
I00
sg20
S'Joel'
p153
sg22
S'Hatchet'
p154
sa(dp155
g15
Nsg16
I00
sg17
I00
sg18
I23
sg19
I00
sg20
g153
sg22
S'Iron Axe'
p156
sa(dp157
g15
Nsg16
I00
sg17
I00
sg18
I21
sg19
I00
sg20
g153
sg22
S'Steel Axe'
p158
sa(dp159
g15
Nsg16
I00
sg17
I00
sg18
I9
sg19
I00
sg20
g153
sg22
S'Swordreaver'
p160
sa(dp161
g15
Nsg16
I00
sg17
I00
sg18
I2
sg19
I00
sg20
g153
sg22
S'Potion'
p162
sasg32
(lp163
I90
aI90
aI90
aI30
aI90
aI10
aI30
aI10
asg34
g35
(g36
g37
NtRp164
(dp165
g40
I0
sg41
I32
sbsg42
(lp166
(I32
I0
tp167
a(I12
I0
tp168
a(I0
I0
tp169
a(I10
I0
tp170
a(I8
I0
tp171
a(I7
I0
tp172
a(I9
I0
tp173
a(I5
I0
tp174
a(I12
I0
tp175
a(I6
I0
tp176
asg54
S'0'
sg56
S'Resistance'
p177
sg58
S'A jovial former sailor. Always ready for a new adventure.'
p178
sg60
(lp179
sg63
(lp180
(dp181
g66
Nsg67
Nsg68
Nsg69
(lp182
sg71
Nsg72
I0
sg73
Nsg22
S'Cleave'
p183
sa(dp184
g66
Nsg67
Nsg68
Nsg69
(lp185
sg71
Nsg72
I0
sg73
Nsg22
S'Shove'
p186
sa(dp187
g66
Nsg67
Nsg68
Nsg69
(lp188
sg71
Nsg72
Nsg73
Nsg22
S'Heavy Hitter'
p189
sasg84
(dp190
g86
I0
sg87
I0
sg88
I0
ssg89
I00
sg90
g153
sg91
(lp191
I0
aI0
aI71
aI16
aI0
aI0
aI0
asg93
S'Joel'
p192
sg95
I4
sg96
I12
sg97
S'M'
sg98
I0
sg99
S'Warrior'
p193
sg101
I44
sg102
S'player'
p194
sg104
Nsa(dp195
g7
S'None'
p196
sg9
(lp197
I80
aI55
aI35
aI80
aI80
aI25
aI20
aI40
asg11
I00
sg12
(lp198
(dp199
g15
Nsg16
I00
sg17
I00
sg18
I24
sg19
I00
sg20
S'Nia'
p200
sg22
S'Willow Bow'
p201
sa(dp202
g15
Nsg16
I00
sg17
I00
sg18
I23
sg19
I00
sg20
g200
sg22
S'Oak Bow'
p203
sa(dp204
g15
Nsg16
I00
sg17
I00
sg18
I16
sg19
I00
sg20
g200
sg22
S'Longbow'
p205
sa(dp206
g15
Nsg16
I00
sg17
I00
sg18
I20
sg19
I00
sg20
g200
sg22
S'Yew Bow'
p207
sa(dp208
g15
Nsg16
I00
sg17
I00
sg18
I2
sg19
I00
sg20
g200
sg22
S'Vulnerary'
p209
sasg32
(lp210
I50
aI0
aI0
aI50
aI50
aI0
aI50
aI50
asg34
g35
(g36
g37
NtRp211
(dp212
g40
I0
sg41
I25
sbsg42
(lp213
(I25
I0
tp214
a(I13
I0
tp215
a(I7
I0
tp216
a(I15
I0
tp217
a(I15
I0
tp218
a(I6
I0
tp219
a(I6
I0
tp220
a(I8
I0
tp221
a(I7
I0
tp222
a(I6
I0
tp223
asg54
S'0'
sg56
S'Resistance'
p224
sg58
S'A quiet archer most at home in the wilderness.'
p225
sg60
(lp226
sg63
(lp227
(dp228
g66
Nsg67
Nsg68
Nsg69
(lp229
sg71
Nsg72
Nsg73
Nsg22
S'Prescience'
p230
sa(dp231
g66
Nsg67
Nsg68
Nsg69
(lp232
sg71
Nsg72
I0
sg73
Nsg22
S'Critical'
p233
sa(dp234
g66
Nsg67
Nsg68
Nsg69
(lp235
sg71
Nsg72
Nsg73
Nsg22
S'Evasion'
p236
sasg84
(dp237
g86
I0
sg87
I0
sg88
I0
ssg89
I00
sg90
g200
sg91
(lp238
I0
aI0
aI0
aI77
aI0
aI0
aI0
asg93
S'Nia'
p239
sg95
I0
sg96
I14
sg97
S'F'
sg98
I0
sg99
S'Sniper'
p240
sg101
I7
sg102
S'player'
p241
sg104
Nsa(dp242
g7
S'None'
p243
sg9
(lp244
I60
aI15
aI85
aI40
aI60
aI60
aI20
aI55
asg11
I00
sg12
(lp245
(dp246
g15
Nsg16
I00
sg17
I00
sg18
I20
sg19
I00
sg20
S'Althea'
p247
sg22
S'Water'
p248
sa(dp249
g15
Nsg16
I00
sg17
I00
sg18
I25
sg19
I00
sg20
g247
sg22
S'Earth'
p250
sa(dp251
g15
Nsg16
I00
sg17
I00
sg18
I9
sg19
I00
sg20
g247
sg22
S'Wind'
p252
sa(dp253
g15
Nsg16
I00
sg17
I00
sg18
I5
sg19
I00
sg20
g247
sg22
S'Wyrmsfire'
p254
sa(dp255
g15
Nsg16
I00
sg17
I00
sg18
I3
sg19
I00
sg20
g247
sg22
S'Vulnerary'
p256
sasg32
(lp257
I90
aI85
aI15
aI10
aI90
aI90
aI30
aI45
asg34
g35
(g36
g37
NtRp258
(dp259
g40
I5
sg41
I19
sbsg42
(lp260
(I19
I5
tp261
a(I2
I0
tp262
a(I14
I0
tp263
a(I9
I0
tp264
a(I10
I0
tp265
a(I10
I0
tp266
a(I7
I0
tp267
a(I11
I2
tp268
a(I4
I0
tp269
a(I6
I0
tp270
asg54
S'0'
sg56
S'Resistance'
p271
sg58
S'A forthright but elegant and refined sorceress.'
p272
sg60
(lp273
sg63
(lp274
(dp275
g66
Nsg67
Nsg68
Nsg69
(lp276
sg71
Nsg72
Nsg73
Nsg22
S'Focus'
p277
sa(dp278
g66
Nsg67
Nsg68
Nsg69
(lp279
sg71
Nsg72
Nsg73
Nsg22
S'fMaximum HP +5'
p280
sa(dp281
g66
Nsg67
Nsg68
Nsg69
(lp282
sg71
Nsg72
Nsg73
Nsg22
S'Conductance'
p283
sa(dp284
g66
Nsg67
Nsg68
Nsg69
(lp285
sg71
Nsg72
Nsg73
Nsg22
S'Resistance +2'
p286
sasg84
(dp287
g86
I0
sg87
I0
sg88
I0
ssg89
I00
sg90
g247
sg91
(lp288
I0
aI0
aI0
aI0
aI0
aI64
aI0
asg93
S'Althea'
p289
sg95
I5
sg96
I12
sg97
S'F'
sg98
I0
sg99
S'Sage'
p290
sg101
I64
sg102
S'player'
p291
sg104
Nsa(dp292
g7
S'None'
p293
sg9
(lp294
I95
aI65
aI5
aI60
aI60
aI40
aI55
aI40
asg11
I00
sg12
(lp295
(dp296
g15
Nsg16
I00
sg17
I00
sg18
I16
sg19
I00
sg20
S'Drake'
p297
sg22
S'Javelin'
p298
sa(dp299
g15
Nsg16
I00
sg17
I00
sg18
I3
sg19
I00
sg20
g297
sg22
S'Iron Lance'
p300
sa(dp301
g15
Nsg16
I00
sg17
I00
sg18
I30
sg19
I00
sg20
g297
sg22
S'Steel Sword'
p302
sa(dp303
g15
Nsg16
I00
sg17
I00
sg18
I27
sg19
I00
sg20
g297
sg22
S'Steel Lance'
p304
sa(dp305
g15
Nsg16
I00
sg17
I00
sg18
I3
sg19
I00
sg20
g297
sg22
S'Vulnerary'
p306
sasg32
(lp307
I25
aI75
aI75
aI50
aI50
aI50
aI25
aI50
asg34
g35
(g36
g37
NtRp308
(dp309
g40
I0
sg41
I22
sbsg42
(lp310
(I22
I0
tp311
a(I9
I0
tp312
a(I1
I0
tp313
a(I9
I0
tp314
a(I8
I0
tp315
a(I9
I0
tp316
a(I8
I0
tp317
a(I5
I0
tp318
a(I7
I0
tp319
a(I7
I0
tp320
asg54
S'0'
sg56
S'Resistance'
p321
sg58
S"A disgraced Imperial knight now in Althea's service."
p322
sg60
(lp323
sg63
(lp324
(dp325
g66
Nsg67
Nsg68
Nsg69
(lp326
sg71
Nsg72
Nsg73
Nsg22
S'Canto'
p327
sa(dp328
g66
Nsg67
Nsg68
Nsg69
(lp329
sg71
Nsg72
Nsg73
Nsg22
S'Savior'
p330
sasg84
(dp331
g86
I0
sg87
I0
sg88
I0
ssg89
I00
sg90
g297
sg91
(lp332
I35
aI36
aI0
aI0
aI0
aI0
aI0
asg93
S'Drake'
p333
sg95
I2
sg96
I10
sg97
S'M'
sg98
I0
sg99
S'Cavalier'
p334
sg101
I52
sg102
S'player'
p335
sg104
Nsa(dp336
g7
S'None'
p337
sg9
(lp338
I95
aI40
aI60
aI55
aI95
aI65
aI35
aI55
asg11
I00
sg12
(lp339
(dp340
g15
Nsg16
I00
sg17
I00
sg18
I28
sg19
I00
sg20
S'Renae'
p341
sg22
S'Steel Sword'
p342
sa(dp343
g15
Nsg16
I00
sg17
I00
sg18
I24
sg19
I00
sg20
g341
sg22
S'Iron Sword'
p344
sa(dp345
g15
Nsg16
I00
sg17
I00
sg18
I5
sg19
I00
sg20
g341
sg22
S'Levin Sword'
p346
sa(dp347
g15
Nsg16
I00
sg17
I00
sg18
Nsg19
I00
sg20
g341
sg22
S"Prim's Charm"
p348
sa(dp349
g15
Nsg16
I00
sg17
I00
sg18
I11
sg19
I00
sg20
g341
sg22
S'Physic'
p350
sasg32
(lp351
I20
aI90
aI10
aI80
aI20
aI40
aI60
aI80
asg34
g35
(g36
g37
NtRp352
(dp353
g40
I0
sg41
I19
sbsg42
(lp354
(I19
I0
tp355
a(I5
I0
tp356
a(I7
I0
tp357
a(I8
I0
tp358
a(I15
I0
tp359
a(I7
I0
tp360
a(I4
I0
tp361
a(I6
I0
tp362
a(I4
I0
tp363
a(I6
I0
tp364
asg54
S'0'
sg56
S'Kerala'
p365
sg58
S'An energetic thief with a kleptomanic streak.'
p366
sg60
(lp367
sg63
(lp368
(dp369
g66
Nsg67
Nsg68
Nsg69
(lp370
sg71
Nsg72
Nsg73
Nsg22
S'Locktouch'
p371
sa(dp372
g66
Nsg67
Nsg68
Nsg69
(lp373
sg71
Nsg72
Nsg73
Nsg22
S'Steal'
p374
sa(dp375
g66
Nsg67
Nsg68
Nsg69
(lp376
sg71
Nsg72
Nsg73
Nsg22
S'Underdog'
p377
sasg84
(dp378
g86
I0
sg87
I0
sg88
I0
ssg89
I00
sg90
g341
sg91
(lp379
I44
aI0
aI0
aI0
aI0
aI0
aI0
asg93
S'Renae'
p380
sg95
I0
sg96
I10
sg97
S'F'
sg98
I0
sg99
S'Thief'
p381
sg101
I27
sg102
S'player'
p382
sg104
Nsa(dp383
g7
S'None'
p384
sg9
(lp385
I120
aI55
aI25
aI40
aI40
aI45
aI75
aI40
asg11
I00
sg12
(lp386
(dp387
g15
Nsg16
I00
sg17
I00
sg18
I17
sg19
I00
sg20
S'Theo'
p388
sg22
S'Mithril Lance'
p389
sa(dp390
g15
Nsg16
I00
sg17
I00
sg18
I41
sg19
I00
sg20
g388
sg22
S'Iron Lance'
p391
sa(dp392
g15
Nsg16
I00
sg17
I00
sg18
I18
sg19
I00
sg20
g388
sg22
S'Javelin'
p393
sa(dp394
g15
Nsg16
I00
sg17
I00
sg18
I25
sg19
I00
sg20
g388
sg22
S'Great Lance'
p395
sa(dp396
g15
Nsg16
I00
sg17
I00
sg18
I3
sg19
I00
sg20
g388
sg22
S'Vulnerary'
p397
sasg32
(lp398
I70
aI80
aI0
aI90
aI90
aI20
aI0
aI90
asg34
g35
(g36
g37
NtRp399
(dp400
g40
I0
sg41
I25
sbsg42
(lp401
(I25
I0
tp402
a(I12
I0
tp403
a(I2
I0
tp404
a(I9
I0
tp405
a(I5
I0
tp406
a(I6
I0
tp407
a(I13
I0
tp408
a(I4
I0
tp409
a(I8
I0
tp410
a(I4
I0
tp411
asg54
S'0'
sg56
S'Resistance'
p412
sg58
S'An avid scholar. Interested in esoteric philosophy.'
p413
sg60
(lp414
sg63
(lp415
(dp416
g66
Nsg67
Nsg68
Nsg69
(lp417
sg71
Nsg72
Nsg73
Nsg22
S'Provoke'
p418
sa(dp419
g66
Nsg67
Nsg68
Nsg69
(lp420
sg71
Nsg72
I0
sg73
Nsg22
S'Shove'
p421
sa(dp422
g66
Nsg67
Nsg68
Nsg69
(lp423
sg71
Nsg72
Nsg73
Nsg22
S'tile_Regeneration'
p424
sasg84
(dp425
g86
I0
sg87
I0
sg88
I0
ssg89
I00
sg90
g388
sg91
(lp426
I0
aI54
aI0
aI0
aI0
aI0
aI0
asg93
S'Theo'
p427
sg95
I1
sg96
I10
sg97
S'M'
sg98
I0
sg99
S'Knight'
p428
sg101
I5
sg102
S'player'
p429
sg104
Nsa(dp430
g7
S'None'
p431
sg9
(lp432
I75
aI65
aI65
aI80
aI65
aI35
aI65
aI35
asg11
I00
sg12
(lp433
(dp434
g15
Nsg16
I00
sg17
I00
sg18
I12
sg19
I00
sg20
S'Eliza'
p435
sg22
S'Short Spear'
p436
sa(dp437
g15
Nsg16
I00
sg17
I00
sg18
I23
sg19
I00
sg20
g435
sg22
S'Great Lance'
p438
sa(dp439
g15
Nsg16
I00
sg17
I00
sg18
I10
sg19
I00
sg20
g435
sg22
S'Axereaver'
p440
sa(dp441
g15
Nsg16
I00
sg17
I00
sg18
I2
sg19
I00
sg20
g435
sg22
S'Vulnerary'
p442
sa(dp443
g15
Nsg16
I00
sg17
I00
sg18
I14
sg19
I00
sg20
g435
sg22
S'Short Axe'
p444
sasg32
(lp445
I25
aI35
aI35
aI70
aI35
aI65
aI35
aI65
asg34
g35
(g36
g37
NtRp446
(dp447
g40
I5
sg41
I24
sbsg42
(lp448
(I24
I5
tp449
a(I11
I0
tp450
a(I7
I0
tp451
a(I13
I0
tp452
a(I14
I2
tp453
a(I6
I0
tp454
a(I11
I0
tp455
a(I6
I0
tp456
a(I10
I0
tp457
a(I6
I0
tp458
asg54
S'0'
sg56
S'Resistance'
p459
sg58
S'A moody, sarcastic soldier.'
p460
sg60
(lp461
sg63
(lp462
(dp463
g66
Nsg67
Nsg68
Nsg69
(lp464
sg71
Nsg72
Nsg73
Nsg22
S'Synergy'
p465
sa(dp466
g66
Nsg67
Nsg68
Nsg69
(lp467
sg71
Nsg72
Nsg73
Nsg22
S'fMaximum HP +5'
p468
sa(dp469
g66
Nsg67
Nsg68
Nsg69
(lp470
sg71
Nsg72
Nsg73
Nsg22
S'fSpeed +2'
p471
sasg84
(dp472
g86
I0
sg87
I0
sg88
I0
ssg89
I00
sg90
g435
sg91
(lp473
I0
aI49
aI16
aI0
aI0
aI0
aI0
asg93
S'Eliza'
p474
sg95
I1
sg96
I11
sg97
S'F'
sg98
I0
sg99
S'Halberdier'
p475
sg101
I73
sg102
S'player'
p476
sg104
Nsa(dp477
g7
S'None'
p478
sg9
(lp479
I65
aI15
aI35
aI45
aI55
aI55
aI40
aI65
asg11
I00
sg12
(lp480
(dp481
g15
Nsg16
I00
sg17
I00
sg18
I24
sg19
I00
sg20
S'Sam'
p482
sg22
S'Heal'
p483
sa(dp484
g15
Nsg16
I00
sg17
I00
sg18
I4
sg19
I00
sg20
g482
sg22
S'Shine'
p485
sa(dp486
g15
Nsg16
I00
sg17
I00
sg18
I2
sg19
I00
sg20
g482
sg22
S'Fortune'
p487
sa(dp488
g15
Nsg16
I00
sg17
I00
sg18
I14
sg19
I00
sg20
g482
sg22
S'Mend'
p489
sasg32
(lp490
I10
aI10
aI90
aI30
aI70
aI70
aI10
aI10
asg34
g35
(g36
g37
NtRp491
(dp492
g40
I0
sg41
I24
sbsg42
(lp493
(I24
I0
tp494
a(I4
I0
tp495
a(I10
I0
tp496
a(I11
I0
tp497
a(I11
I0
tp498
a(I9
I0
tp499
a(I7
I0
tp500
a(I13
I0
tp501
a(I7
I0
tp502
a(I6
I0
tp503
asg54
S'Sam'
p504
sg56
S'Resistance'
p505
sg58
S"The resistance's leader. Ambitious and inquisitive."
p506
sg60
(lp507
sg63
(lp508
(dp509
g66
Nsg67
Nsg68
Nsg69
(lp510
sg71
Nsg72
Nsg73
Nsg22
S'Inspiration'
p511
sa(dp512
g66
Nsg67
Nsg68
Nsg69
(lp513
sg71
Nsg72
Nsg73
Nsg22
S'Skill_Aura'
p514
sa(dp515
g66
Nsg67
Nsg68
Nsg69
(lp516
sg71
Nsg72
I0
sg73
Nsg22
S'Rally'
p517
sasg84
(dp518
g86
I0
sg87
I0
sg88
I0
ssg89
I00
sg90
g482
sg91
(lp519
I0
aI0
aI0
aI0
aI77
aI0
aI0
asg93
S'Sam'
p520
sg95
I5
sg96
I12
sg97
S'M'
sg98
I0
sg99
S'Strategist'
p521
sg101
I7
sg102
S'player'
p522
sg104
Nsa(dp523
g7
S'None'
p524
sg9
(lp525
I55
aI5
aI65
aI55
aI45
aI35
aI40
aI55
asg11
I00
sg12
(lp526
(dp527
g15
Nsg16
I00
sg17
I00
sg18
I28
sg19
I00
sg20
S'Kayla'
p528
sg22
S'Flux'
p529
sa(dp530
g15
Nsg16
I00
sg17
I00
sg18
I25
sg19
I00
sg20
g528
sg22
S'Nyx'
p531
sa(dp532
g15
Nsg16
I00
sg17
I00
sg18
I7
sg19
I00
sg20
g528
sg22
S'Scathe'
p533
sa(dp534
g15
Nsg16
I00
sg17
I00
sg18
I3
sg19
I00
sg20
g528
sg22
S'Vulnerary'
p535
sasg32
(lp536
I60
aI60
aI80
aI60
aI40
aI20
aI30
aI60
asg34
g35
(g36
g37
NtRp537
(dp538
g40
I0
sg41
I24
sbsg42
(lp539
(I24
I0
tp540
a(I1
I0
tp541
a(I10
I0
tp542
a(I11
I0
tp543
a(I11
I0
tp544
a(I7
I0
tp545
a(I8
I0
tp546
a(I10
I0
tp547
a(I7
I0
tp548
a(I5
I0
tp549
asg54
S'Kayla'
p550
sg56
S'Resistance'
p551
sg58
S'A scheming diplomat from the Confederacy.'
p552
sg60
(lp553
sg63
(lp554
(dp555
g66
Nsg67
Nsg68
Nsg69
(lp556
sg71
Nsg72
Nsg73
Nsg22
S'Hex'
p557
sa(dp558
g66
Nsg67
Nsg68
Nsg69
(lp559
sg71
Nsg72
Nsg73
Nsg22
S'Empowered'
p560
sa(dp561
g66
Nsg67
Nsg68
Nsg69
(lp562
sg71
Nsg72
I0
sg73
Nsg22
S'Gate'
p563
sasg84
(dp564
g86
I0
sg87
I0
sg88
I0
ssg89
I00
sg90
g528
sg91
(lp565
I0
aI0
aI0
aI0
aI0
aI0
aI71
asg93
S'Kayla'
p566
sg95
I5
sg96
I11
sg97
S'F'
sg98
I0
sg99
S'Warlock'
p567
sg101
I59
sg102
S'player'
p568
sg104
Nsa(dp569
g7
S'Pursue'
p570
sg9
(lp571
I120
aI65
aI5
aI55
aI40
aI20
aI35
aI20
asg11
I00
sg12
(lp572
(dp573
g15
Nsg16
I00
sg17
I00
sg18
I22
sg19
I00
sg20
S'Coyote'
p574
sg22
S'Great Sword'
p575
sa(dp576
g15
Nsg16
I00
sg17
I00
sg18
I9
sg19
I00
sg20
g574
sg22
S'Rusted Sword'
p577
sa(dp578
g15
Nsg16
I00
sg17
I00
sg18
I7
sg19
I00
sg20
g574
sg22
S'Superior Edge'
p579
sa(dp580
g15
Nsg16
I00
sg17
I00
sg18
I14
sg19
I00
sg20
g574
sg22
S'Iron Knife'
p581
sa(dp582
g15
Nsg16
I00
sg17
I00
sg18
I3
sg19
I00
sg20
g574
sg22
S'Vulnerary'
p583
sasg32
(lp584
I70
aI15
aI55
aI5
aI90
aI70
aI85
aI70
asg34
g35
(g36
g37
NtRp585
(dp586
g40
I0
sg41
I30
sbsg42
(lp587
(I30
I0
tp588
a(I10
I0
tp589
a(I0
I0
tp590
a(I14
I0
tp591
a(I11
I0
tp592
a(I4
I0
tp593
a(I8
I0
tp594
a(I4
I0
tp595
a(I9
I0
tp596
a(I6
I0
tp597
asg54
S'0'
sg56
S'Resistance'
p598
sg58
S'A troubled wandererer with a mysterious past.'
p599
sg60
(lp600
sg63
(lp601
(dp602
g66
Nsg67
Nsg68
Nsg69
(lp603
sg71
Nsg72
Nsg73
Nsg22
S'Initiative'
p604
sa(dp605
g66
Nsg67
Nsg68
Nsg69
(lp606
sg71
Nsg72
Nsg73
Nsg22
S'Resist Status'
p607
sa(dp608
g66
Nsg67
Nsg68
Nsg69
(lp609
sg71
Nsg72
Nsg73
Nsg22
S'Poise'
p610
sasg84
(dp611
g86
I0
sg87
I0
sg88
I0
ssg89
I00
sg90
g574
sg91
(lp612
I68
aI0
aI16
aI0
aI0
aI0
aI0
asg93
S'Coyote'
p613
sg95
I4
sg96
I11
sg97
S'M'
sg98
I0
sg99
S'Vanguard'
p614
sg101
I93
sg102
S'player'
p615
sg104
Nsa(dp616
g7
S'Pursue'
p617
sg9
(lp618
I95
aI75
aI0
aI45
aI60
aI0
aI20
aI20
asg11
I00
sg12
(lp619
(dp620
g15
Nsg16
I00
sg17
I00
sg18
I45
sg19
I00
sg20
I163
sg22
S'Iron Axe'
p621
sasg32
(lp622
I50
aI50
aI0
aI50
aI0
aI0
aI0
aI0
asg34
I0
sg42
(lp623
(I22
I0
tp624
a(I10
I0
tp625
a(I0
I0
tp626
a(I5
I0
tp627
a(I9
I0
tp628
a(I0
I0
tp629
a(I2
I0
tp630
a(I2
I0
tp631
a(I8
I0
tp632
a(I5
I0
tp633
asg54
I0
sg56
g551
sg58
S'A summoned phantom'
p634
sg60
(lp635
S'Mindless'
p636
aS'Summon_Phantom_Kayla'
p637
asg63
(lp638
sg84
(dp639
g86
I0
sg87
I0
sg88
I0
ssg89
I00
sg90
I163
sg91
(lp640
I0
aI0
aI1
aI0
aI0
aI0
aI0
asg93
S'Phantom'
p641
sg95
I0
sg96
I11
sg97
S'M'
sg98
I0
sg99
S'Phantom'
p642
sg101
I0
sg102
g568
sg104
NsasS'convoy'
p643
(lp644
(dp645
g15
Nsg16
I00
sg17
I00
sg18
I3
sg19
I00
sg20
I0
sg22
S'Spiritbane'
p646
sa(dp647
g15
Nsg16
I00
sg17
I00
sg18
I1
sg19
I00
sg20
I0
sg22
S'Secret Book'
p648
sa(dp649
g15
Nsg16
I00
sg17
I00
sg18
I1
sg19
I00
sg20
I0
sg22
S'Angelic Robe'
p650
sa(dp651
g15
Nsg16
I00
sg17
I00
sg18
I1
sg19
I00
sg20
I0
sg22
S'Mana Ring'
p652
sa(dp653
g15
Nsg16
I00
sg17
I00
sg18
I1
sg19
I00
sg20
I0
sg22
S'Talisman'
p654
sa(dp655
g15
Nsg16
I00
sg17
I00
sg18
I10
sg19
I00
sg20
I0
sg22
S'Windwall'
p656
sa(dp657
g15
Nsg16
I00
sg17
I00
sg18
I15
sg19
I00
sg20
I0
sg22
S'Magebane Sword'
p658
sa(dp659
g15
Nsg16
I00
sg17
I00
sg18
I1
sg19
I00
sg20
I0
sg22
S'Energy Ring'
p660
sa(dp661
g15
Nsg16
I00
sg17
I00
sg18
I1
sg19
I00
sg20
I0
sg22
S'Speedwings'
p662
sa(dp663
g15
Nsg16
I00
sg17
I00
sg18
I10
sg19
I00
sg20
I0
sg22
S'Fly'
p664
sa(dp665
g15
Nsg16
I00
sg17
I00
sg18
I2
sg19
I00
sg20
I0
sg22
S'Spiritbane'
p666
sa(dp667
g15
Nsg16
I00
sg17
I00
sg18
I3
sg19
I00
sg20
I0
sg22
S'Barkskin'
p668
sa(dp669
g15
Nsg16
I00
sg17
I00
sg18
I15
sg19
I00
sg20
I0
sg22
S'Nyx'
p670
sa(dp671
g15
Nsg16
I00
sg17
I00
sg18
I1
sg19
I00
sg20
I0
sg22
S'Energy Ring'
p672
sa(dp673
g15
Nsg16
I00
sg17
I00
sg18
I7
sg19
I00
sg20
I0
sg22
S'Javelin'
p674
sa(dp675
g15
Nsg16
I00
sg17
I00
sg18
I14
sg19
I00
sg20
I0
sg22
S'Hand Axe'
p676
sa(dp677
g15
Nsg16
I00
sg17
I00
sg18
I25
sg19
I00
sg20
I0
sg22
S'Hatchet'
p678
sa(dp679
g15
Nsg16
I00
sg17
I00
sg18
I45
sg19
I00
sg20
I0
sg22
S'Iron Lance'
p680
sa(dp681
g15
Nsg16
I00
sg17
I00
sg18
I14
sg19
I00
sg20
I0
sg22
S'Fire'
p682
sa(dp683
g15
Nsg16
I00
sg17
I00
sg18
I24
sg19
I00
sg20
I0
sg22
S'Great Lance'
p684
sa(dp685
g15
Nsg16
I00
sg17
I00
sg18
I16
sg19
I00
sg20
I0
sg22
S'Mithril Sword'
p686
sa(dp687
g15
Nsg16
I00
sg17
I00
sg18
I3
sg19
I00
sg20
I0
sg22
S'Elixir'
p688
sa(dp689
g15
Nsg16
I00
sg17
I00
sg18
I24
sg19
I00
sg20
I0
sg22
S'Great Axe'
p690
sa(dp691
g15
Nsg16
I00
sg17
I00
sg18
I19
sg19
I00
sg20
I0
sg22
S'Mithril Axe'
p692
sa(dp693
g15
Nsg16
I00
sg17
I00
sg18
I4
sg19
I00
sg20
I0
sg22
S'Blizzard'
p694
sa(dp695
g15
Nsg16
I00
sg17
I00
sg18
I3
sg19
I00
sg20
I0
sg22
S'Vulnerary'
p696
sa(dp697
g15
Nsg16
I00
sg17
I00
sg18
I15
sg19
I00
sg20
I0
sg22
S'Slim Lance'
p698
sa(dp699
g15
Nsg16
I00
sg17
I00
sg18
I1
sg19
I00
sg20
I0
sg22
S'Secret Book'
p700
sasS'groups'
p701
(dp702
sS'allreinforcements'
p703
(dp704
sS'base_conversations'
p705
(dp706
sS'playtime'
p707
I38985780
sS'message'
p708
(lp709
sS'unlocked_lore'
p710
(lp711
S'Sam'
p712
aS'Joel'
p713
aS'Prim'
p714
aS'Ophie'
p715
aS'Althea'
p716
aS'Drake'
p717
aS'Nia'
p718
aS'Renae'
p719
aS'Theo'
p720
aS'Kerala'
p721
aS'Empire'
p722
aS'Eliza'
p723
aS'Podoma'
p724
aS'Rajas'
p725
aS'Ulver'
p726
aS'Vagnius'
p727
aS'CFS'
p728
aS'Kayla'
p729
aS'CFS'
p730
aS'Kayla'
p731
aS'Tyrana'
p732
aS'Coyote'
p733
asS'statistics'
p734
(lp735
g35
(cCode.CustomObjects
LevelStatistic
p736
g37
NtRp737
(dp738
S'turncount'
p739
I4
sg42
(dp740
g94
(dp741
S'damage'
p742
I13
sS'kills'
p743
I2
sS'healing'
p744
I0
ssg145
(dp745
g742
I8
sg743
I0
sg744
I7
sssg93
S'Prologue'
p746
sbag35
(g736
g37
NtRp747
(dp748
g739
I4
sg42
(dp749
g94
(dp750
g742
I39
sg743
I4
sg744
I0
ssg192
(dp751
g742
I48
sg743
I1
sg744
I0
ssg239
(dp752
g742
I30
sg743
I2
sg744
I0
ssg145
(dp753
g742
I8
sg743
I2
sg744
I12
sssg93
S'Chapter I'
p754
sbag35
(g736
g37
NtRp755
(dp756
g739
I9
sg42
(dp757
g289
(dp758
S'damage'
p759
I67
sS'kills'
p760
I3
sS'healing'
p761
I0
ssg145
(dp762
S'damage'
p763
I4
sS'kills'
p764
I0
sS'healing'
p765
I43
ssg192
(dp766
g763
I52
sg764
I4
sg765
I0
ssg239
(dp767
g763
I14
sg764
I2
sg765
I0
ssg333
(dp768
g759
I44
sg760
I3
sg761
I0
ssg94
(dp769
g763
I21
sg764
I3
sg765
I0
sssg93
S'Chapter II'
p770
sbag35
(g736
g37
NtRp771
(dp772
g739
I15
sg42
(dp773
g427
(dp774
S'damage'
p775
I81
sS'kills'
p776
I1
sS'healing'
p777
I0
ssg289
(dp778
S'damage'
p779
I45
sS'kills'
p780
I5
sS'healing'
p781
I0
ssg145
(dp782
g779
I16
sg780
I0
sg781
I61
ssg192
(dp783
g779
I64
sg780
I3
sg781
I0
ssg239
(dp784
g779
I58
sg780
I3
sg781
I0
ssg380
(dp785
g775
I8
sg776
I3
sg777
I0
ssg333
(dp786
g779
I35
sg780
I2
sg781
I0
ssg94
(dp787
g779
I70
sg780
I6
sg781
I0
sssg93
S'Chapter III'
p788
sbag35
(g736
g37
NtRp789
(dp790
g739
I9
sg42
(dp791
g427
(dp792
S'damage'
p793
I61
sS'kills'
p794
I4
sS'healing'
p795
I0
ssg289
(dp796
g793
I125
sg794
I8
sg795
I0
ssg145
(dp797
g793
I5
sg794
I0
sg795
I44
ssg192
(dp798
g793
I47
sg794
I2
sg795
I0
ssg239
(dp799
g793
I51
sg794
I2
sg795
I0
ssg380
(dp800
g793
I54
sg794
I5
sg795
I0
ssg333
(dp801
g793
I58
sg794
I2
sg795
I0
ssg94
(dp802
g793
I47
sg794
I5
sg795
I0
ssg474
(dp803
S'damage'
p804
I52
sS'kills'
p805
I7
sS'healing'
p806
I0
sssg93
S'Chapter IV'
p807
sbag35
(g736
g37
NtRp808
(dp809
g739
I14
sg42
(dp810
g427
(dp811
S'damage'
p812
I49
sS'kills'
p813
I2
sS'healing'
p814
I0
ssg289
(dp815
g812
I43
sg813
I4
sg814
I0
ssg145
(dp816
g812
I11
sg813
I1
sg814
I63
ssg520
(dp817
S'damage'
p818
I18
sS'kills'
p819
I0
sS'healing'
p820
I23
ssg192
(dp821
g812
I27
sg813
I1
sg814
I0
ssg239
(dp822
g812
I30
sg813
I3
sg814
I0
ssg380
(dp823
g812
I52
sg813
I3
sg814
I0
ssg333
(dp824
g812
I68
sg813
I2
sg814
I0
ssg566
(dp825
g818
I82
sg819
I6
sg820
I0
ssg94
(dp826
g812
I117
sg813
I8
sg814
I0
ssg474
(dp827
g812
I17
sg813
I2
sg814
I0
sssg93
S'Chapter V'
p828
sbag35
(g736
g37
NtRp829
(dp830
g739
I20
sg42
(dp831
g427
(dp832
S'damage'
p833
I117
sS'kills'
p834
I4
sS'healing'
p835
I0
ssg289
(dp836
g833
I131
sg834
I7
sg835
I0
ssg145
(dp837
g833
I22
sg834
I1
sg835
I126
ssg520
(dp838
g833
I59
sg834
I6
sg835
I72
ssg192
(dp839
g833
I130
sg834
I4
sg835
I0
ssg239
(dp840
g833
I194
sg834
I9
sg835
I0
ssg380
(dp841
g833
I61
sg834
I3
sg835
I0
ssg333
(dp842
g833
I96
sg834
I4
sg835
I0
ssg566
(dp843
g833
I105
sg834
I4
sg835
I0
ssg613
(dp844
S'damage'
p845
I82
sS'kills'
p846
I6
sS'healing'
p847
I0
ssg94
(dp848
g833
I48
sg834
I4
sg835
I0
ssg474
(dp849
g833
I74
sg834
I9
sg835
I0
sssg93
S'Chapter VI'
p850
sbag35
(g736
g37
NtRp851
(dp852
g739
I16
sg42
(dp853
g427
(dp854
S'damage'
p855
I59
sS'kills'
p856
I2
sS'healing'
p857
I0
ssg641
(dp858
g86
I0
sg87
I0
sg88
I0
ssg289
(dp859
g855
I150
sg856
I5
sg857
I0
ssg145
(dp860
g855
I19
sg856
I2
sg857
I113
ssg520
(dp861
g855
I28
sg856
I2
sg857
I66
ssg192
(dp862
g855
I185
sg856
I6
sg857
I0
ssg239
(dp863
g855
I194
sg856
I12
sg857
I0
ssg380
(dp864
g855
I17
sg856
I4
sg857
I0
ssg333
(dp865
g855
I49
sg856
I1
sg857
I0
ssg566
(dp866
g855
I127
sg856
I2
sg857
I0
ssg613
(dp867
g855
I70
sg856
I5
sg857
I0
ssg94
(dp868
g855
I296
sg856
I16
sg857
I0
ssg474
(dp869
g855
I95
sg856
I4
sg857
I0
sssg93
S'Chapter VII'
p870
sbasS'market_items'
p871
c__builtin__
set
p872
((lp873
S'Nyx'
p874
aS'Glimmer'
p875
aS'Great Axe'
p876
aS'Great Bow'
p877
aS'Mend'
p878
aS'Spiritbane'
p879
aS'Potion'
p880
aS'Fire'
p881
aS'Heal'
p882
aS'Great Lance'
p883
aS'Water'
p884
aS'Hand Axe'
p885
aS'Iron Sword'
p886
aS'Shine'
p887
aS'Iron Lance'
p888
aS'Hatchet'
p889
aS'Vulnerary'
p890
aS'Willow Bow'
p891
aS'Barkskin'
p892
aS'Flux'
p893
aS'Slim Lance'
p894
aS'Wind'
p895
aS'Steel Lance'
p896
aS'Longbow'
p897
aS'Iron Knife'
p898
aS'Scathe'
p899
aS'Oak Bow'
p900
aS'Steel Sword'
p901
aS'Javelin'
p902
aS'Steel Axe'
p903
aS'Earth'
p904
aS'Great Sword'
p905
aS'Iron Axe'
p906
atRp907
sS'support'
p908
NsS'event_triggers'
p909
(lp910
sS'objective'
p911
NsS'metaDataObj_changes'
p912
(lp913
sS'counters'
p914
(dp915
S'Dead_Wagons'
p916
I12
sS'line_cross'
p917
I13
sS'level'
p918
I8
sS'money'
p919
I10030
sS'switches'
p920
I2
sS'Civ_Escape'
p921
I5
sS'Escaped_Wagons'
p922
I0
ssS'map'
p923
NsS'state_list'
p924
((lp925
S'turn_change'
p926
a(ltp927
sS'prefabs'
p928
(lp929
sS'phase_info'
p930
(I0
I1
tp931
sg739
I0
sS'game_constants'
p932
(lp933
S'Convoy'
p934
as.