(dp1
S'talk_options'
p2
(lp3
sS'allunits'
p4
(lp5
(dp6
S'ai'
p7
S'None'
p8
sS'growths'
p9
(lp10
I105
aI55
aI35
aI75
aI80
aI80
aI40
aI40
asS'dead'
p11
I00
sS'items'
p12
(lp13
(dp14
S'c_uses'
p15
NsS'locked'
p16
I00
sS'droppable'
p17
I00
sS'uses'
p18
I6
sS'event_combat'
p19
I00
sS'owner'
p20
S'Ophie'
p21
sS'id'
p22
S'Mithril Knife'
p23
sa(dp24
g15
Nsg16
I00
sg17
I00
sg18
I15
sg19
I00
sg20
g21
sg22
S'Magebane Sword'
p25
sa(dp26
g15
Nsg16
I00
sg17
I00
sg18
I28
sg19
I00
sg20
g21
sg22
S'Brave Sword'
p27
sa(dp28
g15
Nsg16
I00
sg17
I00
sg18
I2
sg19
I00
sg20
g21
sg22
S'Potion'
p29
sa(dp30
g15
Nsg16
I00
sg17
I00
sg18
I10
sg19
I00
sg20
g21
sg22
S'Mithril Knife'
p31
sasS'growth_points'
p32
(lp33
I25
aI75
aI75
aI75
aI50
aI50
aI50
aI50
asS'currenthp'
p34
ccopy_reg
_reconstructor
p35
(cCode.UnitObject
Stat
p36
c__builtin__
object
p37
NtRp38
(dp39
S'bonuses'
p40
I0
sS'base_stat'
p41
I33
sbsS'stats'
p42
(lp43
(I33
I0
tp44
a(I13
I2
tp45
a(I7
I0
tp46
a(I16
I0
tp47
a(I19
I0
tp48
a(I14
I0
tp49
a(I9
I0
tp50
a(I8
I0
tp51
a(I7
I0
tp52
a(I6
I0
tp53
asS'event_id'
p54
S'Ophie'
p55
sS'faction'
p56
S'Resistance'
p57
sS'desc'
p58
S'A strong-hearted renegade who often acts before he thinks.'
p59
sS'tags'
p60
(lp61
S'Lord'
p62
asS'status_effects'
p63
(lp64
(dp65
S'count'
p66
NsS'time_left'
p67
NsS'upkeep_sc_count'
p68
NsS'children'
p69
(lp70
sS'parent_id'
p71
NsS'charge'
p72
NsS'rhythm_sc_count'
p73
Nsg22
S'Riposte'
p74
sa(dp75
g66
Nsg67
Nsg68
Nsg69
(lp76
sg71
Nsg72
Nsg73
Nsg22
S'Vantage'
p77
sa(dp78
g66
Nsg67
Nsg68
Nsg69
(lp79
sg71
Nsg72
Nsg73
Nsg22
S'fStrength +2'
p80
sa(dp81
g66
Nsg67
Nsg68
Nsg69
(lp82
sg71
Nsg72
I0
sg73
Nsg22
S'Critical'
p83
sa(dp84
g66
Nsg67
Nsg68
Nsg69
(lp85
sg71
Nsg72
Nsg73
Nsg22
S'Shimmer'
p86
sasS'records'
p87
(dp88
S'damage'
p89
I0
sS'kills'
p90
I0
sS'healing'
p91
I0
ssS'finished'
p92
I00
sS'u_id'
p93
g21
sS'wexp'
p94
(lp95
I94
aI0
aI0
aI0
aI0
aI0
aI0
asS'name'
p96
S'Ophie'
p97
sS'movement_group'
p98
I0
sS'level'
p99
I17
sS'gender'
p100
S'M'
sS'TRV'
p101
I0
sS'klass'
p102
S'Swordmaster'
p103
sS'exp'
p104
I21
sS'team'
p105
S'player'
p106
sS'position'
p107
Nsa(dp108
g7
S'None'
p109
sg9
(lp110
I65
aI15
aI65
aI40
aI55
aI80
aI25
aI80
asg11
I00
sg12
(lp111
(dp112
g15
Nsg16
I00
sg17
I00
sg18
I1
sg19
I00
sg20
S'Prim'
p113
sg22
S'Heal'
p114
sa(dp115
g15
Nsg16
I00
sg17
I00
sg18
I6
sg19
I00
sg20
g113
sg22
S'Physic'
p116
sa(dp117
g15
Nsg16
I00
sg17
I00
sg18
I33
sg19
I00
sg20
g113
sg22
S'Glimmer'
p118
sa(dp119
g15
Nsg16
I00
sg17
I00
sg18
I25
sg19
I00
sg20
g113
sg22
S'Nyx'
p120
sa(dp121
g15
Nsg16
I00
sg17
I00
sg18
I5
sg19
I00
sg20
g113
sg22
S'Mend'
p122
sasg32
(lp123
I65
aI15
aI65
aI90
aI55
aI30
aI25
aI30
asg34
g35
(g36
g37
NtRp124
(dp125
g40
I0
sg41
I21
sbsg42
(lp126
(I21
I0
tp127
a(I2
I0
tp128
a(I11
I0
tp129
a(I9
I0
tp130
a(I12
I0
tp131
a(I13
I0
tp132
a(I7
I0
tp133
a(I15
I0
tp134
a(I4
I0
tp135
a(I6
I0
tp136
asg54
S'Prim'
p137
sg56
S'Resistance'
p138
sg58
S'A shy but kind-hearted young woman. Has an affinity with the spiritual.'
p139
sg60
(lp140
sg63
(lp141
(dp142
g66
Nsg67
Nsg68
Nsg69
(lp143
sg71
Nsg72
Nsg73
Nsg22
S'Healtouch'
p144
sa(dp145
g66
I1
sg67
Nsg68
Nsg69
(lp146
sg71
Nsg72
Nsg73
Nsg22
S'Miracle'
p147
sa(dp148
g66
Nsg67
Nsg68
Nsg69
(lp149
sg71
Nsg72
Nsg73
Nsg22
S'Futuresight'
p150
sasg87
(dp151
g89
I0
sg90
I0
sg91
I0
ssg92
I00
sg93
g113
sg94
(lp152
I0
aI0
aI0
aI0
aI90
aI0
aI16
asg96
S'Prim'
p153
sg98
I5
sg99
I13
sg100
S'F'
sg101
I0
sg102
S'Oracle'
p154
sg104
I88
sg105
S'player'
p155
sg107
Nsa(dp156
g7
S'None'
p157
sg9
(lp158
I105
aI80
aI5
aI60
aI55
aI45
aI35
aI20
asg11
I00
sg12
(lp159
(dp160
g15
Nsg16
I00
sg17
I00
sg18
I14
sg19
I00
sg20
S'Joel'
p161
sg22
S'Mithril Axe'
p162
sa(dp163
g15
Nsg16
I00
sg17
I00
sg18
I23
sg19
I00
sg20
g161
sg22
S'Great Axe'
p164
sasg32
(lp165
I0
aI50
aI0
aI50
aI0
aI0
aI0
aI50
asg34
g35
(g36
g37
NtRp166
(dp167
g40
I0
sg41
I35
sbsg42
(lp168
(I35
I0
tp169
a(I14
I0
tp170
a(I1
I0
tp171
a(I11
I0
tp172
a(I10
I0
tp173
a(I8
I0
tp174
a(I10
I0
tp175
a(I5
I0
tp176
a(I12
I0
tp177
a(I6
I0
tp178
asg54
S'0'
sg56
S'Resistance'
p179
sg58
S'A jovial former sailor. Always ready for a new adventure.'
p180
sg60
(lp181
sg63
(lp182
(dp183
g66
Nsg67
Nsg68
Nsg69
(lp184
sg71
Nsg72
I0
sg73
Nsg22
S'Cleave'
p185
sa(dp186
g66
Nsg67
Nsg68
Nsg69
(lp187
sg71
Nsg72
I0
sg73
Nsg22
S'Shove'
p188
sa(dp189
g66
Nsg67
Nsg68
Nsg69
(lp190
sg71
Nsg72
Nsg73
Nsg22
S'Heavy Hitter'
p191
sasg87
(dp192
g89
I0
sg90
I0
sg91
I0
ssg92
I00
sg93
g161
sg94
(lp193
I0
aI0
aI79
aI23
aI0
aI0
aI0
asg96
S'Joel'
p194
sg98
I4
sg99
I14
sg100
S'M'
sg101
I0
sg102
S'Warrior'
p195
sg104
I28
sg105
S'player'
p196
sg107
Nsa(dp197
g7
S'None'
p198
sg9
(lp199
I80
aI55
aI35
aI80
aI80
aI25
aI20
aI40
asg11
I00
sg12
(lp200
(dp201
g15
Nsg16
I00
sg17
I00
sg18
I8
sg19
I00
sg20
S'Nia'
p202
sg22
S'Yew Bow'
p203
sa(dp204
g15
Nsg16
I00
sg17
I00
sg18
I10
sg19
I00
sg20
g202
sg22
S'Willow Bow'
p205
sa(dp206
g15
Nsg16
I00
sg17
I00
sg18
I12
sg19
I00
sg20
g202
sg22
S'Longbow'
p207
sa(dp208
g15
Nsg16
I00
sg17
I00
sg18
I9
sg19
I00
sg20
g202
sg22
S'Yew Longbow'
p209
sa(dp210
g15
Nsg16
I00
sg17
I00
sg18
I2
sg19
I00
sg20
g202
sg22
S'Elixir'
p211
sasg32
(lp212
I70
aI20
aI40
aI70
aI70
aI0
aI30
aI10
asg34
g35
(g36
g37
NtRp213
(dp214
g40
I5
sg41
I28
sbsg42
(lp215
(I28
I5
tp216
a(I15
I0
tp217
a(I8
I0
tp218
a(I18
I0
tp219
a(I18
I0
tp220
a(I7
I0
tp221
a(I7
I0
tp222
a(I10
I0
tp223
a(I7
I0
tp224
a(I6
I0
tp225
asg54
S'0'
sg56
S'Resistance'
p226
sg58
S'A quiet archer most at home in the wilderness.'
p227
sg60
(lp228
sg63
(lp229
(dp230
g66
Nsg67
Nsg68
Nsg69
(lp231
sg71
Nsg72
Nsg73
Nsg22
S'Prescience'
p232
sa(dp233
g66
Nsg67
Nsg68
Nsg69
(lp234
sg71
Nsg72
I0
sg73
Nsg22
S'Critical'
p235
sa(dp236
g66
Nsg67
Nsg68
Nsg69
(lp237
sg71
Nsg72
Nsg73
Nsg22
S'Evasion'
p238
sa(dp239
g66
Nsg67
Nsg68
Nsg69
(lp240
sg71
Nsg72
Nsg73
Nsg22
S'fMaximum HP +5'
p241
sasg87
(dp242
g89
I0
sg90
I0
sg91
I0
ssg92
I00
sg93
g202
sg94
(lp243
I0
aI0
aI0
aI98
aI0
aI0
aI0
asg96
S'Nia'
p244
sg98
I0
sg99
I18
sg100
S'F'
sg101
I0
sg102
S'Sniper'
p245
sg104
I16
sg105
S'player'
p246
sg107
Nsa(dp247
g7
S'None'
p248
sg9
(lp249
I60
aI15
aI85
aI40
aI60
aI60
aI20
aI55
asg11
I00
sg12
(lp250
(dp251
g15
Nsg16
I00
sg17
I00
sg18
I26
sg19
I00
sg20
S'Althea'
p252
sg22
S'Wind'
p253
sa(dp254
g15
Nsg16
I00
sg17
I00
sg18
I20
sg19
I00
sg20
g252
sg22
S'Water'
p255
sa(dp256
g15
Nsg16
I00
sg17
I00
sg18
I25
sg19
I00
sg20
g252
sg22
S'Earth'
p257
sa(dp258
g15
Nsg16
I00
sg17
I00
sg18
I3
sg19
I00
sg20
g252
sg22
S'Vulnerary'
p259
sa(dp260
g15
Nsg16
I00
sg17
I00
sg18
I8
sg19
I00
sg20
g252
sg22
S'Wyrmsfire'
p261
sasg32
(lp262
I70
aI30
aI70
aI30
aI70
aI70
aI90
aI10
asg34
g35
(g36
g37
NtRp263
(dp264
g40
I5
sg41
I21
sbsg42
(lp265
(I21
I5
tp266
a(I3
I0
tp267
a(I16
I0
tp268
a(I10
I0
tp269
a(I12
I2
tp270
a(I12
I0
tp271
a(I7
I0
tp272
a(I13
I0
tp273
a(I4
I0
tp274
a(I6
I1
tp275
asg54
S'0'
sg56
S'Resistance'
p276
sg58
S'A forthright but elegant and refined sorceress.'
p277
sg60
(lp278
sg63
(lp279
(dp280
g66
Nsg67
Nsg68
Nsg69
(lp281
sg71
Nsg72
Nsg73
Nsg22
S'Focus'
p282
sa(dp283
g66
Nsg67
Nsg68
Nsg69
(lp284
sg71
Nsg72
Nsg73
Nsg22
S'fMaximum HP +5'
p285
sa(dp286
g66
Nsg67
Nsg68
Nsg69
(lp287
sg71
Nsg72
Nsg73
Nsg22
S'Conductance'
p288
sa(dp289
g66
Nsg67
Nsg68
Nsg69
(lp290
sg71
Nsg72
Nsg73
Nsg22
S'fMovement +1'
p291
sa(dp292
g66
Nsg67
Nsg68
Nsg69
(lp293
sg71
Nsg72
Nsg73
Nsg22
S'Speed +2'
p294
sasg87
(dp295
g89
I0
sg90
I0
sg91
I0
ssg92
I00
sg93
g252
sg94
(lp296
I0
aI0
aI0
aI0
aI0
aI82
aI0
asg96
S'Althea'
p297
sg98
I5
sg99
I15
sg100
S'F'
sg101
I0
sg102
S'Sage'
p298
sg104
I85
sg105
S'player'
p299
sg107
Nsa(dp300
g7
S'None'
p301
sg9
(lp302
I95
aI65
aI5
aI60
aI60
aI40
aI55
aI40
asg11
I01
sg12
(lp303
(dp304
g15
Nsg16
I00
sg17
I00
sg18
I25
sg19
I00
sg20
S'Drake'
p305
sg22
S'Great Lance'
p306
sa(dp307
g15
Nsg16
I00
sg17
I00
sg18
I3
sg19
I00
sg20
g305
sg22
S'Vulnerary'
p308
sasg32
(lp309
I5
aI35
aI95
aI90
aI90
aI10
aI45
aI10
asg34
g35
(g36
g37
NtRp310
(dp311
g40
I0
sg41
I28
sbsg42
(lp312
(I28
I0
tp313
a(I13
I0
tp314
a(I1
I0
tp315
a(I12
I0
tp316
a(I11
I0
tp317
a(I11
I0
tp318
a(I12
I0
tp319
a(I8
I0
tp320
a(I9
I0
tp321
a(I8
I1
tp322
asg54
S'0'
sg56
S'Resistance'
p323
sg58
S"A disgraced Imperial knight now in Althea's service."
p324
sg60
(lp325
sg63
(lp326
(dp327
g66
Nsg67
Nsg68
Nsg69
(lp328
sg71
Nsg72
Nsg73
Nsg22
S'Canto'
p329
sa(dp330
g66
Nsg67
Nsg68
Nsg69
(lp331
sg71
Nsg72
Nsg73
Nsg22
S'Savior'
p332
sa(dp333
g66
Nsg67
Nsg68
Nsg69
(lp334
sg71
Nsg72
Nsg73
Nsg22
S'Charisma'
p335
sa(dp336
g66
Nsg67
Nsg68
Nsg69
(lp337
sg71
Nsg72
Nsg73
Nsg22
g291
sasg87
(dp338
g89
I0
sg90
I0
sg91
I0
ssg92
I00
sg93
g305
sg94
(lp339
I41
aI55
aI0
aI0
aI0
aI0
aI0
asg96
S'Drake'
p340
sg98
I2
sg99
I15
sg100
S'M'
sg101
I0
sg102
S'Paladin'
p341
sg104
I10
sg105
S'player'
p342
sg107
Nsa(dp343
g7
S'None'
p344
sg9
(lp345
I95
aI40
aI60
aI55
aI95
aI65
aI35
aI55
asg11
I00
sg12
(lp346
(dp347
g15
Nsg16
I00
sg17
I00
sg18
I25
sg19
I00
sg20
S'Renae'
p348
sg22
S'Levin Sword'
p349
sa(dp350
g15
Nsg16
I00
sg17
I00
sg18
I12
sg19
I00
sg20
g348
sg22
S'Oak Bow'
p351
sa(dp352
g15
Nsg16
I00
sg17
I00
sg18
I22
sg19
I00
sg20
g348
sg22
S'Steel Sword'
p353
sa(dp354
g15
Nsg16
I00
sg17
I00
sg18
I20
sg19
I00
sg20
g348
sg22
S'Great Sword'
p355
sa(dp356
g15
Nsg16
I00
sg17
I00
sg18
I1
sg19
I00
sg20
g348
sg22
S'Vulnerary'
p357
sasg32
(lp358
I0
aI50
aI50
aI0
aI0
aI0
aI0
aI0
asg34
g35
(g36
g37
NtRp359
(dp360
g40
I0
sg41
I26
sbsg42
(lp361
(I26
I0
tp362
a(I9
I0
tp363
a(I10
I0
tp364
a(I14
I0
tp365
a(I20
I0
tp366
a(I10
I0
tp367
a(I8
I0
tp368
a(I11
I0
tp369
a(I5
I0
tp370
a(I7
I0
tp371
asg54
S'0'
sg56
S'Kerala'
p372
sg58
S'An energetic thief with a kleptomanic streak.'
p373
sg60
(lp374
sg63
(lp375
(dp376
g66
Nsg67
Nsg68
Nsg69
(lp377
sg71
Nsg72
Nsg73
Nsg22
S'Locktouch'
p378
sa(dp379
g66
Nsg67
Nsg68
Nsg69
(lp380
sg71
Nsg72
Nsg73
Nsg22
S'Steal'
p381
sa(dp382
g66
Nsg67
Nsg68
Nsg69
(lp383
sg71
Nsg72
Nsg73
Nsg22
S'Ghost'
p384
sa(dp385
g66
Nsg67
Nsg68
Nsg69
(lp386
sg71
Nsg72
Nsg73
Nsg22
S'Canto'
p387
sasg87
(dp388
g89
I0
sg90
I0
sg91
I0
ssg92
I00
sg93
g348
sg94
(lp389
I64
aI0
aI0
aI18
aI0
aI0
aI0
asg96
S'Renae'
p390
sg98
I0
sg99
I15
sg100
S'F'
sg101
I0
sg102
S'Assassin'
p391
sg104
I65
sg105
S'player'
p392
sg107
Nsa(dp393
g7
S'None'
p394
sg9
(lp395
I120
aI55
aI25
aI40
aI40
aI45
aI75
aI40
asg11
I00
sg12
(lp396
(dp397
g15
Nsg16
I00
sg17
I00
sg18
I7
sg19
I00
sg20
S'Theo'
p398
sg22
S'Axereaver'
p399
sa(dp400
g15
Nsg16
I00
sg17
I00
sg18
I20
sg19
I00
sg20
g398
sg22
S'Javelin'
p401
sa(dp402
g15
Nsg16
I00
sg17
I00
sg18
I43
sg19
I00
sg20
g398
sg22
S'Iron Lance'
p403
sa(dp404
g15
Nsg16
I00
sg17
I00
sg18
I24
sg19
I00
sg20
g398
sg22
S'Great Lance'
p405
sa(dp406
g15
Nsg16
I00
sg17
I00
sg18
I3
sg19
I00
sg20
g398
sg22
S'Vulnerary'
p407
sasg32
(lp408
I30
aI45
aI75
aI10
aI10
aI55
aI25
aI10
asg34
g35
(g36
g37
NtRp409
(dp410
g40
I0
sg41
I33
sbsg42
(lp411
(I33
I0
tp412
a(I16
I0
tp413
a(I2
I0
tp414
a(I13
I0
tp415
a(I10
I0
tp416
a(I7
I0
tp417
a(I17
I0
tp418
a(I9
I0
tp419
a(I11
I0
tp420
a(I5
I0
tp421
asg54
S'0'
sg56
S'Resistance'
p422
sg58
S'An avid scholar. Interested in esoteric philosophy.'
p423
sg60
(lp424
sg63
(lp425
(dp426
g66
Nsg67
Nsg68
Nsg69
(lp427
sg71
Nsg72
Nsg73
Nsg22
S'Provoke'
p428
sa(dp429
g66
Nsg67
Nsg68
Nsg69
(lp430
sg71
Nsg72
I0
sg73
Nsg22
S'Shove'
p431
sa(dp432
g66
Nsg67
Nsg68
Nsg69
(lp433
sg71
Nsg72
Nsg73
Nsg22
S'tile_Regeneration'
p434
sa(dp435
g66
Nsg67
Nsg68
Nsg69
(lp436
sg71
Nsg72
Nsg73
Nsg22
S'Slow'
p437
sasg87
(dp438
g89
I0
sg90
I0
sg91
I0
ssg92
I00
sg93
g398
sg94
(lp439
I16
aI70
aI0
aI0
aI0
aI0
aI0
asg96
S'Theo'
p440
sg98
I1
sg99
I14
sg100
S'M'
sg101
I0
sg102
S'General'
p441
sg104
I52
sg105
S'player'
p442
sg107
Nsa(dp443
g7
S'None'
p444
sg9
(lp445
I75
aI65
aI65
aI80
aI65
aI35
aI65
aI35
asg11
I00
sg12
(lp446
(dp447
g15
Nsg16
I00
sg17
I00
sg18
I42
sg19
I00
sg20
S'Eliza'
p448
sg22
S'Iron Axe'
p449
sa(dp450
g15
Nsg16
I00
sg17
I00
sg18
I16
sg19
I00
sg20
g448
sg22
S'Great Lance'
p451
sa(dp452
g15
Nsg16
I00
sg17
I00
sg18
I24
sg19
I00
sg20
g448
sg22
S'Steel Lance'
p453
sa(dp454
g15
Nsg16
I00
sg17
I00
sg18
I19
sg19
I00
sg20
g448
sg22
S'Steel Axe'
p455
sa(dp456
g15
Nsg16
I00
sg17
I00
sg18
I3
sg19
I00
sg20
g448
sg22
S'Vulnerary'
p457
sasg32
(lp458
I25
aI95
aI95
aI90
aI95
aI5
aI95
aI5
asg34
g35
(g36
g37
NtRp459
(dp460
g40
I5
sg41
I27
sbsg42
(lp461
(I27
I5
tp462
a(I13
I0
tp463
a(I9
I0
tp464
a(I16
I0
tp465
a(I15
I2
tp466
a(I8
I0
tp467
a(I13
I0
tp468
a(I8
I0
tp469
a(I10
I0
tp470
a(I6
I1
tp471
asg54
S'0'
sg56
S'Resistance'
p472
sg58
S'A moody, sarcastic soldier.'
p473
sg60
(lp474
sg63
(lp475
(dp476
g66
Nsg67
Nsg68
Nsg69
(lp477
sg71
Nsg72
Nsg73
Nsg22
S'Synergy'
p478
sa(dp479
g66
Nsg67
Nsg68
Nsg69
(lp480
sg71
Nsg72
Nsg73
Nsg22
S'fMaximum HP +5'
p481
sa(dp482
g66
Nsg67
Nsg68
Nsg69
(lp483
sg71
Nsg72
Nsg73
Nsg22
S'fSpeed +2'
p484
sa(dp485
g66
Nsg67
Nsg68
Nsg69
(lp486
sg71
Nsg72
Nsg73
Nsg22
g291
sasg87
(dp487
g89
I0
sg90
I0
sg91
I0
ssg92
I00
sg93
g448
sg94
(lp488
I0
aI58
aI28
aI0
aI0
aI0
aI0
asg96
S'Eliza'
p489
sg98
I1
sg99
I15
sg100
S'F'
sg101
I0
sg102
S'Halberdier'
p490
sg104
I97
sg105
S'player'
p491
sg107
Nsa(dp492
g7
S'None'
p493
sg9
(lp494
I65
aI15
aI35
aI45
aI55
aI55
aI40
aI65
asg11
I00
sg12
(lp495
(dp496
g15
Nsg16
I00
sg17
I00
sg18
I12
sg19
I00
sg20
S'Sam'
p497
sg22
S'Mend'
p498
sa(dp499
g15
Nsg16
I00
sg17
I00
sg18
I27
sg19
I00
sg20
g497
sg22
S'Heal'
p500
sa(dp501
g15
Nsg16
I00
sg17
I00
sg18
I17
sg19
I00
sg20
g497
sg22
S'Glimmer'
p502
sa(dp503
g15
Nsg16
I00
sg17
I00
sg18
I22
sg19
I00
sg20
g497
sg22
S'Shine'
p504
sa(dp505
g15
Nsg16
I00
sg17
I00
sg18
Nsg19
I00
sg20
g497
sg22
S"Prim's Charm"
p506
sasg32
(lp507
I5
aI55
aI95
aI65
aI35
aI35
aI30
aI5
asg34
g35
(g36
g37
NtRp508
(dp509
g40
I0
sg41
I26
sbsg42
(lp510
(I26
I0
tp511
a(I4
I0
tp512
a(I11
I0
tp513
a(I12
I0
tp514
a(I13
I0
tp515
a(I11
I0
tp516
a(I8
I0
tp517
a(I14
I0
tp518
a(I7
I0
tp519
a(I6
I1
tp520
asg54
S'Sam'
p521
sg56
S'Resistance'
p522
sg58
S"The resistance's leader. Ambitious and inquisitive."
p523
sg60
(lp524
sg63
(lp525
(dp526
g66
Nsg67
Nsg68
Nsg69
(lp527
sg71
Nsg72
Nsg73
Nsg22
S'Inspiration'
p528
sa(dp529
g66
Nsg67
Nsg68
Nsg69
(lp530
sg71
Nsg72
Nsg73
Nsg22
S'Skill_Aura'
p531
sa(dp532
g66
Nsg67
Nsg68
Nsg69
(lp533
sg71
Nsg72
I0
sg73
Nsg22
S'Rally'
p534
sa(dp535
g66
Nsg67
Nsg68
Nsg69
(lp536
sg71
Nsg72
Nsg73
Nsg22
S'Underdog'
p537
sa(dp538
g66
Nsg67
Nsg68
Nsg69
(lp539
sg71
Nsg72
Nsg73
Nsg22
g291
sasg87
(dp540
g89
I0
sg90
I0
sg91
I0
ssg92
I00
sg93
g497
sg94
(lp541
I0
aI0
aI0
aI0
aI99
aI0
aI0
asg96
S'Sam'
p542
sg98
I5
sg99
I15
sg100
S'M'
sg101
I0
sg102
S'Strategist'
p543
sg104
I0
sg105
S'player'
p544
sg107
Nsa(dp545
g7
S'None'
p546
sg9
(lp547
I55
aI5
aI65
aI55
aI45
aI35
aI40
aI55
asg11
I00
sg12
(lp548
(dp549
g15
Nsg16
I00
sg17
I00
sg18
I5
sg19
I00
sg20
S'Kayla'
p550
sg22
S'Scathe'
p551
sa(dp552
g15
Nsg16
I00
sg17
I00
sg18
I19
sg19
I00
sg20
g550
sg22
S'Flux'
p553
sa(dp554
g15
Nsg16
I00
sg17
I00
sg18
I14
sg19
I00
sg20
g550
sg22
S'Nyx'
p555
sa(dp556
g15
Nsg16
I00
sg17
I00
sg18
I3
sg19
I00
sg20
g550
sg22
S'Vulnerary'
p557
sa(dp558
g15
Nsg16
I00
sg17
I00
sg18
I28
sg19
I00
sg20
g550
sg22
S'Brave Axe'
p559
sasg32
(lp560
I80
aI80
aI40
aI80
aI20
aI60
aI90
aI80
asg34
g35
(g36
g37
NtRp561
(dp562
g40
I0
sg41
I26
sbsg42
(lp563
(I26
I0
tp564
a(I1
I0
tp565
a(I13
I0
tp566
a(I13
I0
tp567
a(I13
I0
tp568
a(I8
I0
tp569
a(I9
I0
tp570
a(I12
I0
tp571
a(I7
I0
tp572
a(I5
I1
tp573
asg54
S'Kayla'
p574
sg56
S'Resistance'
p575
sg58
S'A scheming diplomat from the Confederacy.'
p576
sg60
(lp577
sg63
(lp578
(dp579
g66
Nsg67
Nsg68
Nsg69
(lp580
sg71
Nsg72
Nsg73
Nsg22
S'Hex'
p581
sa(dp582
g66
Nsg67
Nsg68
Nsg69
(lp583
sg71
Nsg72
Nsg73
Nsg22
S'Empowered'
p584
sa(dp585
g66
Nsg67
Nsg68
Nsg69
(lp586
sg71
Nsg72
I0
sg73
Nsg22
S'Gate'
p587
sa(dp588
g66
Nsg67
Nsg68
Nsg69
(lp589
sg71
Nsg72
Nsg73
Nsg22
g291
sasg87
(dp590
g89
I0
sg90
I0
sg91
I0
ssg92
I00
sg93
g550
sg94
(lp591
I0
aI0
aI0
aI0
aI0
aI0
aI89
asg96
S'Kayla'
p592
sg98
I5
sg99
I15
sg100
S'F'
sg101
I0
sg102
S'Warlock'
p593
sg104
I22
sg105
S'player'
p594
sg107
Nsa(dp595
g7
S'Pursue'
p596
sg9
(lp597
I120
aI65
aI5
aI55
aI40
aI20
aI35
aI20
asg11
I00
sg12
(lp598
(dp599
g15
Nsg16
I00
sg17
I00
sg18
I28
sg19
I00
sg20
S'Coyote'
p600
sg22
S'Steel Sword'
p601
sa(dp602
g15
Nsg16
I00
sg17
I00
sg18
I33
sg19
I00
sg20
g600
sg22
S'Hatchet'
p603
sa(dp604
g15
Nsg16
I00
sg17
I00
sg18
I8
sg19
I00
sg20
g600
sg22
S'Mithril Sword'
p605
sa(dp606
g15
Nsg16
I00
sg17
I00
sg18
I1
sg19
I00
sg20
g600
sg22
S'Elixir'
p607
sasg32
(lp608
I50
aI75
aI75
aI25
aI50
aI50
aI25
aI50
asg34
g35
(g36
g37
NtRp609
(dp610
g40
I0
sg41
I35
sbsg42
(lp611
(I35
I0
tp612
a(I12
I0
tp613
a(I0
I0
tp614
a(I16
I0
tp615
a(I13
I0
tp616
a(I5
I0
tp617
a(I10
I0
tp618
a(I5
I0
tp619
a(I9
I0
tp620
a(I6
I1
tp621
asg54
S'0'
sg56
S'Resistance'
p622
sg58
S'A troubled wandererer with a mysterious past.'
p623
sg60
(lp624
sg63
(lp625
(dp626
g66
Nsg67
Nsg68
Nsg69
(lp627
sg71
Nsg72
Nsg73
Nsg22
S'Initiative'
p628
sa(dp629
g66
Nsg67
Nsg68
Nsg69
(lp630
sg71
Nsg72
Nsg73
Nsg22
S'Resist Status'
p631
sa(dp632
g66
Nsg67
Nsg68
Nsg69
(lp633
sg71
Nsg72
Nsg73
Nsg22
S'Poise'
p634
sa(dp635
g66
Nsg67
Nsg68
Nsg69
(lp636
sg71
Nsg72
Nsg73
Nsg22
g291
sasg87
(dp637
g89
I0
sg90
I0
sg91
I0
ssg92
I00
sg93
g600
sg94
(lp638
I79
aI0
aI23
aI0
aI0
aI0
aI0
asg96
S'Coyote'
p639
sg98
I4
sg99
I15
sg100
S'M'
sg101
I0
sg102
S'Vanguard'
p640
sg104
I50
sg105
S'player'
p641
sg107
NsasS'convoy'
p642
(lp643
(dp644
g15
Nsg16
I00
sg17
I00
sg18
I3
sg19
I00
sg20
I0
sg22
S'Spiritbane'
p645
sa(dp646
g15
Nsg16
I00
sg17
I00
sg18
I1
sg19
I00
sg20
I0
sg22
S'Secret Book'
p647
sa(dp648
g15
Nsg16
I00
sg17
I00
sg18
I1
sg19
I00
sg20
I0
sg22
S'Angelic Robe'
p649
sa(dp650
g15
Nsg16
I00
sg17
I00
sg18
I1
sg19
I00
sg20
I0
sg22
S'Mana Ring'
p651
sa(dp652
g15
Nsg16
I00
sg17
I00
sg18
I1
sg19
I00
sg20
I0
sg22
S'Talisman'
p653
sa(dp654
g15
Nsg16
I00
sg17
I00
sg18
I10
sg19
I00
sg20
I0
sg22
S'Windwall'
p655
sa(dp656
g15
Nsg16
I00
sg17
I00
sg18
I1
sg19
I00
sg20
I0
sg22
S'Energy Ring'
p657
sa(dp658
g15
Nsg16
I00
sg17
I00
sg18
I1
sg19
I00
sg20
I0
sg22
S'Speedwings'
p659
sa(dp660
g15
Nsg16
I00
sg17
I00
sg18
I10
sg19
I00
sg20
I0
sg22
S'Fly'
p661
sa(dp662
g15
Nsg16
I00
sg17
I00
sg18
I2
sg19
I00
sg20
I0
sg22
S'Spiritbane'
p663
sa(dp664
g15
Nsg16
I00
sg17
I00
sg18
I3
sg19
I00
sg20
I0
sg22
S'Barkskin'
p665
sa(dp666
g15
Nsg16
I00
sg17
I00
sg18
I1
sg19
I00
sg20
I0
sg22
S'Energy Ring'
p667
sa(dp668
g15
Nsg16
I00
sg17
I00
sg18
I4
sg19
I00
sg20
I0
sg22
S'Blizzard'
p669
sa(dp670
g15
Nsg16
I00
sg17
I00
sg18
I15
sg19
I00
sg20
I0
sg22
S'Slim Lance'
p671
sa(dp672
g15
Nsg16
I00
sg17
I00
sg18
I1
sg19
I00
sg20
I0
sg22
S'Secret Book'
p673
sa(dp674
g15
Nsg16
I00
sg17
I00
sg18
I9
sg19
I00
sg20
I0
sg22
S'Rusted Sword'
p675
sa(dp676
g15
Nsg16
I00
sg17
I00
sg18
I19
sg19
I00
sg20
I0
sg22
S'Hatchet'
p677
sa(dp678
g15
Nsg16
I00
sg17
I00
sg18
I14
sg19
I00
sg20
I0
sg22
S'Hand Axe'
p679
sa(dp680
g15
Nsg16
I00
sg17
I00
sg18
I1
sg19
I00
sg20
I0
sg22
S'Talisman'
p681
sa(dp682
g15
Nsg16
I00
sg17
I00
sg18
I1
sg19
I00
sg20
I0
sg22
S'Mithril Mail'
p683
sa(dp684
g15
Nsg16
I00
sg17
I00
sg18
I10
sg19
I00
sg20
I0
sg22
S'Long Spear'
p685
sa(dp686
g15
Nsg16
I00
sg17
I00
sg18
I1
sg19
I00
sg20
I0
sg22
S'Mana Ring'
p687
sa(dp688
g15
Nsg16
I00
sg17
I00
sg18
I19
sg19
I00
sg20
I0
sg22
S'Iron Axe'
p689
sa(dp690
g15
Nsg16
I00
sg17
I00
sg18
I15
sg19
I00
sg20
I0
sg22
S'Javelin'
p691
sa(dp692
g15
Nsg16
I00
sg17
I00
sg18
I35
sg19
I00
sg20
I0
sg22
S'Iron Lance'
p693
sa(dp694
g15
Nsg16
I00
sg17
I00
sg18
I7
sg19
I00
sg20
I0
sg22
S'Swordreaver'
p695
sa(dp696
g15
Nsg16
I00
sg17
I00
sg18
I1
sg19
I00
sg20
I0
sg22
S'Angelic Robe'
p697
sa(dp698
g15
Nsg16
I00
sg17
I00
sg18
I11
sg19
I00
sg20
I0
sg22
S'Iron Sword'
p699
sa(dp700
g15
Nsg16
I00
sg17
I00
sg18
I1
sg19
I00
sg20
I0
sg22
S'Wind'
p701
sa(dp702
g15
Nsg16
I00
sg17
I00
sg18
I14
sg19
I00
sg20
I0
sg22
S'Fire'
p703
sa(dp704
g15
Nsg16
I00
sg17
I00
sg18
I1
sg19
I00
sg20
I0
sg22
S'Speedwings'
p705
sa(dp706
g15
Nsg16
I00
sg17
I00
sg18
I14
sg19
I00
sg20
I0
sg22
S'Aether'
p707
sa(dp708
g15
Nsg16
I00
sg17
I00
sg18
I3
sg19
I00
sg20
I0
sg22
S'Silence'
p709
sa(dp710
g15
Nsg16
I00
sg17
I00
sg18
I3
sg19
I00
sg20
I0
sg22
S'Vulnerary'
p711
sa(dp712
g15
Nsg16
I00
sg17
I00
sg18
I10
sg19
I00
sg20
I0
sg22
S'Superior Lance'
p713
sa(dp714
g15
Nsg16
I00
sg17
I00
sg18
I2
sg19
I00
sg20
I0
sg22
S'Iron Knife'
p715
sa(dp716
g15
Nsg16
I00
sg17
I00
sg18
I1
sg19
I00
sg20
I0
sg22
S'Meteor'
p717
sa(dp718
g15
Nsg16
I00
sg17
I00
sg18
I9
sg19
I00
sg20
I0
sg22
S'Mithril Lance'
p719
sa(dp720
g15
Nsg16
I00
sg17
I00
sg18
I44
sg19
I00
sg20
I0
sg22
S'Iron Sword'
p721
sasS'groups'
p722
(dp723
sS'allreinforcements'
p724
(dp725
sS'base_conversations'
p726
(dp727
sS'playtime'
p728
I52935462
sS'message'
p729
(lp730
sS'unlocked_lore'
p731
(lp732
S'Sam'
p733
aS'Joel'
p734
aS'Prim'
p735
aS'Ophie'
p736
aS'Althea'
p737
aS'Drake'
p738
aS'Nia'
p739
aS'Renae'
p740
aS'Theo'
p741
aS'Kerala'
p742
aS'Empire'
p743
aS'Eliza'
p744
aS'Podoma'
p745
aS'Rajas'
p746
aS'Ulver'
p747
aS'Vagnius'
p748
aS'CFS'
p749
aS'Kayla'
p750
aS'CFS'
p751
aS'Kayla'
p752
aS'Tyrana'
p753
aS'Coyote'
p754
asS'statistics'
p755
(lp756
g35
(cCode.CustomObjects
LevelStatistic
p757
g37
NtRp758
(dp759
S'turncount'
p760
I4
sg42
(dp761
g97
(dp762
S'damage'
p763
I13
sS'kills'
p764
I2
sS'healing'
p765
I0
ssg153
(dp766
g763
I8
sg764
I0
sg765
I7
sssg96
S'Prologue'
p767
sbag35
(g757
g37
NtRp768
(dp769
g760
I4
sg42
(dp770
g97
(dp771
g763
I39
sg764
I4
sg765
I0
ssg194
(dp772
g763
I48
sg764
I1
sg765
I0
ssg244
(dp773
g763
I30
sg764
I2
sg765
I0
ssg153
(dp774
g763
I8
sg764
I2
sg765
I12
sssg96
S'Chapter I'
p775
sbag35
(g757
g37
NtRp776
(dp777
g760
I9
sg42
(dp778
g297
(dp779
S'damage'
p780
I67
sS'kills'
p781
I3
sS'healing'
p782
I0
ssg153
(dp783
S'damage'
p784
I4
sS'kills'
p785
I0
sS'healing'
p786
I43
ssg194
(dp787
g784
I52
sg785
I4
sg786
I0
ssg244
(dp788
g784
I14
sg785
I2
sg786
I0
ssg340
(dp789
g780
I44
sg781
I3
sg782
I0
ssg97
(dp790
g784
I21
sg785
I3
sg786
I0
sssg96
S'Chapter II'
p791
sbag35
(g757
g37
NtRp792
(dp793
g760
I15
sg42
(dp794
g440
(dp795
S'damage'
p796
I81
sS'kills'
p797
I1
sS'healing'
p798
I0
ssg297
(dp799
S'damage'
p800
I45
sS'kills'
p801
I5
sS'healing'
p802
I0
ssg153
(dp803
g800
I16
sg801
I0
sg802
I61
ssg194
(dp804
g800
I64
sg801
I3
sg802
I0
ssg244
(dp805
g800
I58
sg801
I3
sg802
I0
ssg390
(dp806
g796
I8
sg797
I3
sg798
I0
ssg340
(dp807
g800
I35
sg801
I2
sg802
I0
ssg97
(dp808
g800
I70
sg801
I6
sg802
I0
sssg96
S'Chapter III'
p809
sbag35
(g757
g37
NtRp810
(dp811
g760
I9
sg42
(dp812
g440
(dp813
S'damage'
p814
I61
sS'kills'
p815
I4
sS'healing'
p816
I0
ssg297
(dp817
g814
I125
sg815
I8
sg816
I0
ssg153
(dp818
g814
I5
sg815
I0
sg816
I44
ssg194
(dp819
g814
I47
sg815
I2
sg816
I0
ssg244
(dp820
g814
I51
sg815
I2
sg816
I0
ssg390
(dp821
g814
I54
sg815
I5
sg816
I0
ssg340
(dp822
g814
I58
sg815
I2
sg816
I0
ssg97
(dp823
g814
I47
sg815
I5
sg816
I0
ssg489
(dp824
S'damage'
p825
I52
sS'kills'
p826
I7
sS'healing'
p827
I0
sssg96
S'Chapter IV'
p828
sbag35
(g757
g37
NtRp829
(dp830
g760
I14
sg42
(dp831
g440
(dp832
S'damage'
p833
I49
sS'kills'
p834
I2
sS'healing'
p835
I0
ssg297
(dp836
g833
I43
sg834
I4
sg835
I0
ssg153
(dp837
g833
I11
sg834
I1
sg835
I63
ssg542
(dp838
S'damage'
p839
I18
sS'kills'
p840
I0
sS'healing'
p841
I23
ssg194
(dp842
g833
I27
sg834
I1
sg835
I0
ssg244
(dp843
g833
I30
sg834
I3
sg835
I0
ssg390
(dp844
g833
I52
sg834
I3
sg835
I0
ssg340
(dp845
g833
I68
sg834
I2
sg835
I0
ssg592
(dp846
g839
I82
sg840
I6
sg841
I0
ssg97
(dp847
g833
I117
sg834
I8
sg835
I0
ssg489
(dp848
g833
I17
sg834
I2
sg835
I0
sssg96
S'Chapter V'
p849
sbag35
(g757
g37
NtRp850
(dp851
g760
I20
sg42
(dp852
g440
(dp853
S'damage'
p854
I117
sS'kills'
p855
I4
sS'healing'
p856
I0
ssg297
(dp857
g854
I131
sg855
I7
sg856
I0
ssg153
(dp858
g854
I22
sg855
I1
sg856
I126
ssg542
(dp859
g854
I59
sg855
I6
sg856
I72
ssg194
(dp860
g854
I130
sg855
I4
sg856
I0
ssg244
(dp861
g854
I194
sg855
I9
sg856
I0
ssg390
(dp862
g854
I61
sg855
I3
sg856
I0
ssg340
(dp863
g854
I96
sg855
I4
sg856
I0
ssg592
(dp864
g854
I105
sg855
I4
sg856
I0
ssg639
(dp865
S'damage'
p866
I82
sS'kills'
p867
I6
sS'healing'
p868
I0
ssg97
(dp869
g854
I48
sg855
I4
sg856
I0
ssg489
(dp870
g854
I74
sg855
I9
sg856
I0
sssg96
S'Chapter VI'
p871
sbag35
(g757
g37
NtRp872
(dp873
g760
I16
sg42
(dp874
g440
(dp875
S'damage'
p876
I59
sS'kills'
p877
I2
sS'healing'
p878
I0
ssS'Phantom'
p879
(dp880
S'damage'
p881
I0
sS'kills'
p882
I0
sS'healing'
p883
I0
ssg297
(dp884
g876
I150
sg877
I5
sg878
I0
ssg153
(dp885
g876
I19
sg877
I2
sg878
I113
ssg542
(dp886
g876
I28
sg877
I2
sg878
I66
ssg194
(dp887
g876
I185
sg877
I6
sg878
I0
ssg244
(dp888
g876
I194
sg877
I12
sg878
I0
ssg390
(dp889
g876
I17
sg877
I4
sg878
I0
ssg340
(dp890
g876
I49
sg877
I1
sg878
I0
ssg592
(dp891
g876
I127
sg877
I2
sg878
I0
ssg639
(dp892
g876
I70
sg877
I5
sg878
I0
ssg97
(dp893
g876
I296
sg877
I16
sg878
I0
ssg489
(dp894
g876
I95
sg877
I4
sg878
I0
sssg96
S'Chapter VII'
p895
sbag35
(g757
g37
NtRp896
(dp897
g760
I16
sg42
(dp898
g440
(dp899
g881
I128
sg882
I7
sg883
I0
ssg297
(dp900
g881
I228
sg882
I3
sg883
I0
ssg153
(dp901
g881
I46
sg882
I4
sg883
I64
ssg542
(dp902
g881
I9
sg882
I0
sg883
I191
ssg194
(dp903
g881
I144
sg882
I7
sg883
I0
ssg244
(dp904
g881
I237
sg882
I7
sg883
I0
ssg390
(dp905
g881
I90
sg882
I6
sg883
I0
ssg340
(dp906
g881
I124
sg882
I6
sg883
I0
ssg592
(dp907
g881
I181
sg882
I6
sg883
I0
ssg639
(dp908
g881
I123
sg882
I7
sg883
I0
ssg97
(dp909
g881
I259
sg882
I10
sg883
I0
ssg489
(dp910
g881
I276
sg882
I12
sg883
I0
sssg96
S'Chapter VIII'
p911
sbag35
(g757
g37
NtRp912
(dp913
g760
I15
sg42
(dp914
g440
(dp915
S'damage'
p916
I47
sS'kills'
p917
I3
sS'healing'
p918
I0
ssg297
(dp919
g916
I68
sg917
I2
sg918
I0
ssg153
(dp920
g916
I8
sg917
I1
sg918
I109
ssg542
(dp921
g916
I4
sg917
I0
sg918
I115
ssg194
(dp922
g916
I21
sg917
I0
sg918
I0
ssg244
(dp923
g916
I151
sg917
I6
sg918
I0
ssg390
(dp924
g916
I88
sg917
I5
sg918
I0
ssg340
(dp925
g916
I74
sg917
I1
sg918
I0
ssg592
(dp926
g916
I48
sg917
I2
sg918
I0
ssg639
(dp927
g916
I90
sg917
I3
sg918
I0
ssg97
(dp928
g916
I158
sg917
I5
sg918
I0
ssg489
(dp929
g916
I65
sg917
I3
sg918
I0
sssg96
S'Chapter IX'
p930
sbasS'market_items'
p931
c__builtin__
set
p932
((lp933
S'Nyx'
p934
aS'Glimmer'
p935
aS'Mithril Lance'
p936
aS'Ruin'
p937
aS'Mithril Axe'
p938
aS'Oak Longbow'
p939
aS'Wyrmsfire'
p940
aS'Great Bow'
p941
aS'Mend'
p942
aS'Spiritbane'
p943
aS'Yew Bow'
p944
aS'Potion'
p945
aS'Fire'
p946
aS'Heal'
p947
aS'Great Lance'
p948
aS'Water'
p949
aS'Hand Axe'
p950
aS'Great Axe'
p951
aS'Physic'
p952
aS'Iron Sword'
p953
aS'Shine'
p954
aS'Short Spear'
p955
aS'Iron Lance'
p956
aS'Hex'
p957
aS'Hatchet'
p958
aS'Vulnerary'
p959
aS'Willow Bow'
p960
aS'Barkskin'
p961
aS'Corona'
p962
aS'Flux'
p963
aS'Slim Lance'
p964
aS'Mithril Sword'
p965
aS'Elixir'
p966
aS'Short Axe'
p967
aS'Wind'
p968
aS'Steel Lance'
p969
aS'Longbow'
p970
aS'Iron Knife'
p971
aS'Scathe'
p972
aS'Oak Bow'
p973
aS'Steel Sword'
p974
aS'Javelin'
p975
aS'Steel Axe'
p976
aS'Earth'
p977
aS'Great Sword'
p978
aS'Steel Knife'
p979
aS'Iron Axe'
p980
atRp981
sS'support'
p982
NsS'event_triggers'
p983
(lp984
sS'objective'
p985
NsS'metaDataObj_changes'
p986
(lp987
sS'counters'
p988
(dp989
S'Dead_Wagons'
p990
I12
sS'line_cross'
p991
I13
sS'level'
p992
I10
sS'money'
p993
I2875
sS'switches'
p994
I2
sS'Civ_Escape'
p995
I5
sS'Escaped_Wagons'
p996
I0
ssS'map'
p997
NsS'state_list'
p998
((lp999
S'turn_change'
p1000
a(ltp1001
sS'prefabs'
p1002
(lp1003
sS'phase_info'
p1004
(I0
I1
tp1005
sg760
I0
sS'game_constants'
p1006
(lp1007
S'Convoy'
p1008
as.