(dp1
S'talk_options'
p2
(lp3
sS'allunits'
p4
(lp5
(dp6
S'ai'
p7
S'Pursue'
p8
sS'growths'
p9
(lp10
I120
aI65
aI5
aI50
aI40
aI20
aI30
aI20
asS'dead'
p11
I00
sS'growth_points'
p12
(lp13
I0
aI0
aI50
aI0
aI0
aI50
aI50
aI50
asS'desc'
p14
S'A troubled wandererer with a mysterious past.'
p15
sS'currenthp'
p16
ccopy_reg
_reconstructor
p17
(cCode.UnitObject
Stat
p18
c__builtin__
object
p19
NtRp20
(dp21
S'bonuses'
p22
I0
sS'base_stat'
p23
I50
sbsS'stats'
p24
(lp25
(I33
I0
tp26
a(I12
I0
tp27
a(I0
I0
tp28
a(I15
I0
tp29
a(I12
I0
tp30
a(I4
I0
tp31
a(I8
I2
tp32
a(I4
I0
tp33
a(I8
I0
tp34
a(I6
I0
tp35
asS'event_id'
p36
S'0'
sS'tags'
p37
(lp38
sS'TRV'
p39
I0
sS'faction'
p40
S'Resistance'
p41
sS'team'
p42
S'player'
p43
sS'status_effects'
p44
(lp45
(dp46
S'count'
p47
NsS'time_left'
p48
NsS'upkeep_sc_count'
p49
NsS'id'
p50
S'Initiative'
p51
sS'charge'
p52
NsS'rhythm_sc_count'
p53
NsS'children'
p54
(lp55
sa(dp56
g47
Nsg48
Nsg49
Nsg50
S'Resist Status'
p57
sg52
Nsg53
Nsg54
(lp58
sa(dp59
g47
Nsg48
Nsg49
Nsg50
S'Poise'
p60
sg52
Nsg53
Nsg54
(lp61
sa(dp62
g47
Nsg48
Nsg49
Nsg50
S'fDefense +2'
p63
sg52
Nsg53
Nsg54
(lp64
sasS'records'
p65
(dp66
S'damage'
p67
I0
sS'kills'
p68
I0
sS'healing'
p69
I0
ssS'finished'
p70
I00
sS'u_id'
p71
S'Coyote'
p72
sS'wexp'
p73
(lp74
I78
aI0
aI6
aI0
aI0
aI0
aI0
asS'movement_group'
p75
I4
sS'name'
p76
S'Coyote'
p77
sS'level'
p78
I15
sS'items'
p79
(lp80
(dp81
S'c_uses'
p82
NsS'locked'
p83
I00
sS'droppable'
p84
I00
sS'uses'
p85
I20
sS'event_combat'
p86
I00
sS'owner'
p87
g72
sg50
S'Great Sword'
p88
sa(dp89
g82
Nsg83
I00
sg84
I00
sg85
I13
sg86
I00
sg87
g72
sg50
S'Mithril Sword'
p90
sa(dp91
g82
Nsg83
I00
sg84
I00
sg85
I1
sg86
I00
sg87
g72
sg50
S'Superior Edge'
p92
sa(dp93
g82
Nsg83
I00
sg84
I00
sg85
I30
sg86
I00
sg87
g72
sg50
S'Hatchet'
p94
sasS'klass'
p95
S'Hero'
p96
sS'exp'
p97
I14
sS'gender'
p98
S'M'
sS'position'
p99
Nsa(dp100
g7
S'None'
p101
sg9
(lp102
I65
aI10
aI30
aI45
aI50
aI50
aI40
aI65
asg11
I00
sg12
(lp103
I0
aI40
aI50
aI90
aI60
aI60
aI20
aI0
asg14
S"The resistance's leader. Ambitious and inquisitive."
p104
sg16
g17
(g18
g19
NtRp105
(dp106
g22
I5
sg23
I37
sbsg24
(lp107
(I24
I5
tp108
a(I3
I0
tp109
a(I10
I0
tp110
a(I11
I0
tp111
a(I12
I0
tp112
a(I10
I0
tp113
a(I7
I0
tp114
a(I14
I0
tp115
a(I6
I0
tp116
a(I6
I0
tp117
asg36
S'Sam'
p118
sg37
(lp119
sg39
I0
sg40
S'Resistance'
p120
sg42
S'player'
p121
sg44
(lp122
(dp123
g47
Nsg48
Nsg49
Nsg50
S'Refresh'
p124
sg52
I0
sg53
Nsg54
(lp125
sa(dp126
g47
Nsg48
Nsg49
Nsg50
S'Skill_Aura'
p127
sg52
Nsg53
Nsg54
(lp128
sa(dp129
g47
Nsg48
Nsg49
Nsg50
S'Rally'
p130
sg52
I0
sg53
Nsg54
(lp131
sa(dp132
g47
Nsg48
Nsg49
Nsg50
S'fMaximum HP +5'
p133
sg52
Nsg53
Nsg54
(lp134
sasg65
(dp135
g67
I0
sg68
I0
sg69
I0
ssg70
I00
sg71
S'Sam'
p136
sg73
(lp137
I0
aI0
aI0
aI0
aI94
aI0
aI0
asg75
I3
sg76
S'Sam'
p138
sg78
I15
sg79
(lp139
(dp140
g82
Nsg83
I00
sg84
I00
sg85
I16
sg86
I00
sg87
g136
sg50
S'Heal'
p141
sa(dp142
g82
Nsg83
I00
sg84
I00
sg85
I10
sg86
I00
sg87
g136
sg50
S'Shine'
p143
sasg95
S'Strategist'
p144
sg97
I46
sg98
S'M'
sg99
Nsa(dp145
g7
S'None'
p146
sg9
(lp147
I50
aI5
aI65
aI50
aI45
aI30
aI40
aI50
asg11
I00
sg12
(lp148
I80
aI60
aI0
aI80
aI20
aI0
aI60
aI80
asg14
S'A scheming diplomat from the Confederacy.'
p149
sg16
g17
(g18
g19
NtRp150
(dp151
g22
I0
sg23
I36
sbsg24
(lp152
(I24
I0
tp153
a(I1
I0
tp154
a(I13
I0
tp155
a(I12
I3
tp156
a(I12
I0
tp157
a(I8
I0
tp158
a(I8
I0
tp159
a(I11
I0
tp160
a(I6
I0
tp161
a(I5
I0
tp162
asg36
S'Kayla'
p163
sg37
(lp164
sg39
I0
sg40
S'Resistance'
p165
sg42
S'player'
p166
sg44
(lp167
(dp168
g47
Nsg48
Nsg49
Nsg50
S'Hex'
p169
sg52
Nsg53
Nsg54
(lp170
sa(dp171
g47
Nsg48
Nsg49
Nsg50
S'Empowered'
p172
sg52
Nsg53
Nsg54
(lp173
sa(dp174
g47
Nsg48
Nsg49
Nsg50
S'Gate'
p175
sg52
I0
sg53
Nsg54
(lp176
sa(dp177
g47
Nsg48
Nsg49
Nsg50
S'fSkill +3'
p178
sg52
Nsg53
Nsg54
(lp179
sasg65
(dp180
g67
I0
sg68
I0
sg69
I0
ssg70
I00
sg71
S'Kayla'
p181
sg73
(lp182
I0
aI0
aI0
aI0
aI0
aI0
aI91
asg75
I3
sg76
S'Kayla'
p183
sg78
I15
sg79
(lp184
(dp185
g82
Nsg83
I00
sg84
I00
sg85
I7
sg86
I00
sg87
g181
sg50
S'Scathe'
p186
sa(dp187
g82
Nsg83
I00
sg84
I00
sg85
I23
sg86
I00
sg87
g181
sg50
S'Flux'
p188
sa(dp189
g82
Nsg83
I00
sg84
I00
sg85
I22
sg86
I00
sg87
g181
sg50
S'Nyx'
p190
sa(dp191
g82
Nsg83
I00
sg84
I00
sg85
I3
sg86
I00
sg87
g181
sg50
S'Potion'
p192
sasg95
S'Warlock'
p193
sg97
I47
sg98
S'F'
sg99
Nsa(dp194
g7
S'None'
p195
sg9
(lp196
I70
aI65
aI20
aI70
aI80
aI60
aI40
aI30
asg11
I00
sg12
(lp197
I50
aI0
aI50
aI50
aI0
aI50
aI0
aI50
asg14
S'A moody but hopeful soldier.'
p198
sg16
g17
(g18
g19
NtRp199
(dp200
g22
I5
sg23
I37
sbsg24
(lp201
(I24
I5
tp202
a(I14
I2
tp203
a(I3
I0
tp204
a(I16
I0
tp205
a(I17
I0
tp206
a(I14
I0
tp207
a(I10
I2
tp208
a(I8
I0
tp209
a(I8
I0
tp210
a(I5
I0
tp211
asg36
S'0'
sg37
(lp212
sg39
I0
sg40
S'Resistance'
p213
sg42
S'player'
p214
sg44
(lp215
(dp216
g47
Nsg48
Nsg49
Nsg50
S'Synergy'
p217
sg52
Nsg53
Nsg54
(lp218
sa(dp219
g47
Nsg48
Nsg49
Nsg50
S'fMaximum HP +5'
p220
sg52
Nsg53
Nsg54
(lp221
sa(dp222
g47
Nsg48
Nsg49
Nsg50
S'fDefense +2'
p223
sg52
Nsg53
Nsg54
(lp224
sa(dp225
g47
Nsg48
Nsg49
Nsg50
S'fStrength +2'
p226
sg52
Nsg53
Nsg54
(lp227
sasg65
(dp228
g67
I0
sg68
I0
sg69
I0
ssg70
I00
sg71
S'Eliza'
p229
sg73
(lp230
I0
aI83
aI7
aI0
aI0
aI0
aI0
asg75
I1
sg76
S'Eliza'
p231
sg78
I17
sg79
(lp232
(dp233
g82
Nsg83
I00
sg84
I00
sg85
I14
sg86
I00
sg87
g229
sg50
S'Steel Lance'
p234
sa(dp235
g82
Nsg83
I00
sg84
I00
sg85
I9
sg86
I00
sg87
g229
sg50
S'Javelin'
p236
sa(dp237
g82
Nsg83
I00
sg84
I00
sg85
I7
sg86
I00
sg87
g229
sg50
S'Hand Axe'
p238
sa(dp239
g82
Nsg83
I00
sg84
I00
sg85
I10
sg86
I00
sg87
g229
sg50
S'Axereaver'
p240
sa(dp241
g82
Nsg83
I00
sg84
I00
sg85
I24
sg86
I00
sg87
g229
sg50
S'Great Lance'
p242
sasg95
S'Halberdier'
p243
sg97
I55
sg98
S'F'
sg99
Nsa(dp244
g7
S'None'
p245
sg9
(lp246
I105
aI50
aI30
aI70
aI80
aI80
aI30
aI40
asg11
I00
sg12
(lp247
I0
aI0
aI50
aI50
aI0
aI0
aI50
aI0
asg14
S'A strong-hearted renegade who often acts before he thinks.'
p248
sg16
g17
(g18
g19
NtRp249
(dp250
g22
I0
sg23
I47
sbsg24
(lp251
(I31
I0
tp252
a(I12
I2
tp253
a(I6
I0
tp254
a(I16
I0
tp255
a(I18
I0
tp256
a(I14
I0
tp257
a(I8
I0
tp258
a(I7
I0
tp259
a(I6
I0
tp260
a(I6
I0
tp261
asg36
S'Ophie'
p262
sg37
(lp263
S'Lord'
p264
asg39
I0
sg40
S'Resistance'
p265
sg42
S'player'
p266
sg44
(lp267
(dp268
g47
Nsg48
Nsg49
Nsg50
S'Riposte'
p269
sg52
Nsg53
Nsg54
(lp270
sa(dp271
g47
Nsg48
Nsg49
Nsg50
S'Vantage'
p272
sg52
Nsg53
Nsg54
(lp273
sa(dp274
g47
Nsg48
Nsg49
Nsg50
S'fStrength +2'
p275
sg52
Nsg53
Nsg54
(lp276
sa(dp277
g47
Nsg48
Nsg49
Nsg50
S'Critical'
p278
sg52
I0
sg53
Nsg54
(lp279
sa(dp280
g47
Nsg48
Nsg49
Nsg50
S'Shimmer'
p281
sg52
Nsg53
Nsg54
(lp282
sasg65
(dp283
g67
I0
sg68
I0
sg69
I0
ssg70
I00
sg71
S'Ophie'
p284
sg73
(lp285
I93
aI0
aI0
aI0
aI0
aI0
aI0
asg75
I0
sg76
S'Ophie'
p286
sg78
I17
sg79
(lp287
(dp288
g82
Nsg83
I00
sg84
I00
sg85
I16
sg86
I00
sg87
g284
sg50
S'Iron Sword'
p289
sa(dp290
g82
Nsg83
I00
sg84
I00
sg85
I12
sg86
I00
sg87
g284
sg50
S'Mithril Sword'
p291
sa(dp292
g82
Nsg83
I00
sg84
I00
sg85
I4
sg86
I00
sg87
g284
sg50
S'Lancereaver'
p293
sa(dp294
g82
Nsg83
I00
sg84
I00
sg85
I15
sg86
I00
sg87
g284
sg50
S'Levin Sword'
p295
sa(dp296
g82
Nsg83
I00
sg84
I00
sg85
I12
sg86
I00
sg87
g284
sg50
S'Iron Knife'
p297
sasg95
S'Swordmaster'
p298
sg97
I54
sg98
S'M'
sg99
Nsa(dp299
g7
S'None'
p300
sg9
(lp301
I65
aI10
aI65
aI40
aI50
aI80
aI20
aI80
asg11
I00
sg12
(lp302
I0
aI80
aI0
aI40
aI20
aI80
aI90
aI80
asg14
S'A shy but kind-hearted young woman. Has an affinity with the spiritual.'
p303
sg16
g17
(g18
g19
NtRp304
(dp305
g22
I0
sg23
I34
sbsg24
(lp306
(I22
I0
tp307
a(I1
I0
tp308
a(I12
I0
tp309
a(I10
I0
tp310
a(I13
I0
tp311
a(I14
I0
tp312
a(I5
I0
tp313
a(I16
I0
tp314
a(I4
I0
tp315
a(I6
I0
tp316
asg36
S'Prim'
p317
sg37
(lp318
sg39
I0
sg40
S'Resistance'
p319
sg42
S'player'
p320
sg44
(lp321
(dp322
g47
Nsg48
Nsg49
Nsg50
S'Healtouch'
p323
sg52
Nsg53
Nsg54
(lp324
sa(dp325
g47
I1
sg48
Nsg49
Nsg50
S'Miracle'
p326
sg52
Nsg53
Nsg54
(lp327
sa(dp328
g47
Nsg48
Nsg49
Nsg50
S'Futuresight'
p329
sg52
Nsg53
Nsg54
(lp330
sa(dp331
g47
Nsg48
Nsg49
Nsg50
S'Luck_Aura'
p332
sg52
Nsg53
Nsg54
(lp333
sasg65
(dp334
g67
I0
sg68
I0
sg69
I0
ssg70
I00
sg71
S'Prim'
p335
sg73
(lp336
I0
aI0
aI0
aI0
aI99
aI0
aI4
asg75
I3
sg76
S'Prim'
p337
sg78
I16
sg79
(lp338
(dp339
g82
Nsg83
I00
sg84
I00
sg85
I7
sg86
I00
sg87
g335
sg50
S'Mend'
p340
sa(dp341
g82
Nsg83
I00
sg84
I00
sg85
I2
sg86
I00
sg87
g335
sg50
S'Mage Shield'
p342
sa(dp343
g82
Nsg83
I00
sg84
I00
sg85
I4
sg86
I00
sg87
g335
sg50
S'Fortune'
p344
sa(dp345
g82
Nsg83
I00
sg84
I00
sg85
I18
sg86
I00
sg87
g335
sg50
S'Flux'
p346
sa(dp347
g82
Nsg83
I00
sg84
I00
sg85
I17
sg86
I00
sg87
g335
sg50
S'Glimmer'
p348
sasg95
S'Oracle'
p349
sg97
I90
sg98
S'F'
sg99
Nsa(dp350
g7
S'None'
p351
sg9
(lp352
I105
aI80
aI5
aI60
aI50
aI45
aI30
aI20
asg11
I00
sg12
(lp353
I20
aI40
aI20
aI80
aI60
aI40
aI0
aI60
asg14
S'A jovial former sailor. Always ready for a new adventure.'
p354
sg16
g17
(g18
g19
NtRp355
(dp356
g22
I0
sg23
I53
sbsg24
(lp357
(I35
I0
tp358
a(I15
I0
tp359
a(I0
I0
tp360
a(I11
I0
tp361
a(I10
I2
tp362
a(I8
I0
tp363
a(I9
I0
tp364
a(I4
I0
tp365
a(I10
I0
tp366
a(I6
I0
tp367
asg36
S'0'
sg37
(lp368
sg39
I0
sg40
S'Resistance'
p369
sg42
S'player'
p370
sg44
(lp371
(dp372
g47
Nsg48
Nsg49
Nsg50
S'Cleave'
p373
sg52
I0
sg53
Nsg54
(lp374
sa(dp375
g47
Nsg48
Nsg49
Nsg50
S'Shove'
p376
sg52
I0
sg53
Nsg54
(lp377
sa(dp378
g47
Nsg48
Nsg49
Nsg50
S'Heavy Hitter'
p379
sg52
Nsg53
Nsg54
(lp380
sa(dp381
g47
Nsg48
Nsg49
Nsg50
S'fSpeed +2'
p382
sg52
Nsg53
Nsg54
(lp383
sasg65
(dp384
g67
I0
sg68
I0
sg69
I0
ssg70
I00
sg71
S'Joel'
p385
sg73
(lp386
I0
aI0
aI95
aI3
aI0
aI0
aI0
asg75
I4
sg76
S'Joel'
p387
sg78
I16
sg79
(lp388
(dp389
g82
Nsg83
I00
sg84
I00
sg85
I10
sg86
I00
sg87
g385
sg50
S'Short Axe'
p390
sa(dp391
g82
Nsg83
I00
sg84
I00
sg85
I9
sg86
I00
sg87
g385
sg50
S'Swordreaver'
p392
sa(dp393
g82
Nsg83
I00
sg84
I00
sg85
I16
sg86
I00
sg87
g385
sg50
S'Mithril Axe'
p394
sa(dp395
g82
Nsg83
I00
sg84
I00
sg85
I24
sg86
I00
sg87
g385
sg50
S'Great Axe'
p396
sa(dp397
g82
Nsg83
I00
sg84
I00
sg85
I3
sg86
I00
sg87
g385
sg50
S'Elixir'
p398
sasg95
S'Warrior'
p399
sg97
I53
sg98
S'M'
sg99
Nsa(dp400
g7
S'None'
p401
sg9
(lp402
I80
aI50
aI30
aI65
aI80
aI40
aI20
aI40
asg11
I00
sg12
(lp403
I60
aI40
aI50
aI0
aI60
aI80
aI90
aI80
asg14
S'A quiet archer most at home in the wilderness.'
p404
sg16
g17
(g18
g19
NtRp405
(dp406
g22
I5
sg23
I38
sbsg24
(lp407
(I25
I5
tp408
a(I12
I0
tp409
a(I6
I0
tp410
a(I14
I0
tp411
a(I16
I0
tp412
a(I8
I0
tp413
a(I5
I0
tp414
a(I8
I0
tp415
a(I6
I0
tp416
a(I6
I0
tp417
asg36
S'0'
sg37
(lp418
sg39
I0
sg40
S'Resistance'
p419
sg42
S'player'
p420
sg44
(lp421
(dp422
g47
Nsg48
Nsg49
Nsg50
S'Prescience'
p423
sg52
Nsg53
Nsg54
(lp424
sa(dp425
g47
Nsg48
Nsg49
Nsg50
S'Critical'
p426
sg52
I0
sg53
Nsg54
(lp427
sa(dp428
g47
Nsg48
Nsg49
Nsg50
S'Evasion'
p429
sg52
Nsg53
Nsg54
(lp430
sa(dp431
g47
Nsg48
Nsg49
Nsg50
S'fMaximum HP +5'
p432
sg52
Nsg53
Nsg54
(lp433
sasg65
(dp434
g67
I0
sg68
I0
sg69
I0
ssg70
I00
sg71
S'Nia'
p435
sg73
(lp436
I0
aI0
aI0
aI103
aI0
aI0
aI0
asg75
I0
sg76
S'Nia'
p437
sg78
I17
sg79
(lp438
(dp439
g82
Nsg83
I00
sg84
I00
sg85
I1
sg86
I00
sg87
g435
sg50
S'Longbow'
p440
sa(dp441
g82
Nsg83
I00
sg84
I00
sg85
I6
sg86
I00
sg87
g435
sg50
S'Oak Bow'
p442
sa(dp443
g82
Nsg83
I00
sg84
I00
sg85
I16
sg86
I00
sg87
g435
sg50
S'Great Bow'
p444
sa(dp445
g82
Nsg83
I00
sg84
I00
sg85
I14
sg86
I00
sg87
g435
sg50
S'Yew Bow'
p446
sa(dp447
g82
Nsg83
I00
sg84
I00
sg85
I3
sg86
I00
sg87
g435
sg50
S'Potion'
p448
sasg95
S'Ranger'
p449
sg97
I18
sg98
S'F'
sg99
Nsa(dp450
g7
S'None'
p451
sg9
(lp452
I60
aI10
aI85
aI40
aI60
aI60
aI20
aI50
asg11
I00
sg12
(lp453
I60
aI80
aI20
aI40
aI60
aI60
aI20
aI20
asg14
S'A forthright but elegant and refined sorceress.'
p454
sg16
g17
(g18
g19
NtRp455
(dp456
g22
I5
sg23
I32
sbsg24
(lp457
(I21
I5
tp458
a(I2
I0
tp459
a(I17
I0
tp460
a(I10
I0
tp461
a(I12
I-2
tp462
a(I13
I0
tp463
a(I6
I4
tp464
a(I12
I0
tp465
a(I4
I0
tp466
a(I6
I0
tp467
asg36
S'0'
sg37
(lp468
sg39
I0
sg40
S'Resistance'
p469
sg42
S'player'
p470
sg44
(lp471
(dp472
g47
Nsg48
Nsg49
Nsg50
S'Focus'
p473
sg52
Nsg53
Nsg54
(lp474
sa(dp475
g47
Nsg48
Nsg49
Nsg50
S'fMaximum HP +5'
p476
sg52
Nsg53
Nsg54
(lp477
sa(dp478
g47
Nsg48
Nsg49
Nsg50
S'Conductance'
p479
sg52
Nsg53
Nsg54
(lp480
sa(dp481
g47
Nsg48
Nsg49
Nsg50
S'fDefense +2'
p482
sg52
Nsg53
Nsg54
(lp483
sa(dp484
g47
Nsg48
Nsg49
Nsg50
S'Speed -2'
p485
sg52
Nsg53
Nsg54
(lp486
sa(dp487
g47
Nsg48
Nsg49
Nsg50
S'Defense +2'
p488
sg52
Nsg53
Nsg54
(lp489
sasg65
(dp490
g67
I0
sg68
I0
sg69
I0
ssg70
I00
sg71
S'Althea'
p491
sg73
(lp492
I0
aI0
aI0
aI0
aI0
aI88
aI0
asg75
I3
sg76
S'Althea'
p493
sg78
I17
sg79
(lp494
(dp495
g82
Nsg83
I00
sg84
I00
sg85
I15
sg86
I00
sg87
g491
sg50
S'Earth'
p496
sa(dp497
g82
Nsg83
I00
sg84
I00
sg85
I2
sg86
I00
sg87
g491
sg50
S'Fire'
p498
sa(dp499
g82
Nsg83
I00
sg84
I00
sg85
I3
sg86
I00
sg87
g491
sg50
S'Potion'
p500
sasg95
S'Sage'
p501
sg97
I42
sg98
S'F'
sg99
Nsa(dp502
g7
S'None'
p503
sg9
(lp504
I90
aI65
aI5
aI60
aI60
aI40
aI50
aI40
asg11
I01
sg12
(lp505
I20
aI0
aI80
aI20
aI20
aI80
aI40
aI80
asg14
S"A disgraced Imperial knight now in Althea's service."
p506
sg16
g17
(g18
g19
NtRp507
(dp508
g22
I0
sg23
I39
sbsg24
(lp509
(I26
I0
tp510
a(I12
I0
tp511
a(I0
I0
tp512
a(I11
I0
tp513
a(I10
I0
tp514
a(I9
I0
tp515
a(I10
I0
tp516
a(I6
I0
tp517
a(I8
I0
tp518
a(I8
I0
tp519
asg36
S'0'
sg37
(lp520
sg39
I0
sg40
S'Resistance'
p521
sg42
S'player'
p522
sg44
(lp523
(dp524
g47
Nsg48
Nsg49
Nsg50
S'Canto'
p525
sg52
Nsg53
Nsg54
(lp526
sa(dp527
g47
Nsg48
Nsg49
Nsg50
S'Savior'
p528
sg52
Nsg53
Nsg54
(lp529
sa(dp530
g47
Nsg48
Nsg49
Nsg50
S'Charisma'
p531
sg52
Nsg53
Nsg54
(lp532
sasg65
(dp533
g67
I0
sg68
I0
sg69
I0
ssg70
I00
sg71
S'Drake'
p534
sg73
(lp535
I23
aI69
aI0
aI0
aI0
aI0
aI0
asg75
I1
sg76
S'Drake'
p536
sg78
I14
sg79
(lp537
(dp538
g82
Nsg83
I00
sg84
I00
sg85
I5
sg86
I00
sg87
g534
sg50
S'Iron Knife'
p539
sasg95
S'Paladin'
p540
sg97
I55
sg98
S'M'
sg99
Nsa(dp541
g7
S'None'
p542
sg9
(lp543
I90
aI40
aI20
aI50
aI90
aI65
aI30
aI25
asg11
I01
sg12
(lp544
I40
aI60
aI80
aI80
aI40
aI0
aI0
aI40
asg14
S'An energetic thief with a kleptomanic streak.'
p545
sg16
g17
(g18
g19
NtRp546
(dp547
g22
I0
sg23
I28
sbsg24
(lp548
(I18
I0
tp549
a(I5
I0
tp550
a(I3
I0
tp551
a(I8
I0
tp552
a(I13
I0
tp553
a(I7
I0
tp554
a(I4
I0
tp555
a(I2
I0
tp556
a(I4
I0
tp557
a(I5
I0
tp558
asg36
S'0'
sg37
(lp559
sg39
I0
sg40
S'Kerala'
p560
sg42
S'player'
p561
sg44
(lp562
(dp563
g47
Nsg48
Nsg49
Nsg50
S'Locktouch'
p564
sg52
Nsg53
Nsg54
(lp565
sa(dp566
g47
Nsg48
Nsg49
Nsg50
S'Steal'
p567
sg52
Nsg53
Nsg54
(lp568
sasg65
(dp569
g67
I0
sg68
I0
sg69
I0
ssg70
I00
sg71
S'Renae'
p570
sg73
(lp571
I41
aI0
aI0
aI0
aI0
aI0
aI0
asg75
I0
sg76
S'Renae'
p572
sg78
I10
sg79
(lp573
(dp574
g82
Nsg83
I00
sg84
I00
sg85
I18
sg86
I00
sg87
g570
sg50
S'Steel Sword'
p575
sa(dp576
g82
Nsg83
I00
sg84
I00
sg85
I3
sg86
I00
sg87
g570
sg50
S'Potion'
p577
sasg95
S'Thief'
p578
sg97
I60
sg98
S'F'
sg99
Nsa(dp579
g7
S'None'
p580
sg9
(lp581
I120
aI50
aI25
aI40
aI40
aI45
aI70
aI40
asg11
I00
sg12
(lp582
I0
aI0
aI0
aI0
aI0
aI0
aI0
aI0
asg14
S'An avid scholar. Interested in esoteric philosophy.'
p583
sg16
g17
(g18
g19
NtRp584
(dp585
g22
I5
sg23
I49
sbsg24
(lp586
(I32
I5
tp587
a(I15
I0
tp588
a(I2
I0
tp589
a(I12
I0
tp590
a(I9
I0
tp591
a(I7
I0
tp592
a(I16
I0
tp593
a(I8
I0
tp594
a(I10
I0
tp595
a(I5
I0
tp596
asg36
S'0'
sg37
(lp597
sg39
I0
sg40
S'Resistance'
p598
sg42
S'player'
p599
sg44
(lp600
(dp601
g47
Nsg48
Nsg49
Nsg50
S'Provoke'
p602
sg52
Nsg53
Nsg54
(lp603
sa(dp604
g47
Nsg48
Nsg49
Nsg50
S'Shove'
p605
sg52
I0
sg53
Nsg54
(lp606
sa(dp607
g47
Nsg48
Nsg49
Nsg50
S'Slow'
p608
sg52
Nsg53
Nsg54
(lp609
sa(dp610
g47
Nsg48
Nsg49
Nsg50
S'fMaximum HP +5'
p611
sg52
Nsg53
Nsg54
(lp612
sasg65
(dp613
g67
I0
sg68
I0
sg69
I0
ssg70
I00
sg71
S'Theo'
p614
sg73
(lp615
I4
aI70
aI0
aI0
aI0
aI0
aI0
asg75
I1
sg76
S'Theo'
p616
sg78
I15
sg79
(lp617
(dp618
g82
Nsg83
I00
sg84
I00
sg85
I2
sg86
I00
sg87
g614
sg50
S'Iron Sword'
p619
sa(dp620
g82
Nsg83
I00
sg84
I00
sg85
I4
sg86
I00
sg87
g614
sg50
S'Short Spear'
p621
sa(dp622
g82
Nsg83
I00
sg84
I00
sg85
I27
sg86
I00
sg87
g614
sg50
S'Steel Lance'
p623
sa(dp624
g82
Nsg83
I00
sg84
I00
sg85
I1
sg86
I00
sg87
g614
sg50
S'Potion'
p625
sa(dp626
g82
Nsg83
I00
sg84
I00
sg85
I22
sg86
I00
sg87
g614
sg50
S'Great Lance'
p627
sasg95
S'General'
p628
sg97
I54
sg98
S'M'
sg99
NsasS'convoy'
p629
(lp630
(dp631
g82
Nsg83
I00
sg84
I00
sg85
I1
sg86
I00
sg87
I0
sg50
S'Secret Book'
p632
sa(dp633
g82
Nsg83
I00
sg84
I00
sg85
I1
sg86
I00
sg87
I0
sg50
S'Angelic Robe'
p634
sa(dp635
g82
Nsg83
I00
sg84
I00
sg85
I1
sg86
I00
sg87
I0
sg50
S'Mana Ring'
p636
sa(dp637
g82
Nsg83
I00
sg84
I00
sg85
I1
sg86
I00
sg87
I0
sg50
S'Talisman'
p638
sa(dp639
g82
Nsg83
I00
sg84
I00
sg85
I1
sg86
I00
sg87
I0
sg50
S'Speedwings'
p640
sa(dp641
g82
Nsg83
I00
sg84
I00
sg85
I1
sg86
I00
sg87
I0
sg50
S'Energy Ring'
p642
sa(dp643
g82
Nsg83
I00
sg84
I00
sg85
I18
sg86
I00
sg87
I0
sg50
S'Iron Axe'
p644
sa(dp645
g82
Nsg83
I00
sg84
I00
sg85
I1
sg86
I00
sg87
I0
sg50
S'Secret Book'
p646
sa(dp647
g82
Nsg83
I00
sg84
I00
sg85
I17
sg86
I00
sg87
I0
sg50
S'Willow Bow'
p648
sa(dp649
g82
Nsg83
I00
sg84
I00
sg85
I1
sg86
I00
sg87
I0
sg50
S'Talisman'
p650
sa(dp651
g82
Nsg83
I00
sg84
I00
sg85
I1
sg86
I00
sg87
I0
sg50
S'Mithril Mail'
p652
sa(dp653
g82
Nsg83
I00
sg84
I00
sg85
Nsg86
I00
sg87
I0
sg50
S"Prim's Charm"
p654
sa(dp655
g82
Nsg83
I00
sg84
I00
sg85
I1
sg86
I00
sg87
I0
sg50
S'Mana Ring'
p656
sa(dp657
g82
Nsg83
I00
sg84
I00
sg85
I20
sg86
I00
sg87
I0
sg50
S'Steel Axe'
p658
sa(dp659
g82
Nsg83
I00
sg84
I00
sg85
I24
sg86
I00
sg87
I0
sg50
S'Steel Sword'
p660
sa(dp661
g82
Nsg83
I00
sg84
I00
sg85
I26
sg86
I00
sg87
I0
sg50
S'Iron Lance'
p662
sa(dp663
g82
Nsg83
I00
sg84
I00
sg85
I14
sg86
I00
sg87
I0
sg50
S'Iron Sword'
p664
sa(dp665
g82
Nsg83
I00
sg84
I00
sg85
I1
sg86
I00
sg87
I0
sg50
S'Speedwings'
p666
sa(dp667
g82
Nsg83
I00
sg84
I00
sg85
I15
sg86
I00
sg87
I0
sg50
S'Aether'
p668
sa(dp669
g82
Nsg83
I00
sg84
I00
sg85
I2
sg86
I00
sg87
I0
sg50
S'Stun'
p670
sa(dp671
g82
Nsg83
I00
sg84
I00
sg85
I1
sg86
I00
sg87
I0
sg50
S'Silence'
p672
sa(dp673
g82
Nsg83
I00
sg84
I00
sg85
I12
sg86
I00
sg87
I0
sg50
S'Physic'
p674
sa(dp675
g82
Nsg83
I00
sg84
I00
sg85
I10
sg86
I00
sg87
I0
sg50
S'Mithril Knife'
p676
sa(dp677
g82
Nsg83
I00
sg84
I00
sg85
I1
sg86
I00
sg87
I0
sg50
S'Meteor'
p678
sa(dp679
g82
Nsg83
I00
sg84
I00
sg85
I10
sg86
I00
sg87
I0
sg50
S'Superior Lance'
p680
sa(dp681
g82
Nsg83
I00
sg84
I00
sg85
I6
sg86
I00
sg87
I0
sg50
S'Steel Knife'
p682
sa(dp683
g82
Nsg83
I00
sg84
I00
sg85
I28
sg86
I00
sg87
I0
sg50
S'Brave Sword'
p684
sa(dp685
g82
Nsg83
I00
sg84
I00
sg85
I21
sg86
I00
sg87
I0
sg50
S'Iron Lance'
p686
sasS'groups'
p687
(dp688
sS'allreinforcements'
p689
(dp690
sS'base_conversations'
p691
(dp692
sS'playtime'
p693
I47214232
sS'message'
p694
(lp695
sS'unlocked_lore'
p696
(lp697
S'Sam'
p698
aS'Joel'
p699
aS'Prim'
p700
aS'Ophie'
p701
aS'Althea'
p702
aS'Drake'
p703
aS'Nia'
p704
aS'Renae'
p705
aS'Theo'
p706
aS'Kerala'
p707
aS'Empire'
p708
aS'Eliza'
p709
aS'Podoma'
p710
aS'Rajas'
p711
aS'Ulver'
p712
aS'Vagnius'
p713
aS'CFS'
p714
aS'Kayla'
p715
aS'CFS'
p716
aS'Kayla'
p717
aS'Tyrana'
p718
aS'Coyote'
p719
asS'statistics'
p720
(lp721
g17
(cCode.CustomObjects
LevelStatistic
p722
g19
NtRp723
(dp724
S'turncount'
p725
I1
sS'stats'
p726
(dp727
g337
(dp728
S'damage'
p729
I0
sS'kills'
p730
I0
sS'healing'
p731
I0
ssg286
(dp732
g729
I0
sg730
I0
sg731
I0
sssS'name'
p733
S'Prologue'
p734
sbag17
(g722
g19
NtRp735
(dp736
g725
I7
sg726
(dp737
g337
(dp738
g729
I64
sg730
I0
sg731
I40
ssg387
(dp739
S'damage'
p740
I93
sS'kills'
p741
I3
sS'healing'
p742
I0
ssg437
(dp743
g740
I69
sg741
I2
sg742
I0
ssg286
(dp744
g729
I44
sg730
I6
sg731
I0
sssg733
S'Chapter I'
p745
sbag17
(g722
g19
NtRp746
(dp747
g725
I10
sg726
(dp748
g493
(dp749
S'damage'
p750
I27
sS'kills'
p751
I3
sS'healing'
p752
I0
ssg337
(dp753
g740
I85
sg741
I0
sg742
I78
ssg387
(dp754
g740
I58
sg741
I4
sg742
I0
ssg437
(dp755
g740
I93
sg741
I3
sg742
I0
ssg536
(dp756
g750
I54
sg751
I1
sg752
I0
ssg286
(dp757
g740
I65
sg741
I4
sg742
I0
sssg733
S'Chapter II'
p758
sbag17
(g722
g19
NtRp759
(dp760
g725
I17
sg726
(dp761
g616
(dp762
S'damage'
p763
I0
sS'kills'
p764
I0
sS'healing'
p765
I0
ssg493
(dp766
g763
I0
sg764
I0
sg765
I0
ssg337
(dp767
g763
I0
sg764
I0
sg765
I0
ssg387
(dp768
g763
I0
sg764
I0
sg765
I0
ssg437
(dp769
g763
I0
sg764
I0
sg765
I0
ssg572
(dp770
g763
I0
sg764
I0
sg765
I0
ssg536
(dp771
g763
I0
sg764
I0
sg765
I0
ssg286
(dp772
g763
I0
sg764
I0
sg765
I0
sssg733
S'Chapter III'
p773
sbag17
(g722
g19
NtRp774
(dp775
g725
I9
sg726
(dp776
g616
(dp777
g763
I69
sg764
I4
sg765
I0
ssg493
(dp778
g763
I106
sg764
I6
sg765
I0
ssg337
(dp779
g763
I21
sg764
I3
sg765
I116
ssg231
(dp780
S'damage'
p781
I63
sS'kills'
p782
I4
sS'healing'
p783
I0
ssg437
(dp784
g763
I89
sg764
I4
sg765
I0
ssg572
(dp785
g763
I20
sg764
I0
sg765
I0
ssg536
(dp786
g763
I98
sg764
I3
sg765
I0
ssg286
(dp787
g763
I119
sg764
I7
sg765
I0
ssg387
(dp788
g763
I182
sg764
I5
sg765
I0
sssg733
S'Chapter IV'
p789
sbag17
(g722
g19
NtRp790
(dp791
g725
I12
sg726
(dp792
g616
(dp793
S'damage'
p794
I0
sS'kills'
p795
I0
sS'healing'
p796
I0
ssg493
(dp797
g794
I177
sg795
I7
sg796
I0
ssg337
(dp798
g794
I33
sg795
I2
sg796
I147
ssg138
(dp799
g794
I41
sg795
I1
sg796
I36
ssg231
(dp800
g794
I48
sg795
I3
sg796
I0
ssg437
(dp801
g794
I65
sg795
I2
sg796
I0
ssg572
(dp802
g794
I64
sg795
I3
sg796
I0
ssg536
(dp803
g794
I38
sg795
I1
sg796
I0
ssg183
(dp804
g794
I20
sg795
I2
sg796
I0
ssg286
(dp805
g794
I104
sg795
I3
sg796
I0
ssg387
(dp806
g794
I107
sg795
I4
sg796
I0
sssg733
S'Chapter V'
p807
sbag17
(g722
g19
NtRp808
(dp809
g725
I17
sg726
(dp810
g616
(dp811
S'damage'
p812
I115
sS'kills'
p813
I6
sS'healing'
p814
I0
ssg493
(dp815
g812
I260
sg813
I7
sg814
I0
ssg337
(dp816
g812
I43
sg813
I2
sg814
I126
ssg138
(dp817
g812
I62
sg813
I3
sg814
I158
ssg231
(dp818
g812
I278
sg813
I7
sg814
I0
ssg437
(dp819
g812
I230
sg813
I10
sg814
I0
ssg572
(dp820
g812
I23
sg813
I1
sg814
I0
ssg536
(dp821
g812
I142
sg813
I5
sg814
I0
ssg183
(dp822
g812
I179
sg813
I5
sg814
I0
ssg77
(dp823
S'damage'
p824
I39
sS'kills'
p825
I3
sS'healing'
p826
I0
ssg286
(dp827
g812
I171
sg813
I8
sg814
I0
ssg387
(dp828
g812
I169
sg813
I5
sg814
I0
sssg733
S'Chapter VI'
p829
sbag17
(g722
g19
NtRp830
(dp831
g725
I13
sg726
(dp832
g616
(dp833
S'damage'
p834
I85
sS'kills'
p835
I6
sS'healing'
p836
I0
ssg493
(dp837
g834
I181
sg835
I5
sg836
I0
ssg337
(dp838
g834
I45
sg835
I3
sg836
I107
ssg138
(dp839
g834
I57
sg835
I4
sg836
I101
ssg231
(dp840
g834
I182
sg835
I5
sg836
I0
ssg437
(dp841
g834
I225
sg835
I5
sg836
I0
ssg572
(dp842
g834
I31
sg835
I5
sg836
I0
ssg536
(dp843
g834
I149
sg835
I4
sg836
I0
ssg183
(dp844
g834
I169
sg835
I2
sg836
I0
ssg77
(dp845
g834
I181
sg835
I4
sg836
I0
ssg286
(dp846
g834
I177
sg835
I7
sg836
I0
ssg387
(dp847
g834
I289
sg835
I5
sg836
I0
sssg733
S'Chapter VII'
p848
sbag17
(g722
g19
NtRp849
(dp850
g725
I17
sg726
(dp851
g616
(dp852
S'damage'
p853
I265
sS'kills'
p854
I8
sS'healing'
p855
I0
ssg493
(dp856
g853
I294
sg854
I7
sg855
I0
ssg337
(dp857
g853
I50
sg854
I0
sg855
I288
ssg138
(dp858
g853
I85
sg854
I4
sg855
I120
ssg231
(dp859
g853
I458
sg854
I9
sg855
I0
ssg437
(dp860
g853
I276
sg854
I9
sg855
I0
ssg572
(dp861
g853
I11
sg854
I1
sg855
I0
ssg536
(dp862
g853
I237
sg854
I7
sg855
I0
ssg183
(dp863
g853
I193
sg854
I6
sg855
I0
ssg77
(dp864
g853
I120
sg854
I5
sg855
I0
ssg286
(dp865
g853
I391
sg854
I8
sg855
I0
ssg387
(dp866
g853
I389
sg854
I13
sg855
I0
sssg733
S'Chapter VIII'
p867
sbag17
(g722
g19
NtRp868
(dp869
g725
I21
sg726
(dp870
g616
(dp871
S'damage'
p872
I109
sS'kills'
p873
I3
sS'healing'
p874
I0
ssg493
(dp875
g872
I193
sg873
I5
sg874
I0
ssg337
(dp876
g872
I0
sg873
I0
sg874
I310
ssg138
(dp877
g872
I25
sg873
I1
sg874
I79
ssg231
(dp878
g872
I303
sg873
I9
sg874
I0
ssg437
(dp879
g872
I263
sg873
I6
sg874
I0
ssg572
(dp880
g872
I0
sg873
I0
sg874
I0
ssg536
(dp881
g872
I0
sg873
I0
sg874
I0
ssg183
(dp882
g872
I146
sg873
I3
sg874
I0
ssg77
(dp883
g872
I147
sg873
I3
sg874
I0
ssg286
(dp884
g872
I299
sg873
I9
sg874
I0
ssg387
(dp885
g872
I183
sg873
I4
sg874
I0
sssg733
S'Chapter IX'
p886
sbasS'market_items'
p887
c__builtin__
set
p888
((lp889
S'Nyx'
p890
aS'Glimmer'
p891
aS'Mithril Lance'
p892
aS'Ruin'
p893
aS'Mithril Axe'
p894
aS'Oak Longbow'
p895
aS'Wyrmsfire'
p896
aS'Great Bow'
p897
aS'Mend'
p898
aS'Great Lance'
p899
aS'Yew Bow'
p900
aS'Rapier'
p901
aS'Potion'
p902
aS'Fire'
p903
aS'Heal'
p904
aS'Spiritbane'
p905
aS'Water'
p906
aS'Hand Axe'
p907
aS'Great Axe'
p908
aS'Physic'
p909
aS'Iron Sword'
p910
aS'Shine'
p911
aS'Short Spear'
p912
aS'Iron Lance'
p913
aS'Short Bow'
p914
aS'Hex'
p915
aS'Hatchet'
p916
aS'Vulnerary'
p917
aS'Willow Bow'
p918
aS'Barkskin'
p919
aS'Corona'
p920
aS'Flux'
p921
aS'Slim Lance'
p922
aS'Mithril Sword'
p923
aS'Elixir'
p924
aS'Short Axe'
p925
aS'Wind'
p926
aS'Steel Lance'
p927
aS'Longbow'
p928
aS'Iron Knife'
p929
aS'Scathe'
p930
aS'Oak Bow'
p931
aS'Steel Sword'
p932
aS'Javelin'
p933
aS'Steel Axe'
p934
aS'Earth'
p935
aS'Great Sword'
p936
aS'Steel Knife'
p937
aS'Iron Axe'
p938
atRp939
sS'support'
p940
NsS'event_triggers'
p941
(lp942
sS'objective'
p943
NsS'metaDataObj_changes'
p944
(lp945
sS'counters'
p946
(dp947
S'Dead_Wagons'
p948
I12
sS'line_cross'
p949
I13
sS'level'
p950
I10
sS'money'
p951
I82
sS'switches'
p952
I1
sS'Civ_Escape'
p953
I5
sS'turns'
p954
I5
sS'Escaped_Wagons'
p955
I0
ssS'map'
p956
NsS'state_list'
p957
((lp958
S'turn_change'
p959
a(ltp960
sS'prefabs'
p961
(lp962
sS'phase_info'
p963
(I0
I1
tp964
sS'turncount'
p965
I0
sS'game_constants'
p966
(lp967
S'Convoy'
p968
as.