(dp1
S'talk_options'
p2
(lp3
sS'allunits'
p4
(lp5
(dp6
S'ai'
p7
S'None'
p8
sS'growths'
p9
(lp10
I105
aI55
aI35
aI75
aI80
aI80
aI40
aI40
asS'dead'
p11
I00
sS'items'
p12
(lp13
(dp14
S'c_uses'
p15
NsS'locked'
p16
I00
sS'droppable'
p17
I00
sS'uses'
p18
I42
sS'event_combat'
p19
I00
sS'owner'
p20
S'Ophie'
p21
sS'id'
p22
S'Iron Sword'
p23
sasS'growth_points'
p24
(lp25
I50
aI50
aI50
aI50
aI50
aI50
aI50
aI50
asS'currenthp'
p26
ccopy_reg
_reconstructor
p27
(cCode.UnitObject
Stat
p28
c__builtin__
object
p29
NtRp30
(dp31
S'bonuses'
p32
I0
sS'base_stat'
p33
I12
sbsS'stats'
p34
(lp35
(I12
I0
tp36
a(I3
I0
tp37
a(I1
I0
tp38
a(I5
I0
tp39
a(I7
I0
tp40
a(I2
I0
tp41
a(I1
I0
tp42
a(I1
I0
tp43
a(I5
I0
tp44
a(I5
I0
tp45
asS'event_id'
p46
S'Ophie'
p47
sS'faction'
p48
S'Resistance'
p49
sS'desc'
p50
S'A strong-hearted renegade who often acts before he thinks.'
p51
sS'tags'
p52
(lp53
S'Lord'
p54
asS'status_effects'
p55
(lp56
(dp57
S'count'
p58
NsS'time_left'
p59
NsS'upkeep_sc_count'
p60
NsS'children'
p61
(lp62
sS'charge'
p63
NsS'rhythm_sc_count'
p64
Nsg22
S'Riposte'
p65
sasS'records'
p66
(dp67
S'damage'
p68
I0
sS'kills'
p69
I0
sS'healing'
p70
I0
ssS'finished'
p71
I00
sS'u_id'
p72
g21
sS'wexp'
p73
(lp74
I10
aI0
aI0
aI0
aI0
aI0
aI0
asS'name'
p75
S'Ophie'
p76
sS'movement_group'
p77
I0
sS'level'
p78
I1
sS'gender'
p79
S'M'
sS'TRV'
p80
I0
sS'klass'
p81
S'Myrmidon'
p82
sS'exp'
p83
I54
sS'team'
p84
S'player'
p85
sS'position'
p86
Nsa(dp87
g7
S'None'
p88
sg9
(lp89
I65
aI15
aI65
aI40
aI55
aI80
aI25
aI80
asg11
I00
sg12
(lp90
(dp91
g15
Nsg16
I00
sg17
I00
sg18
I33
sg19
I00
sg20
S'Prim'
p92
sg22
S'Glimmer'
p93
sa(dp94
g15
Nsg16
I00
sg17
I00
sg18
I29
sg19
I00
sg20
g92
sg22
S'Heal'
p95
sasg24
(lp96
I50
aI50
aI50
aI50
aI50
aI50
aI50
aI50
asg26
g27
(g28
g29
NtRp97
(dp98
g32
I0
sg33
I11
sbsg34
(lp99
(I11
I0
tp100
a(I0
I0
tp101
a(I2
I0
tp102
a(I3
I0
tp103
a(I5
I0
tp104
a(I4
I0
tp105
a(I1
I0
tp106
a(I4
I0
tp107
a(I3
I0
tp108
a(I5
I0
tp109
asg46
S'Prim'
p110
sg48
S'Resistance'
p111
sg50
S'A shy but kind-hearted young woman. Has an affinity with the spiritual.'
p112
sg52
(lp113
sg55
(lp114
(dp115
g58
Nsg59
Nsg60
Nsg61
(lp116
sg63
Nsg64
Nsg22
S'Healtouch'
p117
sasg66
(dp118
g68
I0
sg69
I0
sg70
I0
ssg71
I00
sg72
g92
sg73
(lp119
I0
aI0
aI0
aI0
aI3
aI0
aI0
asg75
S'Prim'
p120
sg77
I5
sg78
I1
sg79
S'F'
sg80
I0
sg81
S'Mystic'
p121
sg83
I21
sg84
S'player'
p122
sg86
NsasS'convoy'
p123
(lp124
sS'groups'
p125
(dp126
sS'allreinforcements'
p127
(dp128
sS'base_conversations'
p129
(dp130
sS'playtime'
p131
I324158
sS'message'
p132
(lp133
sS'unlocked_lore'
p134
(lp135
sS'statistics'
p136
(lp137
g27
(cCode.CustomObjects
LevelStatistic
p138
g29
NtRp139
(dp140
S'turncount'
p141
I4
sg34
(dp142
g76
(dp143
g68
I13
sg69
I2
sg70
I0
ssg120
(dp144
g68
I8
sg69
I0
sg70
I7
sssg75
S'Prologue'
p145
sbasS'market_items'
p146
c__builtin__
set
p147
((ltRp148
sS'support'
p149
NsS'event_triggers'
p150
(lp151
sS'objective'
p152
NsS'metaDataObj_changes'
p153
(lp154
sS'counters'
p155
(dp156
S'money'
p157
I1500
sg78
I1
ssS'map'
p158
NsS'state_list'
p159
((lp160
S'turn_change'
p161
a(ltp162
sS'prefabs'
p163
(lp164
sS'phase_info'
p165
(I0
I3
tp166
sg141
I0
sS'game_constants'
p167
(lp168
s.