(dp1
S'talk_options'
p2
(lp3
sS'allunits'
p4
(lp5
(dp6
S'ai'
p7
S'None'
p8
sS'growths'
p9
(lp10
I105
aI55
aI35
aI75
aI80
aI80
aI40
aI40
asS'dead'
p11
I00
sS'items'
p12
(lp13
(dp14
S'c_uses'
p15
NsS'locked'
p16
I00
sS'droppable'
p17
I00
sS'uses'
p18
I35
sS'event_combat'
p19
I00
sS'owner'
p20
S'Ophie'
p21
sS'id'
p22
S'Iron Sword'
p23
sasS'growth_points'
p24
(lp25
I60
aI60
aI20
aI0
aI10
aI10
aI30
aI30
asS'currenthp'
p26
ccopy_reg
_reconstructor
p27
(cCode.UnitObject
Stat
p28
c__builtin__
object
p29
NtRp30
(dp31
S'bonuses'
p32
I0
sS'base_stat'
p33
I14
sbsS'stats'
p34
(lp35
(I14
I0
tp36
a(I4
I0
tp37
a(I2
I0
tp38
a(I7
I0
tp39
a(I9
I0
tp40
a(I4
I0
tp41
a(I2
I0
tp42
a(I2
I0
tp43
a(I5
I0
tp44
a(I5
I0
tp45
asS'event_id'
p46
S'Ophie'
p47
sS'faction'
p48
S'Resistance'
p49
sS'desc'
p50
S'A strong-hearted renegade who often acts before he thinks.'
p51
sS'tags'
p52
(lp53
S'Lord'
p54
asS'status_effects'
p55
(lp56
(dp57
S'count'
p58
NsS'time_left'
p59
NsS'upkeep_sc_count'
p60
NsS'children'
p61
(lp62
sS'charge'
p63
NsS'rhythm_sc_count'
p64
Nsg22
S'Riposte'
p65
sasS'records'
p66
(dp67
S'damage'
p68
I0
sS'kills'
p69
I0
sS'healing'
p70
I0
ssS'finished'
p71
I00
sS'u_id'
p72
g21
sS'wexp'
p73
(lp74
I16
aI0
aI0
aI0
aI0
aI0
aI0
asS'name'
p75
S'Ophie'
p76
sS'movement_group'
p77
I0
sS'level'
p78
I3
sS'gender'
p79
S'M'
sS'TRV'
p80
I0
sS'klass'
p81
S'Myrmidon'
p82
sS'exp'
p83
I3
sS'team'
p84
S'player'
p85
sS'position'
p86
Nsa(dp87
g7
S'None'
p88
sg9
(lp89
I65
aI15
aI65
aI40
aI55
aI80
aI25
aI80
asg11
I00
sg12
(lp90
(dp91
g15
Nsg16
I00
sg17
I00
sg18
I28
sg19
I00
sg20
S'Prim'
p92
sg22
S'Heal'
p93
sa(dp94
g15
Nsg16
I00
sg17
I00
sg18
I31
sg19
I00
sg20
g92
sg22
S'Glimmer'
p95
sasg24
(lp96
I50
aI50
aI50
aI50
aI50
aI50
aI50
aI50
asg26
g27
(g28
g29
NtRp97
(dp98
g32
I0
sg33
I11
sbsg34
(lp99
(I11
I0
tp100
a(I0
I0
tp101
a(I2
I0
tp102
a(I3
I0
tp103
a(I5
I0
tp104
a(I4
I0
tp105
a(I1
I0
tp106
a(I4
I0
tp107
a(I3
I0
tp108
a(I5
I0
tp109
asg46
S'Prim'
p110
sg48
S'Resistance'
p111
sg50
S'A shy but kind-hearted young woman. Has an affinity with the spiritual.'
p112
sg52
(lp113
sg55
(lp114
(dp115
g58
Nsg59
Nsg60
Nsg61
(lp116
sg63
Nsg64
Nsg22
S'Healtouch'
p117
sasg66
(dp118
g68
I0
sg69
I0
sg70
I0
ssg71
I00
sg72
g92
sg73
(lp119
I0
aI0
aI0
aI0
aI6
aI0
aI0
asg75
S'Prim'
p120
sg77
I5
sg78
I1
sg79
S'F'
sg80
I0
sg81
S'Mystic'
p121
sg83
I89
sg84
S'player'
p122
sg86
Nsa(dp123
g7
S'None'
p124
sg9
(lp125
I105
aI80
aI5
aI60
aI55
aI45
aI35
aI20
asg11
I00
sg12
(lp126
(dp127
g15
Nsg16
I00
sg17
I00
sg18
I41
sg19
I00
sg20
S'Joel'
p128
sg22
S'Iron Axe'
p129
sa(dp130
g15
Nsg16
I00
sg17
I00
sg18
I3
sg19
I00
sg20
g128
sg22
S'Vulnerary'
p131
sa(dp132
g15
Nsg16
I00
sg17
I00
sg18
I20
sg19
I00
sg20
g128
sg22
S'Hand Axe'
p133
sasg24
(lp134
I50
aI50
aI50
aI50
aI50
aI50
aI50
aI50
asg26
g27
(g28
g29
NtRp135
(dp136
g32
I0
sg33
I21
sbsg34
(lp137
(I21
I0
tp138
a(I5
I0
tp139
a(I0
I0
tp140
a(I3
I0
tp141
a(I4
I0
tp142
a(I3
I0
tp143
a(I3
I0
tp144
a(I0
I0
tp145
a(I7
I0
tp146
a(I5
I0
tp147
asg46
S'0'
sg48
S'Resistance'
p148
sg50
S'A jovial former sailor. Always ready for a new adventure.'
p149
sg52
(lp150
sg55
(lp151
(dp152
g58
Nsg59
Nsg60
Nsg61
(lp153
sg63
I0
sg64
Nsg22
S'Cleave'
p154
sasg66
(dp155
g68
I0
sg69
I0
sg70
I0
ssg71
I00
sg72
g128
sg73
(lp156
I0
aI0
aI20
aI0
aI0
aI0
aI0
asg75
S'Joel'
p157
sg77
I4
sg78
I3
sg79
S'M'
sg80
I0
sg81
S'Fighter'
p158
sg83
I81
sg84
S'player'
p159
sg86
Nsa(dp160
g7
S'None'
p161
sg9
(lp162
I80
aI55
aI35
aI80
aI80
aI25
aI20
aI40
asg11
I00
sg12
(lp163
(dp164
g15
Nsg16
I00
sg17
I00
sg18
I40
sg19
I00
sg20
S'Nia'
p165
sg22
S'Willow Bow'
p166
sa(dp167
g15
Nsg16
I00
sg17
I00
sg18
I3
sg19
I00
sg20
g165
sg22
S'Vulnerary'
p168
sasg24
(lp169
I50
aI50
aI50
aI50
aI50
aI50
aI50
aI50
asg26
g27
(g28
g29
NtRp170
(dp171
g32
I0
sg33
I13
sbsg34
(lp172
(I13
I0
tp173
a(I4
I0
tp174
a(I2
I0
tp175
a(I5
I0
tp176
a(I5
I0
tp177
a(I3
I0
tp178
a(I2
I0
tp179
a(I1
I0
tp180
a(I4
I0
tp181
a(I5
I0
tp182
asg46
S'0'
sg48
S'Resistance'
p183
sg50
S'A quiet archer most at home in the wilderness.'
p184
sg52
(lp185
sg55
(lp186
(dp187
g58
Nsg59
Nsg60
Nsg61
(lp188
sg63
Nsg64
Nsg22
S'Prescience'
p189
sasg66
(dp190
g68
I0
sg69
I0
sg70
I0
ssg71
I00
sg72
g165
sg73
(lp191
I0
aI0
aI0
aI20
aI0
aI0
aI0
asg75
S'Nia'
p192
sg77
I0
sg78
I3
sg79
S'F'
sg80
I0
sg81
S'Archer'
p193
sg83
I61
sg84
S'player'
p194
sg86
NsasS'convoy'
p195
(lp196
sS'groups'
p197
(dp198
sS'allreinforcements'
p199
(dp200
sS'base_conversations'
p201
(dp202
sS'playtime'
p203
I2778086
sS'message'
p204
(lp205
sS'unlocked_lore'
p206
(lp207
sS'statistics'
p208
(lp209
g27
(cCode.CustomObjects
LevelStatistic
p210
g29
NtRp211
(dp212
S'turncount'
p213
I4
sg34
(dp214
g76
(dp215
S'damage'
p216
I13
sS'kills'
p217
I2
sS'healing'
p218
I0
ssg120
(dp219
g216
I8
sg217
I0
sg218
I7
sssg75
S'Prologue'
p220
sbag27
(g210
g29
NtRp221
(dp222
g213
I4
sg34
(dp223
g76
(dp224
g216
I39
sg217
I4
sg218
I0
ssg157
(dp225
g216
I48
sg217
I1
sg218
I0
ssg192
(dp226
g216
I30
sg217
I2
sg218
I0
ssg120
(dp227
g216
I8
sg217
I2
sg218
I12
sssg75
S'Chapter I'
p228
sbasS'market_items'
p229
c__builtin__
set
p230
((ltRp231
sS'support'
p232
NsS'event_triggers'
p233
(lp234
sS'objective'
p235
NsS'metaDataObj_changes'
p236
(lp237
sS'counters'
p238
(dp239
S'money'
p240
I1500
sS'level'
p241
I2
ssS'map'
p242
NsS'state_list'
p243
((lp244
S'turn_change'
p245
a(ltp246
sS'prefabs'
p247
(lp248
sS'phase_info'
p249
(I0
I1
tp250
sg213
I0
sS'game_constants'
p251
(lp252
s.