(dp1
S'talk_options'
p2
(lp3
sS'allunits'
p4
(lp5
(dp6
S'ai'
p7
S'None'
p8
sS'growths'
p9
(lp10
I105
aI55
aI35
aI75
aI80
aI80
aI40
aI40
asS'dead'
p11
I00
sS'items'
p12
(lp13
(dp14
S'c_uses'
p15
NsS'locked'
p16
I00
sS'droppable'
p17
I00
sS'uses'
p18
I30
sS'event_combat'
p19
I00
sS'owner'
p20
S'Ophie'
p21
sS'id'
p22
S'Iron Sword'
p23
sa(dp24
g15
Nsg16
I00
sg17
I00
sg18
I30
sg19
I00
sg20
g21
sg22
S'Steel Sword'
p25
sa(dp26
g15
Nsg16
I00
sg17
I00
sg18
I3
sg19
I00
sg20
g21
sg22
S'Potion'
p27
sa(dp28
g15
Nsg16
I00
sg17
I00
sg18
I1
sg19
I00
sg20
g21
sg22
S'Angelic Robe'
p29
sasS'growth_points'
p30
(lp31
I65
aI15
aI55
aI75
aI90
aI90
aI70
aI70
asS'currenthp'
p32
ccopy_reg
_reconstructor
p33
(cCode.UnitObject
Stat
p34
c__builtin__
object
p35
NtRp36
(dp37
S'bonuses'
p38
I0
sS'base_stat'
p39
I15
sbsS'stats'
p40
(lp41
(I15
I0
tp42
a(I5
I0
tp43
a(I2
I0
tp44
a(I7
I0
tp45
a(I9
I0
tp46
a(I4
I0
tp47
a(I2
I0
tp48
a(I2
I0
tp49
a(I5
I0
tp50
a(I5
I0
tp51
asS'event_id'
p52
S'Ophie'
p53
sS'faction'
p54
S'Resistance'
p55
sS'desc'
p56
S'A strong-hearted renegade who often acts before he thinks.'
p57
sS'tags'
p58
(lp59
S'Lord'
p60
asS'status_effects'
p61
(lp62
(dp63
S'count'
p64
NsS'time_left'
p65
NsS'upkeep_sc_count'
p66
NsS'children'
p67
(lp68
sS'charge'
p69
NsS'rhythm_sc_count'
p70
Nsg22
S'Riposte'
p71
sasS'records'
p72
(dp73
S'damage'
p74
I0
sS'kills'
p75
I0
sS'healing'
p76
I0
ssS'finished'
p77
I00
sS'u_id'
p78
g21
sS'wexp'
p79
(lp80
I20
aI0
aI0
aI0
aI0
aI0
aI0
asS'name'
p81
S'Ophie'
p82
sS'movement_group'
p83
I0
sS'level'
p84
I4
sS'gender'
p85
S'M'
sS'TRV'
p86
I0
sS'klass'
p87
S'Myrmidon'
p88
sS'exp'
p89
I59
sS'team'
p90
S'player'
p91
sS'position'
p92
Nsa(dp93
g7
S'None'
p94
sg9
(lp95
I65
aI15
aI65
aI40
aI55
aI80
aI25
aI80
asg11
I00
sg12
(lp96
(dp97
g15
Nsg16
I00
sg17
I00
sg18
I21
sg19
I00
sg20
S'Prim'
p98
sg22
S'Heal'
p99
sa(dp100
g15
Nsg16
I00
sg17
I00
sg18
I30
sg19
I00
sg20
g98
sg22
S'Glimmer'
p101
sasg30
(lp102
I15
aI65
aI15
aI90
aI5
aI30
aI75
aI30
asg32
g33
(g34
g35
NtRp103
(dp104
g38
I0
sg39
I12
sbsg40
(lp105
(I12
I0
tp106
a(I0
I0
tp107
a(I3
I0
tp108
a(I3
I0
tp109
a(I6
I0
tp110
a(I5
I0
tp111
a(I1
I0
tp112
a(I5
I0
tp113
a(I3
I0
tp114
a(I5
I0
tp115
asg52
S'Prim'
p116
sg54
S'Resistance'
p117
sg56
S'A shy but kind-hearted young woman. Has an affinity with the spiritual.'
p118
sg58
(lp119
sg61
(lp120
(dp121
g64
Nsg65
Nsg66
Nsg67
(lp122
sg69
Nsg70
Nsg22
S'Healtouch'
p123
sasg72
(dp124
g74
I0
sg75
I0
sg76
I0
ssg77
I00
sg78
g98
sg79
(lp125
I0
aI0
aI0
aI0
aI14
aI0
aI0
asg81
S'Prim'
p126
sg83
I5
sg84
I2
sg85
S'F'
sg86
I0
sg87
S'Mystic'
p127
sg89
I73
sg90
S'player'
p128
sg92
Nsa(dp129
g7
S'None'
p130
sg9
(lp131
I105
aI80
aI5
aI60
aI55
aI45
aI35
aI20
asg11
I00
sg12
(lp132
(dp133
g15
Nsg16
I00
sg17
I00
sg18
I19
sg19
I00
sg20
S'Joel'
p134
sg22
S'Hand Axe'
p135
sa(dp136
g15
Nsg16
I00
sg17
I00
sg18
I34
sg19
I00
sg20
g134
sg22
S'Iron Axe'
p137
sa(dp138
g15
Nsg16
I00
sg17
I00
sg18
I3
sg19
I00
sg20
g134
sg22
S'Vulnerary'
p139
sasg30
(lp140
I55
aI30
aI55
aI10
aI5
aI95
aI85
aI70
asg32
g33
(g34
g35
NtRp141
(dp142
g38
I0
sg39
I22
sbsg40
(lp143
(I22
I0
tp144
a(I6
I0
tp145
a(I0
I0
tp146
a(I4
I0
tp147
a(I5
I0
tp148
a(I3
I0
tp149
a(I3
I0
tp150
a(I0
I0
tp151
a(I7
I0
tp152
a(I5
I0
tp153
asg52
S'0'
sg54
S'Resistance'
p154
sg56
S'A jovial former sailor. Always ready for a new adventure.'
p155
sg58
(lp156
sg61
(lp157
(dp158
g64
Nsg65
Nsg66
Nsg67
(lp159
sg69
I0
sg70
Nsg22
S'Cleave'
p160
sasg72
(dp161
g74
I0
sg75
I0
sg76
I0
ssg77
I00
sg78
g134
sg79
(lp162
I0
aI0
aI27
aI0
aI0
aI0
aI0
asg81
S'Joel'
p163
sg83
I4
sg84
I4
sg85
S'M'
sg86
I0
sg87
S'Fighter'
p164
sg89
I94
sg90
S'player'
p165
sg92
Nsa(dp166
g7
S'None'
p167
sg9
(lp168
I80
aI55
aI35
aI80
aI80
aI25
aI20
aI40
asg11
I00
sg12
(lp169
(dp170
g15
Nsg16
I00
sg17
I00
sg18
I36
sg19
I00
sg20
S'Nia'
p171
sg22
S'Willow Bow'
p172
sa(dp173
g15
Nsg16
I00
sg17
I00
sg18
I3
sg19
I00
sg20
g171
sg22
S'Vulnerary'
p174
sasg30
(lp175
I30
aI5
aI85
aI30
aI30
aI75
aI70
aI90
asg32
g33
(g34
g35
NtRp176
(dp177
g38
I0
sg39
I14
sbsg40
(lp178
(I14
I0
tp179
a(I5
I0
tp180
a(I2
I0
tp181
a(I6
I0
tp182
a(I6
I0
tp183
a(I3
I0
tp184
a(I2
I0
tp185
a(I1
I0
tp186
a(I4
I0
tp187
a(I5
I0
tp188
asg52
S'0'
sg54
S'Resistance'
p189
sg56
S'A quiet archer most at home in the wilderness.'
p190
sg58
(lp191
sg61
(lp192
(dp193
g64
Nsg65
Nsg66
Nsg67
(lp194
sg69
Nsg70
Nsg22
S'Prescience'
p195
sasg72
(dp196
g74
I0
sg75
I0
sg76
I0
ssg77
I00
sg78
g171
sg79
(lp197
I0
aI0
aI0
aI24
aI0
aI0
aI0
asg81
S'Nia'
p198
sg83
I0
sg84
I4
sg85
S'F'
sg86
I0
sg87
S'Archer'
p199
sg89
I24
sg90
S'player'
p200
sg92
Nsa(dp201
g7
S'None'
p202
sg9
(lp203
I60
aI15
aI85
aI40
aI60
aI60
aI20
aI55
asg11
I00
sg12
(lp204
(dp205
g15
Nsg16
I00
sg17
I00
sg18
I22
sg19
I00
sg20
S'Althea'
p206
sg22
S'Fire'
p207
sa(dp208
g15
Nsg16
I00
sg17
I00
sg18
I3
sg19
I00
sg20
g206
sg22
S'Vulnerary'
p209
sa(dp210
g15
Nsg16
I00
sg17
I00
sg18
I3
sg19
I00
sg20
g206
sg22
S'Vulnerary'
p211
sasg30
(lp212
I10
aI65
aI35
aI90
aI10
aI10
aI70
aI5
asg32
g33
(g34
g35
NtRp213
(dp214
g38
I0
sg39
I12
sbsg40
(lp215
(I12
I0
tp216
a(I1
I0
tp217
a(I6
I0
tp218
a(I4
I0
tp219
a(I6
I0
tp220
a(I6
I0
tp221
a(I2
I0
tp222
a(I4
I0
tp223
a(I3
I0
tp224
a(I5
I0
tp225
asg52
S'0'
sg54
S'Resistance'
p226
sg56
S'A forthright but elegant and refined sorceress.'
p227
sg58
(lp228
sg61
(lp229
(dp230
g64
Nsg65
Nsg66
Nsg67
(lp231
sg69
Nsg70
Nsg22
S'Focus'
p232
sasg72
(dp233
g74
I0
sg75
I0
sg76
I0
ssg77
I00
sg78
g206
sg79
(lp234
I0
aI0
aI0
aI0
aI0
aI12
aI0
asg81
S'Althea'
p235
sg83
I5
sg84
I3
sg85
S'F'
sg86
I0
sg87
S'Mage'
p236
sg89
I47
sg90
S'player'
p237
sg92
Nsa(dp238
g7
S'None'
p239
sg9
(lp240
I95
aI65
aI5
aI60
aI60
aI40
aI55
aI40
asg11
I00
sg12
(lp241
(dp242
g15
Nsg16
I00
sg17
I00
sg18
I42
sg19
I00
sg20
S'Drake'
p243
sg22
S'Iron Lance'
p244
sa(dp245
g15
Nsg16
I00
sg17
I00
sg18
I39
sg19
I00
sg20
g243
sg22
S'Iron Sword'
p246
sa(dp247
g15
Nsg16
I00
sg17
I00
sg18
I2
sg19
I00
sg20
g243
sg22
S'Spiritbane'
p248
sasg30
(lp249
I50
aI50
aI50
aI50
aI50
aI50
aI50
aI50
asg32
g33
(g34
g35
NtRp250
(dp251
g38
I0
sg39
I17
sbsg40
(lp252
(I17
I0
tp253
a(I6
I0
tp254
a(I1
I0
tp255
a(I6
I0
tp256
a(I5
I0
tp257
a(I7
I0
tp258
a(I5
I0
tp259
a(I3
I0
tp260
a(I7
I0
tp261
a(I7
I0
tp262
asg52
S'0'
sg54
S'Resistance'
p263
sg56
S"A disgraced Imperial knight now in Althea's service."
p264
sg58
(lp265
sg61
(lp266
(dp267
g64
Nsg65
Nsg66
Nsg67
(lp268
sg69
Nsg70
Nsg22
S'Canto'
p269
sa(dp270
g64
Nsg65
Nsg66
Nsg67
(lp271
sg69
Nsg70
Nsg22
S'Savior'
p272
sasg72
(dp273
g74
I0
sg75
I0
sg76
I0
ssg77
I00
sg78
g243
sg79
(lp274
I14
aI19
aI0
aI0
aI0
aI0
aI0
asg81
S'Drake'
p275
sg83
I2
sg84
I5
sg85
S'M'
sg86
I0
sg87
S'Cavalier'
p276
sg89
I67
sg90
S'player'
p277
sg92
NsasS'convoy'
p278
(lp279
sS'groups'
p280
(dp281
sS'allreinforcements'
p282
(dp283
sS'base_conversations'
p284
(dp285
sS'playtime'
p286
I5547947
sS'message'
p287
(lp288
sS'unlocked_lore'
p289
(lp290
sS'statistics'
p291
(lp292
g33
(cCode.CustomObjects
LevelStatistic
p293
g35
NtRp294
(dp295
S'turncount'
p296
I4
sg40
(dp297
g82
(dp298
S'damage'
p299
I13
sS'kills'
p300
I2
sS'healing'
p301
I0
ssg126
(dp302
g299
I8
sg300
I0
sg301
I7
sssg81
S'Prologue'
p303
sbag33
(g293
g35
NtRp304
(dp305
g296
I4
sg40
(dp306
g82
(dp307
g299
I39
sg300
I4
sg301
I0
ssg163
(dp308
g299
I48
sg300
I1
sg301
I0
ssg198
(dp309
g299
I30
sg300
I2
sg301
I0
ssg126
(dp310
g299
I8
sg300
I2
sg301
I12
sssg81
S'Chapter I'
p311
sbag33
(g293
g35
NtRp312
(dp313
g296
I9
sg40
(dp314
g235
(dp315
S'damage'
p316
I67
sS'kills'
p317
I3
sS'healing'
p318
I0
ssg126
(dp319
S'damage'
p320
I4
sS'kills'
p321
I0
sS'healing'
p322
I43
ssg163
(dp323
g320
I52
sg321
I4
sg322
I0
ssg198
(dp324
g320
I14
sg321
I2
sg322
I0
ssg275
(dp325
g316
I44
sg317
I3
sg318
I0
ssg82
(dp326
g320
I21
sg321
I3
sg322
I0
sssg81
S'Chapter II'
p327
sbasS'market_items'
p328
c__builtin__
set
p329
((ltRp330
sS'support'
p331
NsS'event_triggers'
p332
(lp333
sS'objective'
p334
NsS'metaDataObj_changes'
p335
(lp336
sS'counters'
p337
(dp338
S'money'
p339
I4000
sS'level'
p340
I3
ssS'map'
p341
NsS'state_list'
p342
((lp343
S'turn_change'
p344
a(ltp345
sS'prefabs'
p346
(lp347
sS'phase_info'
p348
(I0
I1
tp349
sg296
I0
sS'game_constants'
p350
(lp351
s.