(dp1
S'talk_options'
p2
(lp3
sS'allunits'
p4
(lp5
(dp6
S'ai'
p7
S'None'
p8
sS'growths'
p9
(lp10
I105
aI55
aI35
aI75
aI80
aI80
aI40
aI40
asS'dead'
p11
I00
sS'items'
p12
(lp13
(dp14
S'c_uses'
p15
NsS'locked'
p16
I00
sS'droppable'
p17
I00
sS'uses'
p18
I24
sS'event_combat'
p19
I00
sS'owner'
p20
S'Ophie'
p21
sS'id'
p22
S'Steel Sword'
p23
sa(dp24
g15
Nsg16
I00
sg17
I00
sg18
I19
sg19
I00
sg20
g21
sg22
S'Iron Sword'
p25
sa(dp26
g15
Nsg16
I00
sg17
I00
sg18
I3
sg19
I00
sg20
g21
sg22
S'Vulnerary'
p27
sa(dp28
g15
Nsg16
I00
sg17
I00
sg18
I44
sg19
I00
sg20
g21
sg22
S'Willow Bow'
p29
sasS'growth_points'
p30
(lp31
I70
aI70
aI90
aI50
aI70
aI70
aI10
aI10
asS'currenthp'
p32
ccopy_reg
_reconstructor
p33
(cCode.UnitObject
Stat
p34
c__builtin__
object
p35
NtRp36
(dp37
S'bonuses'
p38
I0
sS'base_stat'
p39
I16
sbsS'stats'
p40
(lp41
(I16
I0
tp42
a(I5
I0
tp43
a(I2
I0
tp44
a(I8
I0
tp45
a(I10
I0
tp46
a(I5
I0
tp47
a(I3
I0
tp48
a(I3
I0
tp49
a(I5
I0
tp50
a(I5
I0
tp51
asS'event_id'
p52
S'Ophie'
p53
sS'faction'
p54
S'Resistance'
p55
sS'desc'
p56
S'A strong-hearted renegade who often acts before he thinks.'
p57
sS'tags'
p58
(lp59
S'Lord'
p60
asS'status_effects'
p61
(lp62
(dp63
S'count'
p64
NsS'time_left'
p65
NsS'upkeep_sc_count'
p66
NsS'children'
p67
(lp68
sS'charge'
p69
NsS'rhythm_sc_count'
p70
Nsg22
S'Riposte'
p71
sa(dp72
g64
Nsg65
Nsg66
Nsg67
(lp73
sg69
Nsg70
Nsg22
S'Vantage'
p74
sasS'records'
p75
(dp76
S'damage'
p77
I0
sS'kills'
p78
I0
sS'healing'
p79
I0
ssS'finished'
p80
I00
sS'u_id'
p81
g21
sS'wexp'
p82
(lp83
I26
aI0
aI0
aI0
aI0
aI0
aI0
asS'name'
p84
S'Ophie'
p85
sS'movement_group'
p86
I0
sS'level'
p87
I5
sS'gender'
p88
S'M'
sS'TRV'
p89
I0
sS'klass'
p90
S'Myrmidon'
p91
sS'exp'
p92
I87
sS'team'
p93
S'player'
p94
sS'position'
p95
Nsa(dp96
g7
S'None'
p97
sg9
(lp98
I65
aI15
aI65
aI40
aI55
aI80
aI25
aI80
asg11
I00
sg12
(lp99
(dp100
g15
Nsg16
I00
sg17
I00
sg18
I13
sg19
I00
sg20
S'Prim'
p101
sg22
S'Heal'
p102
sa(dp103
g15
Nsg16
I00
sg17
I00
sg18
I26
sg19
I00
sg20
g101
sg22
S'Glimmer'
p104
sasg30
(lp105
I45
aI95
aI45
aI70
aI15
aI90
aI25
aI90
asg32
g33
(g34
g35
NtRp106
(dp107
g38
I0
sg39
I13
sbsg40
(lp108
(I13
I0
tp109
a(I0
I0
tp110
a(I4
I0
tp111
a(I4
I0
tp112
a(I7
I0
tp113
a(I6
I0
tp114
a(I2
I0
tp115
a(I6
I0
tp116
a(I3
I0
tp117
a(I5
I0
tp118
asg52
S'Prim'
p119
sg54
S'Resistance'
p120
sg56
S'A shy but kind-hearted young woman. Has an affinity with the spiritual.'
p121
sg58
(lp122
sg61
(lp123
(dp124
g64
Nsg65
Nsg66
Nsg67
(lp125
sg69
Nsg70
Nsg22
S'Healtouch'
p126
sasg75
(dp127
g77
I0
sg78
I0
sg79
I0
ssg80
I00
sg81
g101
sg82
(lp128
I0
aI0
aI0
aI0
aI25
aI0
aI0
asg84
S'Prim'
p129
sg86
I5
sg87
I4
sg88
S'F'
sg89
I0
sg90
S'Mystic'
p130
sg92
I17
sg93
S'player'
p131
sg95
Nsa(dp132
g7
S'None'
p133
sg9
(lp134
I105
aI80
aI5
aI60
aI55
aI45
aI35
aI20
asg11
I00
sg12
(lp135
(dp136
g15
Nsg16
I00
sg17
I00
sg18
I28
sg19
I00
sg20
S'Joel'
p137
sg22
S'Iron Axe'
p138
sa(dp139
g15
Nsg16
I00
sg17
I00
sg18
I18
sg19
I00
sg20
g137
sg22
S'Hand Axe'
p140
sa(dp141
g15
Nsg16
I00
sg17
I00
sg18
I2
sg19
I00
sg20
g137
sg22
S'Potion'
p142
sasg30
(lp143
I65
aI90
aI65
aI30
aI15
aI85
aI55
aI10
asg32
g33
(g34
g35
NtRp144
(dp145
g38
I0
sg39
I24
sbsg40
(lp146
(I24
I0
tp147
a(I7
I0
tp148
a(I0
I0
tp149
a(I5
I0
tp150
a(I6
I0
tp151
a(I4
I0
tp152
a(I4
I0
tp153
a(I1
I0
tp154
a(I7
I0
tp155
a(I5
I0
tp156
asg52
S'0'
sg54
S'Resistance'
p157
sg56
S'A jovial former sailor. Always ready for a new adventure.'
p158
sg58
(lp159
sg61
(lp160
(dp161
g64
Nsg65
Nsg66
Nsg67
(lp162
sg69
I0
sg70
Nsg22
S'Cleave'
p163
sa(dp164
g64
Nsg65
Nsg66
Nsg67
(lp165
sg69
I0
sg70
Nsg22
S'Shove'
p166
sasg75
(dp167
g77
I0
sg78
I0
sg79
I0
ssg80
I00
sg81
g137
sg82
(lp168
I0
aI0
aI34
aI0
aI0
aI0
aI0
asg84
S'Joel'
p169
sg86
I4
sg87
I6
sg88
S'M'
sg89
I0
sg90
S'Fighter'
p170
sg92
I6
sg93
S'player'
p171
sg95
Nsa(dp172
g7
S'None'
p173
sg9
(lp174
I80
aI55
aI35
aI80
aI80
aI25
aI20
aI40
asg11
I00
sg12
(lp175
(dp176
g15
Nsg16
I00
sg17
I00
sg18
I25
sg19
I00
sg20
S'Nia'
p177
sg22
S'Willow Bow'
p178
sa(dp179
g15
Nsg16
I00
sg17
I00
sg18
I3
sg19
I00
sg20
g177
sg22
S'Vulnerary'
p180
sa(dp181
g15
Nsg16
I00
sg17
I00
sg18
I1
sg19
I00
sg20
g177
sg22
S'Mana Ring'
p182
sasg30
(lp183
I10
aI60
aI20
aI10
aI10
aI0
aI90
aI30
asg32
g33
(g34
g35
NtRp184
(dp185
g38
I0
sg39
I15
sbsg40
(lp186
(I15
I0
tp187
a(I5
I0
tp188
a(I3
I0
tp189
a(I7
I0
tp190
a(I7
I0
tp191
a(I4
I0
tp192
a(I2
I0
tp193
a(I2
I0
tp194
a(I4
I0
tp195
a(I5
I0
tp196
asg52
S'0'
sg54
S'Resistance'
p197
sg56
S'A quiet archer most at home in the wilderness.'
p198
sg58
(lp199
sg61
(lp200
(dp201
g64
Nsg65
Nsg66
Nsg67
(lp202
sg69
Nsg70
Nsg22
S'Prescience'
p203
sa(dp204
g64
Nsg65
Nsg66
Nsg67
(lp205
sg69
I0
sg70
Nsg22
S'Critical'
p206
sasg75
(dp207
g77
I0
sg78
I0
sg79
I0
ssg80
I00
sg81
g177
sg82
(lp208
I0
aI0
aI0
aI30
aI0
aI0
aI0
asg84
S'Nia'
p209
sg86
I0
sg87
I5
sg88
S'F'
sg89
I0
sg90
S'Archer'
p210
sg92
I36
sg93
S'player'
p211
sg95
Nsa(dp212
g7
S'None'
p213
sg9
(lp214
I60
aI15
aI85
aI40
aI60
aI60
aI20
aI55
asg11
I00
sg12
(lp215
(dp216
g15
Nsg16
I00
sg17
I00
sg18
I16
sg19
I00
sg20
S'Althea'
p217
sg22
S'Fire'
p218
sa(dp219
g15
Nsg16
I00
sg17
I00
sg18
I3
sg19
I00
sg20
g217
sg22
S'Vulnerary'
p220
sa(dp221
g15
Nsg16
I00
sg17
I00
sg18
I29
sg19
I00
sg20
g217
sg22
S'Steel Axe'
p222
sa(dp223
g15
Nsg16
I00
sg17
I00
sg18
I29
sg19
I00
sg20
g217
sg22
S'Steel Sword'
p224
sasg30
(lp225
I30
aI95
aI5
aI70
aI30
aI30
aI10
aI15
asg32
g33
(g34
g35
NtRp226
(dp227
g38
I5
sg39
I13
sbsg40
(lp228
(I13
I5
tp229
a(I1
I0
tp230
a(I8
I0
tp231
a(I5
I0
tp232
a(I7
I0
tp233
a(I7
I0
tp234
a(I3
I0
tp235
a(I5
I0
tp236
a(I3
I0
tp237
a(I5
I0
tp238
asg52
S'0'
sg54
S'Resistance'
p239
sg56
S'A forthright but elegant and refined sorceress.'
p240
sg58
(lp241
sg61
(lp242
(dp243
g64
Nsg65
Nsg66
Nsg67
(lp244
sg69
Nsg70
Nsg22
S'Focus'
p245
sa(dp246
g64
Nsg65
Nsg66
Nsg67
(lp247
sg69
Nsg70
Nsg22
S'fMaximum HP +5'
p248
sasg75
(dp249
g77
I0
sg78
I0
sg79
I0
ssg80
I00
sg81
g217
sg82
(lp250
I0
aI0
aI0
aI0
aI0
aI17
aI0
asg84
S'Althea'
p251
sg86
I5
sg87
I5
sg88
S'F'
sg89
I0
sg90
S'Mage'
p252
sg92
I19
sg93
S'player'
p253
sg95
Nsa(dp254
g7
S'None'
p255
sg9
(lp256
I95
aI65
aI5
aI60
aI60
aI40
aI55
aI40
asg11
I00
sg12
(lp257
(dp258
g15
Nsg16
I00
sg17
I00
sg18
I42
sg19
I00
sg20
S'Drake'
p259
sg22
S'Iron Sword'
p260
sa(dp261
g15
Nsg16
I00
sg17
I00
sg18
I40
sg19
I00
sg20
g259
sg22
S'Iron Lance'
p262
sa(dp263
g15
Nsg16
I00
sg17
I00
sg18
I1
sg19
I00
sg20
g259
sg22
S'Vulnerary'
p264
sasg30
(lp265
I45
aI15
aI55
aI10
aI10
aI90
aI5
aI90
asg32
g33
(g34
g35
NtRp266
(dp267
g38
I0
sg39
I18
sbsg40
(lp268
(I18
I0
tp269
a(I7
I0
tp270
a(I1
I0
tp271
a(I7
I0
tp272
a(I6
I0
tp273
a(I7
I0
tp274
a(I6
I0
tp275
a(I3
I0
tp276
a(I7
I0
tp277
a(I7
I0
tp278
asg52
S'0'
sg54
S'Resistance'
p279
sg56
S"A disgraced Imperial knight now in Althea's service."
p280
sg58
(lp281
sg61
(lp282
(dp283
g64
Nsg65
Nsg66
Nsg67
(lp284
sg69
Nsg70
Nsg22
S'Canto'
p285
sa(dp286
g64
Nsg65
Nsg66
Nsg67
(lp287
sg69
Nsg70
Nsg22
S'Savior'
p288
sasg75
(dp289
g77
I0
sg78
I0
sg79
I0
ssg80
I00
sg81
g259
sg82
(lp290
I16
aI21
aI0
aI0
aI0
aI0
aI0
asg84
S'Drake'
p291
sg86
I2
sg87
I6
sg88
S'M'
sg89
I0
sg90
S'Cavalier'
p292
sg92
I17
sg93
S'player'
p293
sg95
Nsa(dp294
g7
S'None'
p295
sg9
(lp296
I95
aI40
aI20
aI55
aI95
aI65
aI35
aI55
asg11
I00
sg12
(lp297
(dp298
g15
Nsg16
I00
sg17
I00
sg18
I40
sg19
I00
sg20
S'Renae'
p299
sg22
S'Iron Sword'
p300
sa(dp301
g15
Nsg16
I00
sg17
I00
sg18
I20
sg19
I00
sg20
g299
sg22
S'Iron Knife'
p302
sa(dp303
g15
Nsg16
I00
sg17
I00
sg18
I2
sg19
I00
sg20
g299
sg22
S'Vulnerary'
p304
sasg30
(lp305
I50
aI50
aI50
aI50
aI50
aI50
aI50
aI50
asg32
g33
(g34
g35
NtRp306
(dp307
g38
I0
sg39
I13
sbsg40
(lp308
(I13
I0
tp309
a(I3
I0
tp310
a(I3
I0
tp311
a(I5
I0
tp312
a(I9
I0
tp313
a(I3
I0
tp314
a(I2
I0
tp315
a(I3
I0
tp316
a(I4
I0
tp317
a(I6
I0
tp318
asg52
S'0'
sg54
S'Kerala'
p319
sg56
S'An energetic thief with a kleptomanic streak.'
p320
sg58
(lp321
sg61
(lp322
(dp323
g64
Nsg65
Nsg66
Nsg67
(lp324
sg69
Nsg70
Nsg22
S'Locktouch'
p325
sasg75
(dp326
g77
I0
sg78
I0
sg79
I0
ssg80
I00
sg81
g299
sg82
(lp327
I20
aI0
aI0
aI0
aI0
aI0
aI0
asg84
S'Renae'
p328
sg86
I0
sg87
I4
sg88
S'F'
sg89
I0
sg90
S'Thief'
p329
sg92
I98
sg93
S'player'
p330
sg95
Nsa(dp331
g7
S'None'
p332
sg9
(lp333
I120
aI55
aI25
aI40
aI40
aI45
aI75
aI40
asg11
I00
sg12
(lp334
(dp335
g15
Nsg16
I00
sg17
I00
sg18
I36
sg19
I00
sg20
S'Theo'
p336
sg22
S'Iron Lance'
p337
sa(dp338
g15
Nsg16
I00
sg17
I00
sg18
I1
sg19
I00
sg20
g336
sg22
S'Vulnerary'
p339
sasg30
(lp340
I70
aI5
aI75
aI90
aI90
aI95
aI25
aI90
asg32
g33
(g34
g35
NtRp341
(dp342
g38
I0
sg39
I19
sbsg40
(lp343
(I19
I0
tp344
a(I10
I0
tp345
a(I0
I0
tp346
a(I7
I0
tp347
a(I3
I0
tp348
a(I3
I0
tp349
a(I9
I0
tp350
a(I2
I0
tp351
a(I8
I0
tp352
a(I4
I0
tp353
asg52
S'0'
sg54
S'Resistance'
p354
sg56
S'An avid scholar. Interested in esoteric philosophy.'
p355
sg58
(lp356
sg61
(lp357
(dp358
g64
Nsg65
Nsg66
Nsg67
(lp359
sg69
Nsg70
Nsg22
S'Provoke'
p360
sa(dp361
g64
Nsg65
Nsg66
Nsg67
(lp362
sg69
I0
sg70
Nsg22
S'Shove'
p363
sasg75
(dp364
g77
I0
sg78
I0
sg79
I0
ssg80
I00
sg81
g336
sg82
(lp365
I0
aI25
aI0
aI0
aI0
aI0
aI0
asg84
S'Theo'
p366
sg86
I1
sg87
I5
sg88
S'M'
sg89
I0
sg90
S'Knight'
p367
sg92
I37
sg93
S'player'
p368
sg95
NsasS'convoy'
p369
(lp370
(dp371
g15
Nsg16
I00
sg17
I00
sg18
I2
sg19
I00
sg20
I0
sg22
S'Spiritbane'
p372
sa(dp373
g15
Nsg16
I00
sg17
I00
sg18
I1
sg19
I00
sg20
I0
sg22
S'Secret Book'
p374
sa(dp375
g15
Nsg16
I00
sg17
I00
sg18
I1
sg19
I00
sg20
I0
sg22
S'Angelic Robe'
p376
sasS'groups'
p377
(dp378
sS'allreinforcements'
p379
(dp380
sS'base_conversations'
p381
(dp382
sS'playtime'
p383
I11079084
sS'message'
p384
(lp385
sS'unlocked_lore'
p386
(lp387
S'Sam'
p388
aS'Joel'
p389
aS'Prim'
p390
aS'Ophie'
p391
aS'Althea'
p392
aS'Drake'
p393
aS'Nia'
p394
aS'Renae'
p395
aS'Theo'
p396
aS'Kerala'
p397
aS'Empire'
p398
aS'Eliza'
p399
aS'Podoma'
p400
aS'Rajas'
p401
aS'Ulver'
p402
aS'Vagnius'
p403
asS'statistics'
p404
(lp405
g33
(cCode.CustomObjects
LevelStatistic
p406
g35
NtRp407
(dp408
S'turncount'
p409
I4
sg40
(dp410
g85
(dp411
S'damage'
p412
I13
sS'kills'
p413
I2
sS'healing'
p414
I0
ssg129
(dp415
g412
I8
sg413
I0
sg414
I7
sssg84
S'Prologue'
p416
sbag33
(g406
g35
NtRp417
(dp418
g409
I4
sg40
(dp419
g85
(dp420
g412
I39
sg413
I4
sg414
I0
ssg169
(dp421
g412
I48
sg413
I1
sg414
I0
ssg209
(dp422
g412
I30
sg413
I2
sg414
I0
ssg129
(dp423
g412
I8
sg413
I2
sg414
I12
sssg84
S'Chapter I'
p424
sbag33
(g406
g35
NtRp425
(dp426
g409
I9
sg40
(dp427
g251
(dp428
S'damage'
p429
I67
sS'kills'
p430
I3
sS'healing'
p431
I0
ssg129
(dp432
S'damage'
p433
I4
sS'kills'
p434
I0
sS'healing'
p435
I43
ssg169
(dp436
g433
I52
sg434
I4
sg435
I0
ssg209
(dp437
g433
I14
sg434
I2
sg435
I0
ssg291
(dp438
g429
I44
sg430
I3
sg431
I0
ssg85
(dp439
g433
I21
sg434
I3
sg435
I0
sssg84
S'Chapter II'
p440
sbag33
(g406
g35
NtRp441
(dp442
g409
I15
sg40
(dp443
g366
(dp444
S'damage'
p445
I81
sS'kills'
p446
I1
sS'healing'
p447
I0
ssg251
(dp448
S'damage'
p449
I45
sS'kills'
p450
I5
sS'healing'
p451
I0
ssg129
(dp452
g449
I16
sg450
I0
sg451
I61
ssg169
(dp453
g449
I64
sg450
I3
sg451
I0
ssg209
(dp454
g449
I58
sg450
I3
sg451
I0
ssg328
(dp455
g445
I8
sg446
I3
sg447
I0
ssg291
(dp456
g449
I35
sg450
I2
sg451
I0
ssg85
(dp457
g449
I70
sg450
I6
sg451
I0
sssg84
S'Chapter III'
p458
sbasS'market_items'
p459
c__builtin__
set
p460
((lp461
S'Iron Lance'
p462
aS'Fire'
p463
aS'Heal'
p464
aS'Willow Bow'
p465
aS'Glimmer'
p466
aS'Vulnerary'
p467
aS'Iron Axe'
p468
aS'Iron Sword'
p469
atRp470
sS'support'
p471
NsS'event_triggers'
p472
(lp473
sS'objective'
p474
NsS'metaDataObj_changes'
p475
(lp476
sS'counters'
p477
(dp478
S'switches'
p479
I3
sS'money'
p480
I13000
sS'level'
p481
I4
ssS'map'
p482
NsS'state_list'
p483
((lp484
S'turn_change'
p485
a(ltp486
sS'prefabs'
p487
(lp488
sS'phase_info'
p489
(I0
I1
tp490
sg409
I0
sS'game_constants'
p491
(lp492
S'Convoy'
p493
as.