(dp1
S'talk_options'
p2
(lp3
sS'allunits'
p4
(lp5
(dp6
S'ai'
p7
S'None'
p8
sS'growths'
p9
(lp10
I105
aI55
aI35
aI75
aI80
aI80
aI40
aI40
asS'dead'
p11
I00
sS'items'
p12
(lp13
(dp14
S'c_uses'
p15
NsS'locked'
p16
I00
sS'droppable'
p17
I00
sS'uses'
p18
I33
sS'event_combat'
p19
I00
sS'owner'
p20
S'Ophie'
p21
sS'id'
p22
S'Iron Sword'
p23
sa(dp24
g15
Nsg16
I00
sg17
I00
sg18
I23
sg19
I00
sg20
g21
sg22
S'Steel Sword'
p25
sa(dp26
g15
Nsg16
I00
sg17
I00
sg18
I11
sg19
I00
sg20
g21
sg22
S'Steel Knife'
p27
sa(dp28
g15
Nsg16
I00
sg17
I00
sg18
I24
sg19
I00
sg20
g21
sg22
S'Great Lance'
p29
sa(dp30
g15
Nsg16
I00
sg17
I00
sg18
I2
sg19
I00
sg20
g21
sg22
S'Potion'
p31
sasS'growth_points'
p32
(lp33
I85
aI35
aI95
aI75
aI10
aI10
aI30
aI30
asS'currenthp'
p34
ccopy_reg
_reconstructor
p35
(cCode.UnitObject
Stat
p36
c__builtin__
object
p37
NtRp38
(dp39
S'bonuses'
p40
I0
sS'base_stat'
p41
I26
sbsS'stats'
p42
(lp43
(I26
I0
tp44
a(I11
I2
tp45
a(I4
I0
tp46
a(I12
I0
tp47
a(I15
I0
tp48
a(I10
I0
tp49
a(I7
I0
tp50
a(I6
I0
tp51
a(I7
I0
tp52
a(I6
I0
tp53
asS'event_id'
p54
S'Ophie'
p55
sS'faction'
p56
S'Resistance'
p57
sS'desc'
p58
S'A strong-hearted renegade who often acts before he thinks.'
p59
sS'tags'
p60
(lp61
S'Lord'
p62
asS'status_effects'
p63
(lp64
(dp65
S'count'
p66
NsS'time_left'
p67
NsS'upkeep_sc_count'
p68
NsS'children'
p69
(lp70
sS'parent_id'
p71
NsS'charge'
p72
NsS'rhythm_sc_count'
p73
Nsg22
S'Riposte'
p74
sa(dp75
g66
Nsg67
Nsg68
Nsg69
(lp76
sg71
Nsg72
Nsg73
Nsg22
S'Vantage'
p77
sa(dp78
g66
Nsg67
Nsg68
Nsg69
(lp79
sg71
Nsg72
Nsg73
Nsg22
S'fStrength +2'
p80
sasS'records'
p81
(dp82
S'damage'
p83
I0
sS'kills'
p84
I0
sS'healing'
p85
I0
ssS'finished'
p86
I00
sS'u_id'
p87
g21
sS'wexp'
p88
(lp89
I60
aI0
aI0
aI0
aI0
aI0
aI0
asS'name'
p90
S'Ophie'
p91
sS'movement_group'
p92
I0
sS'level'
p93
I11
sS'gender'
p94
S'M'
sS'TRV'
p95
I0
sS'klass'
p96
S'Swordmaster'
p97
sS'exp'
p98
I64
sS'team'
p99
S'player'
p100
sS'position'
p101
Nsa(dp102
g7
S'None'
p103
sg9
(lp104
I65
aI15
aI65
aI40
aI55
aI80
aI25
aI80
asg11
I00
sg12
(lp105
(dp106
g15
Nsg16
I00
sg17
I00
sg18
I6
sg19
I00
sg20
S'Prim'
p107
sg22
S'Shine'
p108
sa(dp109
g15
Nsg16
I00
sg17
I00
sg18
I6
sg19
I00
sg20
g107
sg22
S'Mend'
p110
sa(dp111
g15
Nsg16
I00
sg17
I00
sg18
I5
sg19
I00
sg20
g107
sg22
S'Rescue'
p112
sa(dp113
g15
Nsg16
I00
sg17
I00
sg18
I10
sg19
I00
sg20
g107
sg22
S'Fortune'
p114
sa(dp115
g15
Nsg16
I00
sg17
I00
sg18
I15
sg19
I00
sg20
g107
sg22
S'Physic'
p116
sasg32
(lp117
I40
aI40
aI40
aI90
aI80
aI30
aI0
aI30
asg34
g35
(g36
g37
NtRp118
(dp119
g40
I5
sg41
I16
sbsg42
(lp120
(I16
I5
tp121
a(I1
I0
tp122
a(I6
I0
tp123
a(I5
I0
tp124
a(I8
I0
tp125
a(I10
I0
tp126
a(I3
I0
tp127
a(I10
I0
tp128
a(I3
I0
tp129
a(I5
I0
tp130
asg54
S'Prim'
p131
sg56
S'Resistance'
p132
sg58
S'A shy but kind-hearted young woman. Has an affinity with the spiritual.'
p133
sg60
(lp134
sg63
(lp135
(dp136
g66
Nsg67
Nsg68
Nsg69
(lp137
sg71
Nsg72
Nsg73
Nsg22
S'Healtouch'
p138
sa(dp139
g66
I1
sg67
Nsg68
Nsg69
(lp140
sg71
Nsg72
Nsg73
Nsg22
S'Miracle'
p141
sa(dp142
g66
Nsg67
Nsg68
Nsg69
(lp143
sg71
Nsg72
Nsg73
Nsg22
S'fMaximum HP +5'
p144
sasg81
(dp145
g83
I0
sg84
I0
sg85
I0
ssg86
I00
sg87
g107
sg88
(lp146
I0
aI0
aI0
aI0
aI57
aI0
aI0
asg90
S'Prim'
p147
sg92
I5
sg93
I8
sg94
S'F'
sg95
I0
sg96
S'Mystic'
p148
sg98
I37
sg99
S'player'
p149
sg101
Nsa(dp150
g7
S'None'
p151
sg9
(lp152
I105
aI80
aI5
aI60
aI55
aI45
aI35
aI20
asg11
I01
sg12
(lp153
(dp154
g15
Nsg16
I00
sg17
I00
sg18
I27
sg19
I00
sg20
S'Joel'
p155
sg22
S'Iron Axe'
p156
sa(dp157
g15
Nsg16
I00
sg17
I00
sg18
I12
sg19
I00
sg20
g155
sg22
S'Hand Axe'
p158
sasg32
(lp159
I75
aI50
aI75
aI50
aI25
aI75
aI25
aI50
asg34
g35
(g36
g37
NtRp160
(dp161
g40
I0
sg41
I27
sbsg42
(lp162
(I27
I0
tp163
a(I10
I0
tp164
a(I0
I0
tp165
a(I7
I3
tp166
a(I7
I0
tp167
a(I5
I0
tp168
a(I6
I0
tp169
a(I1
I0
tp170
a(I7
I0
tp171
a(I5
I0
tp172
asg54
S'0'
sg56
S'Resistance'
p173
sg58
S'A jovial former sailor. Always ready for a new adventure.'
p174
sg60
(lp175
sg63
(lp176
(dp177
g66
Nsg67
Nsg68
Nsg69
(lp178
sg71
Nsg72
I0
sg73
Nsg22
S'Cleave'
p179
sa(dp180
g66
Nsg67
Nsg68
Nsg69
(lp181
sg71
Nsg72
I0
sg73
Nsg22
S'Shove'
p182
sa(dp183
g66
Nsg67
Nsg68
Nsg69
(lp184
sg71
Nsg72
Nsg73
Nsg22
S'fSkill +3'
p185
sasg81
(dp186
g83
I0
sg84
I0
sg85
I0
ssg86
I00
sg87
g155
sg88
(lp187
I0
aI0
aI57
aI0
aI0
aI0
aI0
asg90
S'Joel'
p188
sg92
I4
sg93
I9
sg94
S'M'
sg95
I0
sg96
S'Fighter'
p189
sg98
I67
sg99
S'player'
p190
sg101
Nsa(dp191
g7
S'None'
p192
sg9
(lp193
I80
aI55
aI35
aI80
aI80
aI25
aI20
aI40
asg11
I00
sg12
(lp194
(dp195
g15
Nsg16
I00
sg17
I00
sg18
I32
sg19
I00
sg20
S'Nia'
p196
sg22
S'Willow Bow'
p197
sa(dp198
g15
Nsg16
I00
sg17
I00
sg18
I26
sg19
I00
sg20
g196
sg22
S'Oak Bow'
p199
sa(dp200
g15
Nsg16
I00
sg17
I00
sg18
I16
sg19
I00
sg20
g196
sg22
S'Longbow'
p201
sa(dp202
g15
Nsg16
I00
sg17
I00
sg18
I3
sg19
I00
sg20
g196
sg22
S'Vulnerary'
p203
sasg32
(lp204
I30
aI80
aI60
aI30
aI30
aI0
aI70
aI90
asg34
g35
(g36
g37
NtRp205
(dp206
g40
I5
sg41
I19
sbsg42
(lp207
(I19
I5
tp208
a(I7
I0
tp209
a(I4
I0
tp210
a(I11
I0
tp211
a(I11
I0
tp212
a(I5
I0
tp213
a(I3
I0
tp214
a(I4
I0
tp215
a(I4
I0
tp216
a(I5
I0
tp217
asg54
S'0'
sg56
S'Resistance'
p218
sg58
S'A quiet archer most at home in the wilderness.'
p219
sg60
(lp220
sg63
(lp221
(dp222
g66
Nsg67
Nsg68
Nsg69
(lp223
sg71
Nsg72
Nsg73
Nsg22
S'Prescience'
p224
sa(dp225
g66
Nsg67
Nsg68
Nsg69
(lp226
sg71
Nsg72
I0
sg73
Nsg22
S'Critical'
p227
sa(dp228
g66
Nsg67
Nsg68
Nsg69
(lp229
sg71
Nsg72
Nsg73
Nsg22
g144
sasg81
(dp230
g83
I0
sg84
I0
sg85
I0
ssg86
I00
sg87
g196
sg88
(lp231
I0
aI0
aI0
aI54
aI0
aI0
aI0
asg90
S'Nia'
p232
sg92
I0
sg93
I10
sg94
S'F'
sg95
I0
sg96
S'Archer'
p233
sg98
I39
sg99
S'player'
p234
sg101
Nsa(dp235
g7
S'None'
p236
sg9
(lp237
I60
aI15
aI85
aI40
aI60
aI60
aI20
aI55
asg11
I00
sg12
(lp238
(dp239
g15
Nsg16
I00
sg17
I00
sg18
I4
sg19
I00
sg20
S'Althea'
p240
sg22
S'Wyrmsfire'
p241
sa(dp242
g15
Nsg16
I00
sg17
I00
sg18
I27
sg19
I00
sg20
g240
sg22
S'Wind'
p243
sa(dp244
g15
Nsg16
I00
sg17
I00
sg18
I3
sg19
I00
sg20
g240
sg22
S'Vulnerary'
p245
sa(dp246
g15
Nsg16
I00
sg17
I00
sg18
I1
sg19
I00
sg20
g240
sg22
S'Skeleton Key'
p247
sasg32
(lp248
I50
aI25
aI75
aI50
aI50
aI50
aI50
aI25
asg34
g35
(g36
g37
NtRp249
(dp250
g40
I5
sg41
I19
sbsg42
(lp251
(I19
I5
tp252
a(I2
I0
tp253
a(I13
I2
tp254
a(I7
I0
tp255
a(I11
I0
tp256
a(I11
I0
tp257
a(I7
I0
tp258
a(I10
I0
tp259
a(I4
I0
tp260
a(I6
I0
tp261
asg54
S'0'
sg56
S'Resistance'
p262
sg58
S'A forthright but elegant and refined sorceress.'
p263
sg60
(lp264
sg63
(lp265
(dp266
g66
Nsg67
Nsg68
Nsg69
(lp267
sg71
Nsg72
Nsg73
Nsg22
S'Focus'
p268
sa(dp269
g66
Nsg67
Nsg68
Nsg69
(lp270
sg71
Nsg72
Nsg73
Nsg22
S'fMaximum HP +5'
p271
sa(dp272
g66
Nsg67
Nsg68
Nsg69
(lp273
sg71
Nsg72
Nsg73
Nsg22
S'fMagic +2'
p274
sasg81
(dp275
g83
I0
sg84
I0
sg85
I0
ssg86
I00
sg87
g240
sg88
(lp276
I0
aI0
aI0
aI0
aI0
aI53
aI0
asg90
S'Althea'
p277
sg92
I5
sg93
I11
sg94
S'F'
sg95
I0
sg96
S'Sage'
p278
sg98
I39
sg99
S'player'
p279
sg101
Nsa(dp280
g7
S'None'
p281
sg9
(lp282
I95
aI65
aI5
aI60
aI60
aI40
aI55
aI40
asg11
I00
sg12
(lp283
(dp284
g15
Nsg16
I00
sg17
I00
sg18
I15
sg19
I00
sg20
S'Drake'
p285
sg22
S'Iron Knife'
p286
sa(dp287
g15
Nsg16
I00
sg17
I00
sg18
I14
sg19
I00
sg20
g285
sg22
S'Javelin'
p288
sa(dp289
g15
Nsg16
I00
sg17
I00
sg18
I41
sg19
I00
sg20
g285
sg22
S'Iron Lance'
p290
sa(dp291
g15
Nsg16
I00
sg17
I00
sg18
I30
sg19
I00
sg20
g285
sg22
S'Steel Lance'
p292
sa(dp293
g15
Nsg16
I00
sg17
I00
sg18
I2
sg19
I00
sg20
g285
sg22
S'Vulnerary'
p294
sasg32
(lp295
I40
aI80
aI60
aI70
aI70
aI30
aI60
aI30
asg34
g35
(g36
g37
NtRp296
(dp297
g40
I5
sg41
I20
sbsg42
(lp298
(I20
I5
tp299
a(I7
I0
tp300
a(I1
I0
tp301
a(I7
I0
tp302
a(I7
I0
tp303
a(I8
I0
tp304
a(I7
I0
tp305
a(I4
I0
tp306
a(I7
I0
tp307
a(I7
I0
tp308
asg54
S'0'
sg56
S'Resistance'
p309
sg58
S"A disgraced Imperial knight now in Althea's service."
p310
sg60
(lp311
sg63
(lp312
(dp313
g66
Nsg67
Nsg68
Nsg69
(lp314
sg71
Nsg72
Nsg73
Nsg22
S'Canto'
p315
sa(dp316
g66
Nsg67
Nsg68
Nsg69
(lp317
sg71
Nsg72
Nsg73
Nsg22
S'Savior'
p318
sa(dp319
g66
Nsg67
Nsg68
Nsg69
(lp320
sg71
Nsg72
Nsg73
Nsg22
g144
sasg81
(dp321
g83
I0
sg84
I0
sg85
I0
ssg86
I00
sg87
g285
sg88
(lp322
I26
aI27
aI0
aI0
aI0
aI0
aI0
asg90
S'Drake'
p323
sg92
I2
sg93
I8
sg94
S'M'
sg95
I0
sg96
S'Cavalier'
p324
sg98
I66
sg99
S'player'
p325
sg101
Nsa(dp326
g7
S'None'
p327
sg9
(lp328
I95
aI40
aI60
aI55
aI95
aI65
aI35
aI55
asg11
I00
sg12
(lp329
(dp330
g15
Nsg16
I00
sg17
I00
sg18
I14
sg19
I00
sg20
S'Renae'
p331
sg22
S'Levin Sword'
p332
sa(dp333
g15
Nsg16
I00
sg17
I00
sg18
I28
sg19
I00
sg20
g331
sg22
S'Steel Sword'
p334
sa(dp335
g15
Nsg16
I00
sg17
I00
sg18
I35
sg19
I00
sg20
g331
sg22
S'Iron Sword'
p336
sa(dp337
g15
Nsg16
I00
sg17
I00
sg18
I2
sg19
I00
sg20
g331
sg22
S'Vulnerary'
p338
sasg32
(lp339
I40
aI30
aI70
aI60
aI40
aI80
aI20
aI60
asg34
g35
(g36
g37
NtRp340
(dp341
g40
I5
sg41
I17
sbsg42
(lp342
(I17
I5
tp343
a(I6
I0
tp344
a(I5
I0
tp345
a(I6
I0
tp346
a(I13
I0
tp347
a(I6
I0
tp348
a(I5
I0
tp349
a(I4
I0
tp350
a(I4
I0
tp351
a(I6
I0
tp352
asg54
S'0'
sg56
S'Kerala'
p353
sg58
S'An energetic thief with a kleptomanic streak.'
p354
sg60
(lp355
sg63
(lp356
(dp357
g66
Nsg67
Nsg68
Nsg69
(lp358
sg71
Nsg72
Nsg73
Nsg22
S'Locktouch'
p359
sa(dp360
g66
Nsg67
Nsg68
Nsg69
(lp361
sg71
Nsg72
Nsg73
Nsg22
S'Steal'
p362
sa(dp363
g66
Nsg67
Nsg68
Nsg69
(lp364
sg71
Nsg72
Nsg73
Nsg22
S'fMaximum HP +5'
p365
sasg81
(dp366
g83
I0
sg84
I0
sg85
I0
ssg86
I00
sg87
g331
sg88
(lp367
I40
aI0
aI0
aI0
aI0
aI0
aI0
asg90
S'Renae'
p368
sg92
I0
sg93
I8
sg94
S'F'
sg95
I0
sg96
S'Thief'
p369
sg98
I85
sg99
S'player'
p370
sg101
Nsa(dp371
g7
S'None'
p372
sg9
(lp373
I120
aI55
aI25
aI40
aI40
aI45
aI75
aI40
asg11
I00
sg12
(lp374
(dp375
g15
Nsg16
I00
sg17
I00
sg18
I37
sg19
I00
sg20
S'Theo'
p376
sg22
S'Iron Lance'
p377
sa(dp378
g15
Nsg16
I00
sg17
I00
sg18
I19
sg19
I00
sg20
g376
sg22
S'Javelin'
p379
sa(dp380
g15
Nsg16
I00
sg17
I00
sg18
I3
sg19
I00
sg20
g376
sg22
S'Vulnerary'
p381
sasg32
(lp382
I10
aI15
aI25
aI70
aI70
aI85
aI75
aI70
asg34
g35
(g36
g37
NtRp383
(dp384
g40
I0
sg41
I24
sbsg42
(lp385
(I24
I0
tp386
a(I12
I0
tp387
a(I1
I0
tp388
a(I9
I0
tp389
a(I4
I0
tp390
a(I6
I0
tp391
a(I11
I0
tp392
a(I3
I0
tp393
a(I8
I0
tp394
a(I4
I1
tp395
asg54
S'0'
sg56
S'Resistance'
p396
sg58
S'An avid scholar. Interested in esoteric philosophy.'
p397
sg60
(lp398
sg63
(lp399
(dp400
g66
Nsg67
Nsg68
Nsg69
(lp401
sg71
Nsg72
Nsg73
Nsg22
S'Provoke'
p402
sa(dp403
g66
Nsg67
Nsg68
Nsg69
(lp404
sg71
Nsg72
I0
sg73
Nsg22
S'Shove'
p405
sa(dp406
g66
Nsg67
Nsg68
Nsg69
(lp407
sg71
Nsg72
Nsg73
Nsg22
S'fMovement +1'
p408
sasg81
(dp409
g83
I0
sg84
I0
sg85
I0
ssg86
I00
sg87
g376
sg88
(lp410
I0
aI44
aI0
aI0
aI0
aI0
aI0
asg90
S'Theo'
p411
sg92
I1
sg93
I9
sg94
S'M'
sg95
I0
sg96
S'Knight'
p412
sg98
I59
sg99
S'player'
p413
sg101
Nsa(dp414
g7
S'None'
p415
sg9
(lp416
I75
aI65
aI65
aI80
aI65
aI35
aI65
aI35
asg11
I00
sg12
(lp417
(dp418
g15
Nsg16
I00
sg17
I00
sg18
I15
sg19
I00
sg20
S'Eliza'
p419
sg22
S'Iron Lance'
p420
sa(dp421
g15
Nsg16
I00
sg17
I00
sg18
I20
sg19
I00
sg20
g419
sg22
S'Slim Lance'
p422
sa(dp423
g15
Nsg16
I00
sg17
I00
sg18
I12
sg19
I00
sg20
g419
sg22
S'Short Spear'
p424
sa(dp425
g15
Nsg16
I00
sg17
I00
sg18
I1
sg19
I00
sg20
g419
sg22
S'Vulnerary'
p426
sa(dp427
g15
Nsg16
I00
sg17
I00
sg18
Nsg19
I00
sg20
g419
sg22
S"Prim's Charm"
p428
sasg32
(lp429
I0
aI40
aI40
aI30
aI40
aI60
aI40
aI60
asg34
g35
(g36
g37
NtRp430
(dp431
g40
I0
sg41
I19
sbsg42
(lp432
(I19
I0
tp433
a(I8
I0
tp434
a(I5
I0
tp435
a(I10
I0
tp436
a(I11
I2
tp437
a(I5
I0
tp438
a(I8
I2
tp439
a(I4
I0
tp440
a(I5
I0
tp441
a(I5
I0
tp442
asg54
S'0'
sg56
S'Resistance'
p443
sg58
S'A moody, sarcastic soldier.'
p444
sg60
(lp445
sg63
(lp446
(dp447
g66
Nsg67
Nsg68
Nsg69
(lp448
sg71
Nsg72
Nsg73
Nsg22
S'Synergy'
p449
sa(dp450
g66
Nsg67
Nsg68
Nsg69
(lp451
sg71
Nsg72
Nsg73
Nsg22
S'fDefense +2'
p452
sa(dp453
g66
Nsg67
Nsg68
Nsg69
(lp454
sg71
Nsg72
Nsg73
Nsg22
S'Underdog'
p455
sa(dp456
g66
Nsg67
Nsg68
Nsg69
(lp457
sg71
Nsg72
Nsg73
Nsg22
S'fSpeed +2'
p458
sasg81
(dp459
g83
I0
sg84
I0
sg85
I0
ssg86
I00
sg87
g419
sg88
(lp460
I0
aI43
aI0
aI0
aI0
aI0
aI0
asg90
S'Eliza'
p461
sg92
I4
sg93
I8
sg94
S'F'
sg95
I0
sg96
S'Soldier'
p462
sg98
I89
sg99
S'player'
p463
sg101
Nsa(dp464
g7
S'None'
p465
sg9
(lp466
I65
aI15
aI35
aI45
aI55
aI55
aI40
aI65
asg11
I00
sg12
(lp467
(dp468
g15
Nsg16
I00
sg17
I00
sg18
I22
sg19
I00
sg20
S'Sam'
p469
sg22
S'Glimmer'
p470
sa(dp471
g15
Nsg16
I00
sg17
I00
sg18
I16
sg19
I00
sg20
g469
sg22
S'Shine'
p472
sa(dp473
g15
Nsg16
I00
sg17
I00
sg18
I13
sg19
I00
sg20
g469
sg22
S'Mend'
p474
sa(dp475
g15
Nsg16
I00
sg17
I00
sg18
I26
sg19
I00
sg20
g469
sg22
S'Heal'
p476
sa(dp477
g15
Nsg16
I00
sg17
I00
sg18
I14
sg19
I00
sg20
g469
sg22
S'Short Spear'
p478
sasg32
(lp479
I80
aI80
aI20
aI40
aI60
aI60
aI30
aI80
asg34
g35
(g36
g37
NtRp480
(dp481
g40
I5
sg41
I20
sbsg42
(lp482
(I20
I5
tp483
a(I3
I0
tp484
a(I8
I0
tp485
a(I9
I0
tp486
a(I11
I0
tp487
a(I8
I0
tp488
a(I5
I0
tp489
a(I8
I0
tp490
a(I4
I0
tp491
a(I5
I0
tp492
asg54
S'Sam'
p493
sg56
S'Resistance'
p494
sg58
S"The resistance's leader. Ambitious and inquisitive."
p495
sg60
(lp496
sg63
(lp497
(dp498
g66
Nsg67
Nsg68
Nsg69
(lp499
sg71
Nsg72
Nsg73
Nsg22
S'Inspiration'
p500
sa(dp501
g66
Nsg67
Nsg68
Nsg69
(lp502
sg71
Nsg72
Nsg73
Nsg22
S'Skill_Aura'
p503
sa(dp504
g66
Nsg67
Nsg68
Nsg69
(lp505
sg71
Nsg72
Nsg73
Nsg22
g365
sasg81
(dp506
g83
I0
sg84
I0
sg85
I0
ssg86
I00
sg87
g469
sg88
(lp507
I0
aI0
aI0
aI0
aI52
aI0
aI0
asg90
S'Sam'
p508
sg92
I5
sg93
I10
sg94
S'M'
sg95
I0
sg96
S'Tactician'
p509
sg98
I77
sg99
S'player'
p510
sg101
Nsa(dp511
g7
S'None'
p512
sg9
(lp513
I55
aI5
aI65
aI55
aI45
aI35
aI40
aI55
asg11
I00
sg12
(lp514
(dp515
g15
Nsg16
I00
sg17
I00
sg18
I3
sg19
I00
sg20
S'Kayla'
p516
sg22
S'Scathe'
p517
sa(dp518
g15
Nsg16
I00
sg17
I00
sg18
I18
sg19
I00
sg20
g516
sg22
S'Nyx'
p519
sa(dp520
g15
Nsg16
I00
sg17
I00
sg18
I30
sg19
I00
sg20
g516
sg22
S'Flux'
p521
sa(dp522
g15
Nsg16
I00
sg17
I00
sg18
I2
sg19
I00
sg20
g516
sg22
S'Vulnerary'
p523
sasg32
(lp524
I60
aI60
aI80
aI60
aI40
aI20
aI30
aI60
asg34
g35
(g36
g37
NtRp525
(dp526
g40
I0
sg41
I20
sbsg42
(lp527
(I20
I0
tp528
a(I1
I0
tp529
a(I10
I0
tp530
a(I9
I0
tp531
a(I6
I2
tp532
a(I7
I0
tp533
a(I6
I0
tp534
a(I8
I0
tp535
a(I5
I0
tp536
a(I4
I0
tp537
asg54
S'Kayla'
p538
sg56
S'Resistance'
p539
sg58
S'A scheming diplomat from the Confederacy.'
p540
sg60
(lp541
sg63
(lp542
(dp543
g66
Nsg67
Nsg68
Nsg69
(lp544
sg71
Nsg72
Nsg73
Nsg22
S'Hex'
p545
sa(dp546
g66
Nsg67
Nsg68
Nsg69
(lp547
sg71
Nsg72
Nsg73
Nsg22
S'Empowered'
p548
sa(dp549
g66
Nsg67
Nsg68
Nsg69
(lp550
sg71
Nsg72
Nsg73
Nsg22
S'fSpeed +2'
p551
sasg81
(dp552
g83
I0
sg84
I0
sg85
I0
ssg86
I00
sg87
g516
sg88
(lp553
I0
aI0
aI0
aI0
aI0
aI0
aI51
asg90
S'Kayla'
p554
sg92
I5
sg93
I10
sg94
S'F'
sg95
I0
sg96
S'Shaman'
p555
sg98
I3
sg99
S'player'
p556
sg101
Nsa(dp557
g7
S'Pursue'
p558
sg9
(lp559
I120
aI65
aI5
aI55
aI40
aI20
aI35
aI20
asg11
I00
sg12
(lp560
(dp561
g15
Nsg16
I00
sg17
I00
sg18
I12
sg19
I00
sg20
S'Coyote'
p562
sg22
S'Rusted Sword'
p563
sa(dp564
g15
Nsg16
I00
sg17
I00
sg18
I9
sg19
I00
sg20
g562
sg22
S'Superior Edge'
p565
sa(dp566
g15
Nsg16
I00
sg17
I00
sg18
I1
sg19
I00
sg20
g562
sg22
S'Vulnerary'
p567
sasg32
(lp568
I50
aI50
aI50
aI50
aI50
aI50
aI50
aI50
asg34
g35
(g36
g37
NtRp569
(dp570
g40
I5
sg41
I20
sbsg42
(lp571
(I20
I5
tp572
a(I9
I0
tp573
a(I0
I0
tp574
a(I11
I0
tp575
a(I9
I0
tp576
a(I4
I0
tp577
a(I5
I0
tp578
a(I2
I0
tp579
a(I6
I0
tp580
a(I5
I0
tp581
asg54
S'0'
sg56
S'Resistance'
p582
sg58
S'A troubled wandererer with a mysterious past.'
p583
sg60
(lp584
sg63
(lp585
(dp586
g66
Nsg67
Nsg68
Nsg69
(lp587
sg71
Nsg72
Nsg73
Nsg22
S'Initiative'
p588
sa(dp589
g66
Nsg67
Nsg68
Nsg69
(lp590
sg71
Nsg72
Nsg73
Nsg22
S'Poise'
p591
sa(dp592
g66
Nsg67
Nsg68
Nsg69
(lp593
sg71
Nsg72
Nsg73
Nsg22
S'fMaximum HP +5'
p594
sasg81
(dp595
g83
I0
sg84
I0
sg85
I0
ssg86
I00
sg87
g562
sg88
(lp596
I47
aI0
aI0
aI0
aI0
aI0
aI0
asg90
S'Coyote'
p597
sg92
I4
sg93
I9
sg94
S'M'
sg95
I0
sg96
S'Mercenary'
p598
sg98
I84
sg99
S'player'
p599
sg101
NsasS'convoy'
p600
(lp601
(dp602
g15
Nsg16
I00
sg17
I00
sg18
I3
sg19
I00
sg20
I0
sg22
S'Spiritbane'
p603
sa(dp604
g15
Nsg16
I00
sg17
I00
sg18
I1
sg19
I00
sg20
I0
sg22
S'Secret Book'
p605
sa(dp606
g15
Nsg16
I00
sg17
I00
sg18
I1
sg19
I00
sg20
I0
sg22
S'Angelic Robe'
p607
sa(dp608
g15
Nsg16
I00
sg17
I00
sg18
I1
sg19
I00
sg20
I0
sg22
S'Mana Ring'
p609
sa(dp610
g15
Nsg16
I00
sg17
I00
sg18
I1
sg19
I00
sg20
I0
sg22
S'Talisman'
p611
sa(dp612
g15
Nsg16
I00
sg17
I00
sg18
I15
sg19
I00
sg20
I0
sg22
S'Magebane Sword'
p613
sa(dp614
g15
Nsg16
I00
sg17
I00
sg18
I25
sg19
I00
sg20
I0
sg22
S'Great Lance'
p615
sa(dp616
g15
Nsg16
I00
sg17
I00
sg18
I1
sg19
I00
sg20
I0
sg22
S'Speedwings'
p617
sa(dp618
g15
Nsg16
I00
sg17
I00
sg18
I19
sg19
I00
sg20
I0
sg22
S'Mithril Lance'
p619
sa(dp620
g15
Nsg16
I00
sg17
I00
sg18
I15
sg19
I00
sg20
I0
sg22
S'Lancereaver'
p621
sa(dp622
g15
Nsg16
I00
sg17
I00
sg18
I10
sg19
I00
sg20
I0
sg22
S'Willow Bow'
p623
sa(dp624
g15
Nsg16
I00
sg17
I00
sg18
I30
sg19
I00
sg20
I0
sg22
S'Hatchet'
p625
sa(dp626
g15
Nsg16
I00
sg17
I00
sg18
I2
sg19
I00
sg20
I0
sg22
S'Spiritbane'
p627
sa(dp628
g15
Nsg16
I00
sg17
I00
sg18
I21
sg19
I00
sg20
I0
sg22
S'Wind'
p629
sa(dp630
g15
Nsg16
I00
sg17
I00
sg18
I3
sg19
I00
sg20
I0
sg22
S'Disintegrate'
p631
sa(dp632
g15
Nsg16
I00
sg17
I00
sg18
I13
sg19
I00
sg20
I0
sg22
S'Fire'
p633
sa(dp634
g15
Nsg16
I00
sg17
I00
sg18
I14
sg19
I00
sg20
I0
sg22
S'Swordreaver'
p635
sa(dp636
g15
Nsg16
I00
sg17
I00
sg18
I21
sg19
I00
sg20
I0
sg22
S'Water'
p637
sa(dp638
g15
Nsg16
I00
sg17
I00
sg18
I14
sg19
I00
sg20
I0
sg22
S'Axereaver'
p639
sa(dp640
g15
Nsg16
I00
sg17
I00
sg18
I27
sg19
I00
sg20
I0
sg22
S'Earth'
p641
sa(dp642
g15
Nsg16
I00
sg17
I00
sg18
I1
sg19
I00
sg20
I0
sg22
S'Energy Ring'
p643
sa(dp644
g15
Nsg16
I00
sg17
I00
sg18
I3
sg19
I00
sg20
I0
sg22
S'Vulnerary'
p645
sa(dp646
g15
Nsg16
I00
sg17
I00
sg18
I10
sg19
I00
sg20
I0
sg22
S'Restore'
p647
sa(dp648
g15
Nsg16
I00
sg17
I00
sg18
I28
sg19
I00
sg20
I0
sg22
S'Hatchet'
p649
sa(dp650
g15
Nsg16
I00
sg17
I00
sg18
I24
sg19
I00
sg20
I0
sg22
S'Steel Axe'
p651
sasS'groups'
p652
(dp653
sS'allreinforcements'
p654
(dp655
sS'base_conversations'
p656
(dp657
sS'playtime'
p658
I26889545
sS'message'
p659
(lp660
sS'unlocked_lore'
p661
(lp662
S'Sam'
p663
aS'Joel'
p664
aS'Prim'
p665
aS'Ophie'
p666
aS'Althea'
p667
aS'Drake'
p668
aS'Nia'
p669
aS'Renae'
p670
aS'Theo'
p671
aS'Kerala'
p672
aS'Empire'
p673
aS'Eliza'
p674
aS'Podoma'
p675
aS'Rajas'
p676
aS'Ulver'
p677
aS'Vagnius'
p678
aS'CFS'
p679
aS'Kayla'
p680
aS'CFS'
p681
aS'Kayla'
p682
aS'Tyrana'
p683
aS'Coyote'
p684
asS'statistics'
p685
(lp686
g35
(cCode.CustomObjects
LevelStatistic
p687
g37
NtRp688
(dp689
S'turncount'
p690
I4
sg42
(dp691
g91
(dp692
S'damage'
p693
I13
sS'kills'
p694
I2
sS'healing'
p695
I0
ssg147
(dp696
g693
I8
sg694
I0
sg695
I7
sssg90
S'Prologue'
p697
sbag35
(g687
g37
NtRp698
(dp699
g690
I4
sg42
(dp700
g91
(dp701
g693
I39
sg694
I4
sg695
I0
ssg188
(dp702
g693
I48
sg694
I1
sg695
I0
ssg232
(dp703
g693
I30
sg694
I2
sg695
I0
ssg147
(dp704
g693
I8
sg694
I2
sg695
I12
sssg90
S'Chapter I'
p705
sbag35
(g687
g37
NtRp706
(dp707
g690
I9
sg42
(dp708
g277
(dp709
S'damage'
p710
I67
sS'kills'
p711
I3
sS'healing'
p712
I0
ssg147
(dp713
S'damage'
p714
I4
sS'kills'
p715
I0
sS'healing'
p716
I43
ssg188
(dp717
g714
I52
sg715
I4
sg716
I0
ssg232
(dp718
g714
I14
sg715
I2
sg716
I0
ssg323
(dp719
g710
I44
sg711
I3
sg712
I0
ssg91
(dp720
g714
I21
sg715
I3
sg716
I0
sssg90
S'Chapter II'
p721
sbag35
(g687
g37
NtRp722
(dp723
g690
I15
sg42
(dp724
g411
(dp725
S'damage'
p726
I81
sS'kills'
p727
I1
sS'healing'
p728
I0
ssg277
(dp729
S'damage'
p730
I45
sS'kills'
p731
I5
sS'healing'
p732
I0
ssg147
(dp733
g730
I16
sg731
I0
sg732
I61
ssg188
(dp734
g730
I64
sg731
I3
sg732
I0
ssg232
(dp735
g730
I58
sg731
I3
sg732
I0
ssg368
(dp736
g726
I8
sg727
I3
sg728
I0
ssg323
(dp737
g730
I35
sg731
I2
sg732
I0
ssg91
(dp738
g730
I70
sg731
I6
sg732
I0
sssg90
S'Chapter III'
p739
sbag35
(g687
g37
NtRp740
(dp741
g690
I9
sg42
(dp742
g411
(dp743
S'damage'
p744
I61
sS'kills'
p745
I4
sS'healing'
p746
I0
ssg277
(dp747
g744
I125
sg745
I8
sg746
I0
ssg147
(dp748
g744
I5
sg745
I0
sg746
I44
ssg188
(dp749
g744
I47
sg745
I2
sg746
I0
ssg232
(dp750
g744
I51
sg745
I2
sg746
I0
ssg368
(dp751
g744
I54
sg745
I5
sg746
I0
ssg323
(dp752
g744
I58
sg745
I2
sg746
I0
ssg91
(dp753
g744
I47
sg745
I5
sg746
I0
ssg461
(dp754
S'damage'
p755
I52
sS'kills'
p756
I7
sS'healing'
p757
I0
sssg90
S'Chapter IV'
p758
sbag35
(g687
g37
NtRp759
(dp760
g690
I15
sg42
(dp761
g411
(dp762
S'damage'
p763
I18
sS'kills'
p764
I3
sS'healing'
p765
I0
ssg277
(dp766
g763
I137
sg764
I7
sg765
I0
ssg147
(dp767
g763
I0
sg764
I0
sg765
I73
ssg508
(dp768
S'damage'
p769
I43
sS'kills'
p770
I2
sS'healing'
p771
I8
ssg188
(dp772
g763
I41
sg764
I0
sg765
I0
ssg232
(dp773
g763
I25
sg764
I3
sg765
I0
ssg368
(dp774
g763
I132
sg764
I6
sg765
I0
ssg323
(dp775
g763
I24
sg764
I1
sg765
I0
ssg554
(dp776
g769
I45
sg770
I1
sg771
I0
ssg91
(dp777
g763
I69
sg764
I5
sg765
I0
ssg461
(dp778
g763
I20
sg764
I3
sg765
I0
sssg90
S'Chapter V'
p779
sbag35
(g687
g37
NtRp780
(dp781
g690
I20
sg42
(dp782
g411
(dp783
S'damage'
p784
I83
sS'kills'
p785
I4
sS'healing'
p786
I0
ssg277
(dp787
g784
I175
sg785
I6
sg786
I0
ssg147
(dp788
g784
I33
sg785
I1
sg786
I113
ssg508
(dp789
g784
I72
sg785
I5
sg786
I51
ssg188
(dp790
g784
I123
sg785
I5
sg786
I0
ssg232
(dp791
g784
I118
sg785
I9
sg786
I0
ssg368
(dp792
g784
I33
sg785
I2
sg786
I0
ssg323
(dp793
g784
I39
sg785
I4
sg786
I0
ssg554
(dp794
g784
I115
sg785
I5
sg786
I0
ssg597
(dp795
S'damage'
p796
I83
sS'kills'
p797
I3
sS'healing'
p798
I0
ssg91
(dp799
g784
I152
sg785
I12
sg786
I0
ssg461
(dp800
g784
I97
sg785
I6
sg786
I0
sssg90
S'Chapter VI'
p801
sbasS'market_items'
p802
c__builtin__
set
p803
((lp804
S'Nyx'
p805
aS'Glimmer'
p806
aS'Mend'
p807
aS'Potion'
p808
aS'Fire'
p809
aS'Heal'
p810
aS'Water'
p811
aS'Vulnerary'
p812
aS'Iron Sword'
p813
aS'Shine'
p814
aS'Iron Lance'
p815
aS'Hatchet'
p816
aS'Hand Axe'
p817
aS'Willow Bow'
p818
aS'Flux'
p819
aS'Slim Lance'
p820
aS'Wind'
p821
aS'Steel Lance'
p822
aS'Longbow'
p823
aS'Iron Knife'
p824
aS'Scathe'
p825
aS'Oak Bow'
p826
aS'Steel Sword'
p827
aS'Javelin'
p828
aS'Steel Axe'
p829
aS'Earth'
p830
aS'Iron Axe'
p831
atRp832
sS'support'
p833
NsS'event_triggers'
p834
(lp835
sS'objective'
p836
NsS'metaDataObj_changes'
p837
(lp838
sS'counters'
p839
(dp840
S'Dead_Wagons'
p841
I12
sS'line_cross'
p842
I12
sS'level'
p843
I7
sS'money'
p844
I15475
sS'switches'
p845
I2
sS'Civ_Escape'
p846
I2
sS'Escaped_Wagons'
p847
I0
ssS'map'
p848
NsS'state_list'
p849
((lp850
S'turn_change'
p851
a(ltp852
sS'prefabs'
p853
(lp854
sS'phase_info'
p855
(I0
I3
tp856
sg690
I0
sS'game_constants'
p857
(lp858
S'Convoy'
p859
as.