(dp1
S'talk_options'
p2
(lp3
sS'allunits'
p4
(lp5
(dp6
S'ai'
p7
S'None'
p8
sS'growths'
p9
(lp10
I105
aI55
aI35
aI75
aI80
aI80
aI40
aI40
asS'dead'
p11
I00
sS'items'
p12
(lp13
(dp14
S'c_uses'
p15
NsS'locked'
p16
I00
sS'droppable'
p17
I00
sS'uses'
p18
I29
sS'event_combat'
p19
I00
sS'owner'
p20
S'Ophie'
p21
sS'id'
p22
S'Iron Sword'
p23
sa(dp24
g15
Nsg16
I00
sg17
I00
sg18
I29
sg19
I00
sg20
g21
sg22
S'Steel Sword'
p25
sa(dp26
g15
Nsg16
I00
sg17
I00
sg18
I13
sg19
I00
sg20
g21
sg22
S'Steel Knife'
p27
sa(dp28
g15
Nsg16
I00
sg17
I00
sg18
I1
sg19
I00
sg20
g21
sg22
S'Vulnerary'
p29
sasS'growth_points'
p30
(lp31
I90
aI90
aI30
aI50
aI90
aI90
aI70
aI70
asS'currenthp'
p32
ccopy_reg
_reconstructor
p33
(cCode.UnitObject
Stat
p34
c__builtin__
object
p35
NtRp36
(dp37
S'bonuses'
p38
I0
sS'base_stat'
p39
I20
sbsS'stats'
p40
(lp41
(I20
I0
tp42
a(I7
I2
tp43
a(I4
I0
tp44
a(I11
I0
tp45
a(I13
I0
tp46
a(I8
I0
tp47
a(I4
I0
tp48
a(I4
I0
tp49
a(I5
I0
tp50
a(I5
I0
tp51
asS'event_id'
p52
S'Ophie'
p53
sS'faction'
p54
S'Resistance'
p55
sS'desc'
p56
S'A strong-hearted renegade who often acts before he thinks.'
p57
sS'tags'
p58
(lp59
S'Lord'
p60
asS'status_effects'
p61
(lp62
(dp63
S'count'
p64
NsS'time_left'
p65
NsS'upkeep_sc_count'
p66
NsS'children'
p67
(lp68
sS'parent_id'
p69
NsS'charge'
p70
NsS'rhythm_sc_count'
p71
Nsg22
S'Riposte'
p72
sa(dp73
g64
Nsg65
Nsg66
Nsg67
(lp74
sg69
Nsg70
Nsg71
Nsg22
S'Vantage'
p75
sa(dp76
g64
Nsg65
Nsg66
Nsg67
(lp77
sg69
Nsg70
Nsg71
Nsg22
S'fStrength +2'
p78
sasS'records'
p79
(dp80
S'damage'
p81
I0
sS'kills'
p82
I0
sS'healing'
p83
I0
ssS'finished'
p84
I00
sS'u_id'
p85
g21
sS'wexp'
p86
(lp87
I44
aI0
aI0
aI0
aI0
aI0
aI0
asS'name'
p88
S'Ophie'
p89
sS'movement_group'
p90
I0
sS'level'
p91
I9
sS'gender'
p92
S'M'
sS'TRV'
p93
I0
sS'klass'
p94
S'Myrmidon'
p95
sS'exp'
p96
I68
sS'team'
p97
S'player'
p98
sS'position'
p99
Nsa(dp100
g7
S'None'
p101
sg9
(lp102
I65
aI15
aI65
aI40
aI55
aI80
aI25
aI80
asg11
I00
sg12
(lp103
(dp104
g15
Nsg16
I00
sg17
I00
sg18
I8
sg19
I00
sg20
S'Prim'
p105
sg22
S'Mend'
p106
sa(dp107
g15
Nsg16
I00
sg17
I00
sg18
I27
sg19
I00
sg20
g105
sg22
S'Heal'
p108
sa(dp109
g15
Nsg16
I00
sg17
I00
sg18
I23
sg19
I00
sg20
g105
sg22
S'Glimmer'
p110
sa(dp111
g15
Nsg16
I00
sg17
I00
sg18
I17
sg19
I00
sg20
g105
sg22
S'Shine'
p112
sasg30
(lp113
I5
aI55
aI5
aI30
aI35
aI10
aI25
aI10
asg32
g33
(g34
g35
NtRp114
(dp115
g38
I0
sg39
I16
sbsg40
(lp116
(I16
I0
tp117
a(I1
I0
tp118
a(I7
I0
tp119
a(I6
I0
tp120
a(I9
I0
tp121
a(I10
I0
tp122
a(I3
I0
tp123
a(I10
I0
tp124
a(I3
I0
tp125
a(I5
I0
tp126
asg52
S'Prim'
p127
sg54
S'Resistance'
p128
sg56
S'A shy but kind-hearted young woman. Has an affinity with the spiritual.'
p129
sg58
(lp130
sg61
(lp131
(dp132
g64
Nsg65
Nsg66
Nsg67
(lp133
sg69
Nsg70
Nsg71
Nsg22
S'Healtouch'
p134
sa(dp135
g64
I1
sg65
Nsg66
Nsg67
(lp136
sg69
Nsg70
Nsg71
Nsg22
S'Miracle'
p137
sasg79
(dp138
g81
I0
sg82
I0
sg83
I0
ssg84
I00
sg85
g105
sg86
(lp139
I0
aI0
aI0
aI0
aI55
aI0
aI0
asg88
S'Prim'
p140
sg90
I5
sg91
I8
sg92
S'F'
sg93
I0
sg94
S'Mystic'
p141
sg96
I20
sg97
S'player'
p142
sg99
Nsa(dp143
g7
S'None'
p144
sg9
(lp145
I105
aI80
aI5
aI60
aI55
aI45
aI35
aI20
asg11
I00
sg12
(lp146
(dp147
g15
Nsg16
I00
sg17
I00
sg18
I27
sg19
I00
sg20
S'Joel'
p148
sg22
S'Hatchet'
p149
sa(dp150
g15
Nsg16
I00
sg17
I00
sg18
I24
sg19
I00
sg20
g148
sg22
S'Steel Axe'
p151
sa(dp152
g15
Nsg16
I00
sg17
I00
sg18
I24
sg19
I00
sg20
g148
sg22
S'Iron Axe'
p153
sa(dp154
g15
Nsg16
I00
sg17
I00
sg18
I14
sg19
I00
sg20
g148
sg22
S'Hand Axe'
p155
sasg30
(lp156
I80
aI30
aI80
aI10
aI80
aI20
aI60
aI70
asg32
g33
(g34
g35
NtRp157
(dp158
g38
I0
sg39
I27
sbsg40
(lp159
(I27
I0
tp160
a(I10
I0
tp161
a(I0
I0
tp162
a(I7
I0
tp163
a(I7
I0
tp164
a(I6
I0
tp165
a(I5
I0
tp166
a(I1
I0
tp167
a(I7
I0
tp168
a(I5
I0
tp169
asg52
S'0'
sg54
S'Resistance'
p170
sg56
S'A jovial former sailor. Always ready for a new adventure.'
p171
sg58
(lp172
sg61
(lp173
(dp174
g64
Nsg65
Nsg66
Nsg67
(lp175
sg69
Nsg70
I0
sg71
Nsg22
S'Cleave'
p176
sa(dp177
g64
Nsg65
Nsg66
Nsg67
(lp178
sg69
Nsg70
I0
sg71
Nsg22
S'Shove'
p179
sasg79
(dp180
g81
I0
sg82
I0
sg83
I0
ssg84
I00
sg85
g148
sg86
(lp181
I0
aI0
aI56
aI0
aI0
aI0
aI0
asg88
S'Joel'
p182
sg90
I4
sg91
I9
sg92
S'M'
sg93
I0
sg94
S'Fighter'
p183
sg96
I51
sg97
S'player'
p184
sg99
Nsa(dp185
g7
S'None'
p186
sg9
(lp187
I80
aI55
aI35
aI80
aI80
aI25
aI20
aI40
asg11
I00
sg12
(lp188
(dp189
g15
Nsg16
I00
sg17
I00
sg18
I27
sg19
I00
sg20
S'Nia'
p190
sg22
S'Oak Bow'
p191
sa(dp192
g15
Nsg16
I00
sg17
I00
sg18
I28
sg19
I00
sg20
g190
sg22
S'Willow Bow'
p193
sa(dp194
g15
Nsg16
I00
sg17
I00
sg18
I18
sg19
I00
sg20
g190
sg22
S'Longbow'
p195
sa(dp196
g15
Nsg16
I00
sg17
I00
sg18
I2
sg19
I00
sg20
g190
sg22
S'Vulnerary'
p197
sa(dp198
g15
Nsg16
I00
sg17
I00
sg18
I25
sg19
I00
sg20
g190
sg22
S'Great Lance'
p199
sasg30
(lp200
I10
aI35
aI95
aI10
aI10
aI25
aI90
aI30
asg32
g33
(g34
g35
NtRp201
(dp202
g38
I0
sg39
I19
sbsg40
(lp203
(I19
I0
tp204
a(I8
I0
tp205
a(I4
I0
tp206
a(I11
I0
tp207
a(I11
I0
tp208
a(I5
I0
tp209
a(I3
I0
tp210
a(I4
I0
tp211
a(I4
I0
tp212
a(I5
I0
tp213
asg52
S'0'
sg54
S'Resistance'
p214
sg56
S'A quiet archer most at home in the wilderness.'
p215
sg58
(lp216
sg61
(lp217
(dp218
g64
Nsg65
Nsg66
Nsg67
(lp219
sg69
Nsg70
Nsg71
Nsg22
S'Prescience'
p220
sa(dp221
g64
Nsg65
Nsg66
Nsg67
(lp222
sg69
Nsg70
I0
sg71
Nsg22
S'Critical'
p223
sasg79
(dp224
g81
I0
sg82
I0
sg83
I0
ssg84
I00
sg85
g190
sg86
(lp225
I0
aI0
aI0
aI55
aI0
aI0
aI0
asg88
S'Nia'
p226
sg90
I0
sg91
I10
sg92
S'F'
sg93
I0
sg94
S'Archer'
p227
sg96
I85
sg97
S'player'
p228
sg99
Nsa(dp229
g7
S'None'
p230
sg9
(lp231
I60
aI15
aI85
aI40
aI60
aI60
aI20
aI55
asg11
I00
sg12
(lp232
(dp233
g15
Nsg16
I00
sg17
I00
sg18
I21
sg19
I00
sg20
S'Althea'
p234
sg22
S'Water'
p235
sa(dp236
g15
Nsg16
I00
sg17
I00
sg18
I16
sg19
I00
sg20
g234
sg22
S'Wind'
p237
sa(dp238
g15
Nsg16
I00
sg17
I00
sg18
I26
sg19
I00
sg20
g234
sg22
S'Earth'
p239
sa(dp240
g15
Nsg16
I00
sg17
I00
sg18
I14
sg19
I00
sg20
g234
sg22
S'Fire'
p241
sa(dp242
g15
Nsg16
I00
sg17
I00
sg18
I3
sg19
I00
sg20
g234
sg22
S'Vulnerary'
p243
sasg30
(lp244
I30
aI70
aI30
aI70
aI30
aI30
aI10
aI90
asg32
g33
(g34
g35
NtRp245
(dp246
g38
I5
sg39
I16
sbsg40
(lp247
(I16
I5
tp248
a(I2
I0
tp249
a(I12
I0
tp250
a(I7
I0
tp251
a(I10
I0
tp252
a(I10
I0
tp253
a(I4
I0
tp254
a(I7
I2
tp255
a(I3
I0
tp256
a(I5
I0
tp257
asg52
S'0'
sg54
S'Resistance'
p258
sg56
S'A forthright but elegant and refined sorceress.'
p259
sg58
(lp260
sg61
(lp261
(dp262
g64
Nsg65
Nsg66
Nsg67
(lp263
sg69
Nsg70
Nsg71
Nsg22
S'Focus'
p264
sa(dp265
g64
Nsg65
Nsg66
Nsg67
(lp266
sg69
Nsg70
Nsg71
Nsg22
S'fMaximum HP +5'
p267
sa(dp268
g64
Nsg65
Nsg66
Nsg67
(lp269
sg69
Nsg70
Nsg71
Nsg22
S'Resistance +2'
p270
sasg79
(dp271
g81
I0
sg82
I0
sg83
I0
ssg84
I00
sg85
g234
sg86
(lp272
I0
aI0
aI0
aI0
aI0
aI45
aI0
asg88
S'Althea'
p273
sg90
I5
sg91
I10
sg92
S'F'
sg93
I0
sg94
S'Mage'
p274
sg96
I65
sg97
S'player'
p275
sg99
Nsa(dp276
g7
S'None'
p277
sg9
(lp278
I95
aI65
aI5
aI60
aI60
aI40
aI55
aI40
asg11
I00
sg12
(lp279
(dp280
g15
Nsg16
I00
sg17
I00
sg18
I11
sg19
I00
sg20
S'Drake'
p281
sg22
S'Iron Lance'
p282
sa(dp283
g15
Nsg16
I00
sg17
I00
sg18
I42
sg19
I00
sg20
g281
sg22
S'Iron Sword'
p284
sa(dp285
g15
Nsg16
I00
sg17
I00
sg18
I20
sg19
I00
sg20
g281
sg22
S'Javelin'
p286
sa(dp287
g15
Nsg16
I00
sg17
I00
sg18
I1
sg19
I00
sg20
g281
sg22
S'Energy Ring'
p288
sa(dp289
g15
Nsg16
I00
sg17
I00
sg18
I3
sg19
I00
sg20
g281
sg22
S'Vulnerary'
p290
sasg30
(lp291
I30
aI10
aI70
aI90
aI90
aI10
aI70
aI10
asg32
g33
(g34
g35
NtRp292
(dp293
g38
I0
sg39
I21
sbsg40
(lp294
(I21
I0
tp295
a(I9
I0
tp296
a(I1
I0
tp297
a(I8
I0
tp298
a(I7
I0
tp299
a(I9
I0
tp300
a(I7
I0
tp301
a(I5
I0
tp302
a(I7
I0
tp303
a(I7
I0
tp304
asg52
S'0'
sg54
S'Resistance'
p305
sg56
S"A disgraced Imperial knight now in Althea's service."
p306
sg58
(lp307
sg61
(lp308
(dp309
g64
Nsg65
Nsg66
Nsg67
(lp310
sg69
Nsg70
Nsg71
Nsg22
S'Canto'
p311
sa(dp312
g64
Nsg65
Nsg66
Nsg67
(lp313
sg69
Nsg70
Nsg71
Nsg22
S'Savior'
p314
sasg79
(dp315
g81
I0
sg82
I0
sg83
I0
ssg84
I00
sg85
g281
sg86
(lp316
I35
aI30
aI0
aI0
aI0
aI0
aI0
asg88
S'Drake'
p317
sg90
I2
sg91
I9
sg92
S'M'
sg93
I0
sg94
S'Cavalier'
p318
sg96
I87
sg97
S'player'
p319
sg99
Nsa(dp320
g7
S'None'
p321
sg9
(lp322
I95
aI40
aI60
aI55
aI95
aI65
aI35
aI55
asg11
I00
sg12
(lp323
(dp324
g15
Nsg16
I00
sg17
I00
sg18
I6
sg19
I00
sg20
S'Renae'
p325
sg22
S'Levin Sword'
p326
sa(dp327
g15
Nsg16
I00
sg17
I00
sg18
I1
sg19
I00
sg20
g325
sg22
S'Steel Sword'
p328
sa(dp329
g15
Nsg16
I00
sg17
I00
sg18
I16
sg19
I00
sg20
g325
sg22
S'Iron Knife'
p330
sa(dp331
g15
Nsg16
I00
sg17
I00
sg18
Nsg19
I00
sg20
g325
sg22
S"Prim's Charm"
p332
sa(dp333
g15
Nsg16
I00
sg17
I00
sg18
I2
sg19
I00
sg20
g325
sg22
S'Vulnerary'
p334
sasg30
(lp335
I30
aI10
aI90
aI70
aI30
aI10
aI90
aI70
asg32
g33
(g34
g35
NtRp336
(dp337
g38
I0
sg39
I17
sbsg40
(lp338
(I17
I0
tp339
a(I5
I0
tp340
a(I5
I0
tp341
a(I7
I0
tp342
a(I13
I0
tp343
a(I6
I0
tp344
a(I3
I0
tp345
a(I5
I0
tp346
a(I4
I0
tp347
a(I6
I0
tp348
asg52
S'0'
sg54
S'Kerala'
p349
sg56
S'An energetic thief with a kleptomanic streak.'
p350
sg58
(lp351
sg61
(lp352
(dp353
g64
Nsg65
Nsg66
Nsg67
(lp354
sg69
Nsg70
Nsg71
Nsg22
S'Locktouch'
p355
sa(dp356
g64
Nsg65
Nsg66
Nsg67
(lp357
sg69
Nsg70
Nsg71
Nsg22
S'Steal'
p358
sa(dp359
g64
Nsg65
Nsg66
Nsg67
(lp360
sg69
Nsg70
Nsg71
Nsg22
S'Underdog'
p361
sasg79
(dp362
g81
I0
sg82
I0
sg83
I0
ssg84
I00
sg85
g325
sg86
(lp363
I39
aI0
aI0
aI0
aI0
aI0
aI0
asg88
S'Renae'
p364
sg90
I0
sg91
I8
sg92
S'F'
sg93
I0
sg94
S'Thief'
p365
sg96
I75
sg97
S'player'
p366
sg99
Nsa(dp367
g7
S'None'
p368
sg9
(lp369
I120
aI55
aI25
aI40
aI40
aI45
aI75
aI40
asg11
I00
sg12
(lp370
(dp371
g15
Nsg16
I00
sg17
I00
sg18
I42
sg19
I00
sg20
S'Theo'
p372
sg22
S'Iron Lance'
p373
sa(dp374
g15
Nsg16
I00
sg17
I00
sg18
I27
sg19
I00
sg20
g372
sg22
S'Steel Lance'
p375
sa(dp376
g15
Nsg16
I00
sg17
I00
sg18
I15
sg19
I00
sg20
g372
sg22
S'Javelin'
p377
sa(dp378
g15
Nsg16
I00
sg17
I00
sg18
I3
sg19
I00
sg20
g372
sg22
S'Vulnerary'
p379
sa(dp380
g15
Nsg16
I00
sg17
I00
sg18
I26
sg19
I00
sg20
g372
sg22
S'Steel Sword'
p381
sasg30
(lp382
I30
aI70
aI50
aI10
aI10
aI30
aI50
aI10
asg32
g33
(g34
g35
NtRp383
(dp384
g38
I0
sg39
I23
sbsg40
(lp385
(I23
I0
tp386
a(I11
I0
tp387
a(I1
I0
tp388
a(I9
I0
tp389
a(I5
I0
tp390
a(I5
I0
tp391
a(I11
I0
tp392
a(I4
I0
tp393
a(I8
I0
tp394
a(I4
I0
tp395
asg52
S'0'
sg54
S'Resistance'
p396
sg56
S'An avid scholar. Interested in esoteric philosophy.'
p397
sg58
(lp398
sg61
(lp399
(dp400
g64
Nsg65
Nsg66
Nsg67
(lp401
sg69
Nsg70
Nsg71
Nsg22
S'Provoke'
p402
sa(dp403
g64
Nsg65
Nsg66
Nsg67
(lp404
sg69
Nsg70
I0
sg71
Nsg22
S'Shove'
p405
sa(dp406
g64
Nsg65
Nsg66
Nsg67
(lp407
sg69
Nsg70
Nsg71
Nsg22
S'tile_Regeneration'
p408
sasg79
(dp409
g81
I0
sg82
I0
sg83
I0
ssg84
I00
sg85
g372
sg86
(lp410
I0
aI46
aI0
aI0
aI0
aI0
aI0
asg88
S'Theo'
p411
sg90
I1
sg91
I8
sg92
S'M'
sg93
I0
sg94
S'Knight'
p412
sg96
I96
sg97
S'player'
p413
sg99
Nsa(dp414
g7
S'None'
p415
sg9
(lp416
I75
aI65
aI65
aI80
aI65
aI35
aI65
aI35
asg11
I00
sg12
(lp417
(dp418
g15
Nsg16
I00
sg17
I00
sg18
I17
sg19
I00
sg20
S'Eliza'
p419
sg22
S'Slim Lance'
p420
sa(dp421
g15
Nsg16
I00
sg17
I00
sg18
I12
sg19
I00
sg20
g419
sg22
S'Javelin'
p422
sa(dp423
g15
Nsg16
I00
sg17
I00
sg18
I43
sg19
I00
sg20
g419
sg22
S'Iron Lance'
p424
sa(dp425
g15
Nsg16
I00
sg17
I00
sg18
I3
sg19
I00
sg20
g419
sg22
S'Vulnerary'
p426
sasg30
(lp427
I25
aI35
aI35
aI70
aI35
aI65
aI35
aI65
asg32
g33
(g34
g35
NtRp428
(dp429
g38
I5
sg39
I20
sbsg40
(lp430
(I20
I5
tp431
a(I9
I0
tp432
a(I6
I0
tp433
a(I11
I0
tp434
a(I12
I0
tp435
a(I6
I0
tp436
a(I9
I0
tp437
a(I4
I0
tp438
a(I5
I0
tp439
a(I5
I0
tp440
asg52
S'0'
sg54
S'Resistance'
p441
sg56
S'A moody, sarcastic soldier.'
p442
sg58
(lp443
sg61
(lp444
(dp445
g64
Nsg65
Nsg66
Nsg67
(lp446
sg69
Nsg70
Nsg71
Nsg22
S'Synergy'
p447
sa(dp448
g64
Nsg65
Nsg66
Nsg67
(lp449
sg69
Nsg70
Nsg71
Nsg22
S'fMaximum HP +5'
p450
sasg79
(dp451
g81
I0
sg82
I0
sg83
I0
ssg84
I00
sg85
g419
sg86
(lp452
I0
aI42
aI0
aI0
aI0
aI0
aI0
asg88
S'Eliza'
p453
sg90
I4
sg91
I10
sg92
S'F'
sg93
I0
sg94
S'Soldier'
p454
sg96
I32
sg97
S'player'
p455
sg99
Nsa(dp456
g7
S'None'
p457
sg9
(lp458
I65
aI15
aI35
aI45
aI55
aI55
aI40
aI65
asg11
I00
sg12
(lp459
(dp460
g15
Nsg16
I00
sg17
I00
sg18
I4
sg19
I00
sg20
S'Sam'
p461
sg22
S'Fortune'
p462
sa(dp463
g15
Nsg16
I00
sg17
I00
sg18
I8
sg19
I00
sg20
g461
sg22
S'Mend'
p464
sa(dp465
g15
Nsg16
I00
sg17
I00
sg18
I17
sg19
I00
sg20
g461
sg22
S'Shine'
p466
sa(dp467
g15
Nsg16
I00
sg17
I00
sg18
I29
sg19
I00
sg20
g461
sg22
S'Heal'
p468
sasg30
(lp469
I45
aI95
aI55
aI85
aI15
aI15
aI70
aI45
asg32
g33
(g34
g35
NtRp470
(dp471
g38
I0
sg39
I20
sbsg40
(lp472
(I20
I0
tp473
a(I3
I0
tp474
a(I8
I0
tp475
a(I9
I0
tp476
a(I11
I0
tp477
a(I9
I0
tp478
a(I4
I0
tp479
a(I9
I0
tp480
a(I6
I0
tp481
a(I5
I0
tp482
asg52
S'Sam'
p483
sg54
S'Resistance'
p484
sg56
S"The resistance's leader. Ambitious and inquisitive."
p485
sg58
(lp486
sg61
(lp487
(dp488
g64
Nsg65
Nsg66
Nsg67
(lp489
sg69
Nsg70
Nsg71
Nsg22
S'Inspiration'
p490
sa(dp491
g64
Nsg65
Nsg66
Nsg67
(lp492
sg69
Nsg70
Nsg71
Nsg22
S'Skill_Aura'
p493
sasg79
(dp494
g81
I0
sg82
I0
sg83
I0
ssg84
I00
sg85
g461
sg86
(lp495
I0
aI0
aI0
aI0
aI53
aI0
aI0
asg88
S'Sam'
p496
sg90
I5
sg91
I10
sg92
S'M'
sg93
I0
sg94
S'Tactician'
p497
sg96
I43
sg97
S'player'
p498
sg99
Nsa(dp499
g7
S'None'
p500
sg9
(lp501
I55
aI5
aI65
aI55
aI45
aI35
aI40
aI55
asg11
I00
sg12
(lp502
(dp503
g15
Nsg16
I00
sg17
I00
sg18
I2
sg19
I00
sg20
S'Kayla'
p504
sg22
S'Scathe'
p505
sa(dp506
g15
Nsg16
I00
sg17
I00
sg18
I24
sg19
I00
sg20
g504
sg22
S'Nyx'
p507
sa(dp508
g15
Nsg16
I00
sg17
I00
sg18
I34
sg19
I00
sg20
g504
sg22
S'Flux'
p509
sa(dp510
g15
Nsg16
I00
sg17
I00
sg18
I3
sg19
I00
sg20
g504
sg22
S'Vulnerary'
p511
sasg30
(lp512
I60
aI60
aI80
aI60
aI40
aI20
aI30
aI60
asg32
g33
(g34
g35
NtRp513
(dp514
g38
I0
sg39
I20
sbsg40
(lp515
(I20
I0
tp516
a(I1
I0
tp517
a(I10
I0
tp518
a(I9
I0
tp519
a(I8
I0
tp520
a(I7
I0
tp521
a(I6
I0
tp522
a(I8
I0
tp523
a(I4
I0
tp524
a(I4
I0
tp525
asg52
S'Kayla'
p526
sg54
S'Resistance'
p527
sg56
S'A scheming diplomat from the Confederacy.'
p528
sg58
(lp529
sg61
(lp530
(dp531
g64
Nsg65
Nsg66
Nsg67
(lp532
sg69
Nsg70
Nsg71
Nsg22
S'Hex'
p533
sa(dp534
g64
Nsg65
Nsg66
Nsg67
(lp535
sg69
Nsg70
Nsg71
Nsg22
S'Empowered'
p536
sasg79
(dp537
g81
I0
sg82
I0
sg83
I0
ssg84
I00
sg85
g504
sg86
(lp538
I0
aI0
aI0
aI0
aI0
aI0
aI52
asg88
S'Kayla'
p539
sg90
I5
sg91
I10
sg92
S'F'
sg93
I0
sg94
S'Shaman'
p540
sg96
I57
sg97
S'player'
p541
sg99
Nsa(dp542
g7
S'Pursue'
p543
sg9
(lp544
I120
aI65
aI5
aI55
aI40
aI20
aI35
aI20
asg11
I00
sg12
(lp545
(dp546
g15
Nsg16
I00
sg17
I00
sg18
I11
sg19
I00
sg20
S'Coyote'
p547
sg22
S'Rusted Sword'
p548
sa(dp549
g15
Nsg16
I00
sg17
I00
sg18
I9
sg19
I00
sg20
g547
sg22
S'Superior Edge'
p550
sa(dp551
g15
Nsg16
I00
sg17
I00
sg18
I3
sg19
I00
sg20
g547
sg22
S'Vulnerary'
p552
sa(dp553
g15
Nsg16
I00
sg17
I00
sg18
I2
sg19
I00
sg20
g547
sg22
S'Potion'
p554
sasg30
(lp555
I70
aI15
aI55
aI5
aI90
aI70
aI85
aI70
asg32
g33
(g34
g35
NtRp556
(dp557
g38
I0
sg39
I26
sbsg40
(lp558
(I26
I0
tp559
a(I10
I0
tp560
a(I0
I0
tp561
a(I12
I0
tp562
a(I9
I0
tp563
a(I4
I0
tp564
a(I6
I0
tp565
a(I2
I0
tp566
a(I7
I0
tp567
a(I5
I0
tp568
asg52
S'0'
sg54
S'Resistance'
p569
sg56
S'A troubled wandererer with a mysterious past.'
p570
sg58
(lp571
sg61
(lp572
(dp573
g64
Nsg65
Nsg66
Nsg67
(lp574
sg69
Nsg70
Nsg71
Nsg22
S'Initiative'
p575
sa(dp576
g64
Nsg65
Nsg66
Nsg67
(lp577
sg69
Nsg70
Nsg71
Nsg22
S'Resist Status'
p578
sasg79
(dp579
g81
I0
sg82
I0
sg83
I0
ssg84
I00
sg85
g547
sg86
(lp580
I50
aI0
aI0
aI0
aI0
aI0
aI0
asg88
S'Coyote'
p581
sg90
I4
sg91
I10
sg92
S'M'
sg93
I0
sg94
S'Mercenary'
p582
sg96
I51
sg97
S'player'
p583
sg99
NsasS'convoy'
p584
(lp585
(dp586
g15
Nsg16
I00
sg17
I00
sg18
I3
sg19
I00
sg20
I0
sg22
S'Spiritbane'
p587
sa(dp588
g15
Nsg16
I00
sg17
I00
sg18
I1
sg19
I00
sg20
I0
sg22
S'Secret Book'
p589
sa(dp590
g15
Nsg16
I00
sg17
I00
sg18
I1
sg19
I00
sg20
I0
sg22
S'Angelic Robe'
p591
sa(dp592
g15
Nsg16
I00
sg17
I00
sg18
I1
sg19
I00
sg20
I0
sg22
S'Mana Ring'
p593
sa(dp594
g15
Nsg16
I00
sg17
I00
sg18
I1
sg19
I00
sg20
I0
sg22
S'Talisman'
p595
sa(dp596
g15
Nsg16
I00
sg17
I00
sg18
I10
sg19
I00
sg20
I0
sg22
S'Windwall'
p597
sa(dp598
g15
Nsg16
I00
sg17
I00
sg18
I25
sg19
I00
sg20
I0
sg22
S'Great Lance'
p599
sa(dp600
g15
Nsg16
I00
sg17
I00
sg18
I15
sg19
I00
sg20
I0
sg22
S'Magebane Sword'
p601
sa(dp602
g15
Nsg16
I00
sg17
I00
sg18
I15
sg19
I00
sg20
I0
sg22
S'Lancereaver'
p603
sa(dp604
g15
Nsg16
I00
sg17
I00
sg18
I1
sg19
I00
sg20
I0
sg22
S'Energy Ring'
p605
sa(dp606
g15
Nsg16
I00
sg17
I00
sg18
I1
sg19
I00
sg20
I0
sg22
S'Speedwings'
p607
sa(dp608
g15
Nsg16
I00
sg17
I00
sg18
I7
sg19
I00
sg20
I0
sg22
S'Wyrmsfire'
p609
sa(dp610
g15
Nsg16
I00
sg17
I00
sg18
I10
sg19
I00
sg20
I0
sg22
S'Fly'
p611
sa(dp612
g15
Nsg16
I00
sg17
I00
sg18
I19
sg19
I00
sg20
I0
sg22
S'Mithril Lance'
p613
sa(dp614
g15
Nsg16
I00
sg17
I00
sg18
I2
sg19
I00
sg20
I0
sg22
S'Spiritbane'
p615
sa(dp616
g15
Nsg16
I00
sg17
I00
sg18
I9
sg19
I00
sg20
I0
sg22
S'Willow Bow'
p617
sa(dp618
g15
Nsg16
I00
sg17
I00
sg18
I16
sg19
I00
sg20
I0
sg22
S'Nyx'
p619
sa(dp620
g15
Nsg16
I00
sg17
I00
sg18
I33
sg19
I00
sg20
I0
sg22
S'Hatchet'
p621
sa(dp622
g15
Nsg16
I00
sg17
I00
sg18
I14
sg19
I00
sg20
I0
sg22
S'Swordreaver'
p623
sa(dp624
g15
Nsg16
I00
sg17
I00
sg18
I13
sg19
I00
sg20
I0
sg22
S'Axereaver'
p625
sa(dp626
g15
Nsg16
I00
sg17
I00
sg18
I14
sg19
I00
sg20
I0
sg22
S'Short Spear'
p627
sasS'groups'
p628
(dp629
sS'allreinforcements'
p630
(dp631
sS'base_conversations'
p632
(dp633
sS'playtime'
p634
I31447967
sS'message'
p635
(lp636
sS'unlocked_lore'
p637
(lp638
S'Sam'
p639
aS'Joel'
p640
aS'Prim'
p641
aS'Ophie'
p642
aS'Althea'
p643
aS'Drake'
p644
aS'Nia'
p645
aS'Renae'
p646
aS'Theo'
p647
aS'Kerala'
p648
aS'Empire'
p649
aS'Eliza'
p650
aS'Podoma'
p651
aS'Rajas'
p652
aS'Ulver'
p653
aS'Vagnius'
p654
aS'CFS'
p655
aS'Kayla'
p656
aS'CFS'
p657
aS'Kayla'
p658
aS'Tyrana'
p659
aS'Coyote'
p660
asS'statistics'
p661
(lp662
g33
(cCode.CustomObjects
LevelStatistic
p663
g35
NtRp664
(dp665
S'turncount'
p666
I4
sg40
(dp667
g89
(dp668
S'damage'
p669
I13
sS'kills'
p670
I2
sS'healing'
p671
I0
ssg140
(dp672
g669
I8
sg670
I0
sg671
I7
sssg88
S'Prologue'
p673
sbag33
(g663
g35
NtRp674
(dp675
g666
I4
sg40
(dp676
g89
(dp677
g669
I39
sg670
I4
sg671
I0
ssg182
(dp678
g669
I48
sg670
I1
sg671
I0
ssg226
(dp679
g669
I30
sg670
I2
sg671
I0
ssg140
(dp680
g669
I8
sg670
I2
sg671
I12
sssg88
S'Chapter I'
p681
sbag33
(g663
g35
NtRp682
(dp683
g666
I9
sg40
(dp684
g273
(dp685
S'damage'
p686
I67
sS'kills'
p687
I3
sS'healing'
p688
I0
ssg140
(dp689
S'damage'
p690
I4
sS'kills'
p691
I0
sS'healing'
p692
I43
ssg182
(dp693
g690
I52
sg691
I4
sg692
I0
ssg226
(dp694
g690
I14
sg691
I2
sg692
I0
ssg317
(dp695
g686
I44
sg687
I3
sg688
I0
ssg89
(dp696
g690
I21
sg691
I3
sg692
I0
sssg88
S'Chapter II'
p697
sbag33
(g663
g35
NtRp698
(dp699
g666
I15
sg40
(dp700
g411
(dp701
S'damage'
p702
I81
sS'kills'
p703
I1
sS'healing'
p704
I0
ssg273
(dp705
S'damage'
p706
I45
sS'kills'
p707
I5
sS'healing'
p708
I0
ssg140
(dp709
g706
I16
sg707
I0
sg708
I61
ssg182
(dp710
g706
I64
sg707
I3
sg708
I0
ssg226
(dp711
g706
I58
sg707
I3
sg708
I0
ssg364
(dp712
g702
I8
sg703
I3
sg704
I0
ssg317
(dp713
g706
I35
sg707
I2
sg708
I0
ssg89
(dp714
g706
I70
sg707
I6
sg708
I0
sssg88
S'Chapter III'
p715
sbag33
(g663
g35
NtRp716
(dp717
g666
I9
sg40
(dp718
g411
(dp719
S'damage'
p720
I61
sS'kills'
p721
I4
sS'healing'
p722
I0
ssg273
(dp723
g720
I125
sg721
I8
sg722
I0
ssg140
(dp724
g720
I5
sg721
I0
sg722
I44
ssg182
(dp725
g720
I47
sg721
I2
sg722
I0
ssg226
(dp726
g720
I51
sg721
I2
sg722
I0
ssg364
(dp727
g720
I54
sg721
I5
sg722
I0
ssg317
(dp728
g720
I58
sg721
I2
sg722
I0
ssg89
(dp729
g720
I47
sg721
I5
sg722
I0
ssg453
(dp730
S'damage'
p731
I52
sS'kills'
p732
I7
sS'healing'
p733
I0
sssg88
S'Chapter IV'
p734
sbag33
(g663
g35
NtRp735
(dp736
g666
I14
sg40
(dp737
g411
(dp738
S'damage'
p739
I49
sS'kills'
p740
I2
sS'healing'
p741
I0
ssg273
(dp742
g739
I43
sg740
I4
sg741
I0
ssg140
(dp743
g739
I11
sg740
I1
sg741
I63
ssg496
(dp744
S'damage'
p745
I18
sS'kills'
p746
I0
sS'healing'
p747
I23
ssg182
(dp748
g739
I27
sg740
I1
sg741
I0
ssg226
(dp749
g739
I30
sg740
I3
sg741
I0
ssg364
(dp750
g739
I52
sg740
I3
sg741
I0
ssg317
(dp751
g739
I68
sg740
I2
sg741
I0
ssg539
(dp752
g745
I82
sg746
I6
sg747
I0
ssg89
(dp753
g739
I117
sg740
I8
sg741
I0
ssg453
(dp754
g739
I17
sg740
I2
sg741
I0
sssg88
S'Chapter V'
p755
sbag33
(g663
g35
NtRp756
(dp757
g666
I20
sg40
(dp758
g411
(dp759
S'damage'
p760
I117
sS'kills'
p761
I4
sS'healing'
p762
I0
ssg273
(dp763
g760
I131
sg761
I7
sg762
I0
ssg140
(dp764
g760
I22
sg761
I1
sg762
I126
ssg496
(dp765
g760
I59
sg761
I6
sg762
I72
ssg182
(dp766
g760
I130
sg761
I4
sg762
I0
ssg226
(dp767
g760
I194
sg761
I9
sg762
I0
ssg364
(dp768
g760
I61
sg761
I3
sg762
I0
ssg317
(dp769
g760
I96
sg761
I4
sg762
I0
ssg539
(dp770
g760
I105
sg761
I4
sg762
I0
ssg581
(dp771
S'damage'
p772
I82
sS'kills'
p773
I6
sS'healing'
p774
I0
ssg89
(dp775
g760
I48
sg761
I4
sg762
I0
ssg453
(dp776
g760
I74
sg761
I9
sg762
I0
sssg88
S'Chapter VI'
p777
sbasS'market_items'
p778
c__builtin__
set
p779
((lp780
S'Nyx'
p781
aS'Glimmer'
p782
aS'Mend'
p783
aS'Potion'
p784
aS'Fire'
p785
aS'Heal'
p786
aS'Water'
p787
aS'Vulnerary'
p788
aS'Iron Sword'
p789
aS'Shine'
p790
aS'Iron Lance'
p791
aS'Hatchet'
p792
aS'Hand Axe'
p793
aS'Willow Bow'
p794
aS'Flux'
p795
aS'Slim Lance'
p796
aS'Wind'
p797
aS'Steel Lance'
p798
aS'Longbow'
p799
aS'Iron Knife'
p800
aS'Scathe'
p801
aS'Oak Bow'
p802
aS'Steel Sword'
p803
aS'Javelin'
p804
aS'Steel Axe'
p805
aS'Earth'
p806
aS'Iron Axe'
p807
atRp808
sS'support'
p809
NsS'event_triggers'
p810
(lp811
sS'objective'
p812
NsS'metaDataObj_changes'
p813
(lp814
sS'counters'
p815
(dp816
S'Dead_Wagons'
p817
I12
sS'line_cross'
p818
I13
sS'level'
p819
I7
sS'money'
p820
I14555
sS'switches'
p821
I2
sS'Civ_Escape'
p822
I5
sS'Escaped_Wagons'
p823
I0
ssS'map'
p824
NsS'state_list'
p825
((lp826
S'turn_change'
p827
a(ltp828
sS'prefabs'
p829
(lp830
sS'phase_info'
p831
(I0
I1
tp832
sg666
I0
sS'game_constants'
p833
(lp834
S'Convoy'
p835
as.