(dp1
S'talk_options'
p2
(lp3
sS'allunits'
p4
(lp5
(dp6
S'ai'
p7
S'None'
p8
sS'growths'
p9
(lp10
I105
aI55
aI35
aI75
aI80
aI80
aI40
aI40
asS'dead'
p11
I00
sS'items'
p12
(lp13
(dp14
S'c_uses'
p15
NsS'locked'
p16
I00
sS'droppable'
p17
I00
sS'uses'
p18
I15
sS'event_combat'
p19
I00
sS'owner'
p20
S'Ophie'
p21
sS'id'
p22
S'Lancereaver'
p23
sa(dp24
g15
Nsg16
I00
sg17
I00
sg18
I26
sg19
I00
sg20
g21
sg22
S'Steel Sword'
p25
sa(dp26
g15
Nsg16
I00
sg17
I00
sg18
I45
sg19
I00
sg20
g21
sg22
S'Iron Sword'
p27
sa(dp28
g15
Nsg16
I00
sg17
I00
sg18
I13
sg19
I00
sg20
g21
sg22
S'Steel Knife'
p29
sa(dp30
g15
Nsg16
I00
sg17
I00
sg18
I3
sg19
I00
sg20
g21
sg22
S'Vulnerary'
p31
sasS'growth_points'
p32
(lp33
I90
aI90
aI30
aI50
aI90
aI90
aI70
aI70
asS'currenthp'
p34
ccopy_reg
_reconstructor
p35
(cCode.UnitObject
Stat
p36
c__builtin__
object
p37
NtRp38
(dp39
S'bonuses'
p40
I0
sS'base_stat'
p41
I20
sbsS'stats'
p42
(lp43
(I20
I0
tp44
a(I7
I2
tp45
a(I4
I0
tp46
a(I11
I0
tp47
a(I13
I0
tp48
a(I8
I0
tp49
a(I4
I0
tp50
a(I4
I0
tp51
a(I5
I0
tp52
a(I5
I0
tp53
asS'event_id'
p54
S'Ophie'
p55
sS'faction'
p56
S'Resistance'
p57
sS'desc'
p58
S'A strong-hearted renegade who often acts before he thinks.'
p59
sS'tags'
p60
(lp61
S'Lord'
p62
asS'status_effects'
p63
(lp64
(dp65
S'count'
p66
NsS'time_left'
p67
NsS'upkeep_sc_count'
p68
NsS'children'
p69
(lp70
sS'parent_id'
p71
NsS'charge'
p72
NsS'rhythm_sc_count'
p73
Nsg22
S'Riposte'
p74
sa(dp75
g66
Nsg67
Nsg68
Nsg69
(lp76
sg71
Nsg72
Nsg73
Nsg22
S'Vantage'
p77
sa(dp78
g66
Nsg67
Nsg68
Nsg69
(lp79
sg71
Nsg72
Nsg73
Nsg22
S'fStrength +2'
p80
sasS'records'
p81
(dp82
S'damage'
p83
I0
sS'kills'
p84
I0
sS'healing'
p85
I0
ssS'finished'
p86
I00
sS'u_id'
p87
g21
sS'wexp'
p88
(lp89
I44
aI0
aI0
aI0
aI0
aI0
aI0
asS'name'
p90
S'Ophie'
p91
sS'movement_group'
p92
I0
sS'level'
p93
I9
sS'gender'
p94
S'M'
sS'TRV'
p95
I0
sS'klass'
p96
S'Myrmidon'
p97
sS'exp'
p98
I68
sS'team'
p99
S'player'
p100
sS'position'
p101
(I26
I0
tp102
sa(dp103
g7
S'None'
p104
sg9
(lp105
I65
aI15
aI65
aI40
aI55
aI80
aI25
aI80
asg11
I00
sg12
(lp106
(dp107
g15
Nsg16
I00
sg17
I00
sg18
I25
sg19
I00
sg20
S'Prim'
p108
sg22
S'Shine'
p109
sa(dp110
g15
Nsg16
I00
sg17
I00
sg18
I23
sg19
I00
sg20
g108
sg22
S'Glimmer'
p111
sa(dp112
g15
Nsg16
I00
sg17
I00
sg18
I1
sg19
I00
sg20
g108
sg22
S'Mend'
p113
sa(dp114
g15
Nsg16
I00
sg17
I00
sg18
I26
sg19
I00
sg20
g108
sg22
S'Heal'
p115
sa(dp116
g15
Nsg16
I00
sg17
I00
sg18
I15
sg19
I00
sg20
g108
sg22
S'Mend'
p117
sasg32
(lp118
I5
aI55
aI5
aI30
aI35
aI10
aI25
aI10
asg34
g35
(g36
g37
NtRp119
(dp120
g40
I0
sg41
I16
sbsg42
(lp121
(I16
I0
tp122
a(I1
I0
tp123
a(I7
I0
tp124
a(I6
I0
tp125
a(I9
I0
tp126
a(I10
I0
tp127
a(I3
I0
tp128
a(I10
I0
tp129
a(I3
I0
tp130
a(I5
I0
tp131
asg54
S'Prim'
p132
sg56
S'Resistance'
p133
sg58
S'A shy but kind-hearted young woman. Has an affinity with the spiritual.'
p134
sg60
(lp135
sg63
(lp136
(dp137
g66
Nsg67
Nsg68
Nsg69
(lp138
sg71
Nsg72
Nsg73
Nsg22
S'Healtouch'
p139
sa(dp140
g66
I1
sg67
Nsg68
Nsg69
(lp141
sg71
Nsg72
Nsg73
Nsg22
S'Miracle'
p142
sasg81
(dp143
g83
I0
sg84
I0
sg85
I0
ssg86
I00
sg87
g108
sg88
(lp144
I0
aI0
aI0
aI0
aI55
aI0
aI0
asg90
S'Prim'
p145
sg92
I5
sg93
I8
sg94
S'F'
sg95
I0
sg96
S'Mystic'
p146
sg98
I20
sg99
S'player'
p147
sg101
(I27
I0
tp148
sa(dp149
g7
S'None'
p150
sg9
(lp151
I105
aI80
aI5
aI60
aI55
aI45
aI35
aI20
asg11
I00
sg12
(lp152
(dp153
g15
Nsg16
I00
sg17
I00
sg18
I14
sg19
I00
sg20
S'Joel'
p154
sg22
S'Swordreaver'
p155
sa(dp156
g15
Nsg16
I00
sg17
I00
sg18
I24
sg19
I00
sg20
g154
sg22
S'Steel Axe'
p157
sa(dp158
g15
Nsg16
I00
sg17
I00
sg18
I35
sg19
I00
sg20
g154
sg22
S'Hatchet'
p159
sa(dp160
g15
Nsg16
I00
sg17
I00
sg18
I24
sg19
I00
sg20
g154
sg22
S'Iron Axe'
p161
sa(dp162
g15
Nsg16
I00
sg17
I00
sg18
I2
sg19
I00
sg20
g154
sg22
S'Potion'
p163
sasg32
(lp164
I80
aI30
aI80
aI10
aI80
aI20
aI60
aI70
asg34
g35
(g36
g37
NtRp165
(dp166
g40
I0
sg41
I27
sbsg42
(lp167
(I27
I0
tp168
a(I10
I0
tp169
a(I0
I0
tp170
a(I7
I0
tp171
a(I7
I0
tp172
a(I6
I0
tp173
a(I5
I0
tp174
a(I1
I0
tp175
a(I7
I0
tp176
a(I5
I0
tp177
asg54
S'0'
sg56
S'Resistance'
p178
sg58
S'A jovial former sailor. Always ready for a new adventure.'
p179
sg60
(lp180
sg63
(lp181
(dp182
g66
Nsg67
Nsg68
Nsg69
(lp183
sg71
Nsg72
I0
sg73
Nsg22
S'Cleave'
p184
sa(dp185
g66
Nsg67
Nsg68
Nsg69
(lp186
sg71
Nsg72
I0
sg73
Nsg22
S'Shove'
p187
sasg81
(dp188
g83
I0
sg84
I0
sg85
I0
ssg86
I00
sg87
g154
sg88
(lp189
I0
aI0
aI56
aI0
aI0
aI0
aI0
asg90
S'Joel'
p190
sg92
I4
sg93
I9
sg94
S'M'
sg95
I0
sg96
S'Fighter'
p191
sg98
I51
sg99
S'player'
p192
sg101
(I27
I1
tp193
sa(dp194
g7
S'None'
p195
sg9
(lp196
I80
aI55
aI35
aI80
aI80
aI25
aI20
aI40
asg11
I00
sg12
(lp197
(dp198
g15
Nsg16
I00
sg17
I00
sg18
I20
sg19
I00
sg20
S'Nia'
p199
sg22
S'Yew Bow'
p200
sa(dp201
g15
Nsg16
I00
sg17
I00
sg18
I27
sg19
I00
sg20
g199
sg22
S'Oak Bow'
p202
sa(dp203
g15
Nsg16
I00
sg17
I00
sg18
I18
sg19
I00
sg20
g199
sg22
S'Longbow'
p204
sa(dp205
g15
Nsg16
I00
sg17
I00
sg18
I37
sg19
I00
sg20
g199
sg22
S'Willow Bow'
p206
sa(dp207
g15
Nsg16
I00
sg17
I00
sg18
I2
sg19
I00
sg20
g199
sg22
S'Vulnerary'
p208
sasg32
(lp209
I10
aI35
aI95
aI10
aI10
aI25
aI90
aI30
asg34
g35
(g36
g37
NtRp210
(dp211
g40
I0
sg41
I19
sbsg42
(lp212
(I19
I0
tp213
a(I8
I0
tp214
a(I4
I0
tp215
a(I11
I0
tp216
a(I11
I0
tp217
a(I5
I0
tp218
a(I3
I0
tp219
a(I4
I0
tp220
a(I4
I0
tp221
a(I5
I0
tp222
asg54
S'0'
sg56
S'Resistance'
p223
sg58
S'A quiet archer most at home in the wilderness.'
p224
sg60
(lp225
sg63
(lp226
(dp227
g66
Nsg67
Nsg68
Nsg69
(lp228
sg71
Nsg72
Nsg73
Nsg22
S'Prescience'
p229
sa(dp230
g66
Nsg67
Nsg68
Nsg69
(lp231
sg71
Nsg72
I0
sg73
Nsg22
S'Critical'
p232
sasg81
(dp233
g83
I0
sg84
I0
sg85
I0
ssg86
I00
sg87
g199
sg88
(lp234
I0
aI0
aI0
aI55
aI0
aI0
aI0
asg90
S'Nia'
p235
sg92
I0
sg93
I10
sg94
S'F'
sg95
I0
sg96
S'Archer'
p236
sg98
I85
sg99
S'player'
p237
sg101
(I25
I1
tp238
sa(dp239
g7
S'None'
p240
sg9
(lp241
I60
aI15
aI85
aI40
aI60
aI60
aI20
aI55
asg11
I00
sg12
(lp242
(dp243
g15
Nsg16
I00
sg17
I00
sg18
I26
sg19
I00
sg20
S'Althea'
p244
sg22
S'Earth'
p245
sa(dp246
g15
Nsg16
I00
sg17
I00
sg18
I21
sg19
I00
sg20
g244
sg22
S'Water'
p247
sa(dp248
g15
Nsg16
I00
sg17
I00
sg18
I16
sg19
I00
sg20
g244
sg22
S'Wind'
p249
sa(dp250
g15
Nsg16
I00
sg17
I00
sg18
I7
sg19
I00
sg20
g244
sg22
S'Wyrmsfire'
p251
sa(dp252
g15
Nsg16
I00
sg17
I00
sg18
I3
sg19
I00
sg20
g244
sg22
S'Vulnerary'
p253
sasg32
(lp254
I30
aI70
aI30
aI70
aI30
aI30
aI10
aI90
asg34
g35
(g36
g37
NtRp255
(dp256
g40
I5
sg41
I16
sbsg42
(lp257
(I16
I5
tp258
a(I2
I0
tp259
a(I12
I0
tp260
a(I7
I0
tp261
a(I10
I-2
tp262
a(I10
I0
tp263
a(I4
I2
tp264
a(I7
I0
tp265
a(I3
I0
tp266
a(I5
I0
tp267
asg54
S'0'
sg56
S'Resistance'
p268
sg58
S'A forthright but elegant and refined sorceress.'
p269
sg60
(lp270
sg63
(lp271
(dp272
g66
Nsg67
Nsg68
Nsg69
(lp273
sg71
Nsg72
Nsg73
Nsg22
S'Focus'
p274
sa(dp275
g66
Nsg67
Nsg68
Nsg69
(lp276
sg71
Nsg72
Nsg73
Nsg22
S'fMaximum HP +5'
p277
sa(dp278
g66
Nsg67
Nsg68
Nsg69
(lp279
sg71
Nsg72
Nsg73
Nsg22
S'Speed -2'
p280
sa(dp281
g66
Nsg67
Nsg68
Nsg69
(lp282
sg71
Nsg72
Nsg73
Nsg22
S'Defense +2'
p283
sasg81
(dp284
g83
I0
sg84
I0
sg85
I0
ssg86
I00
sg87
g244
sg88
(lp285
I0
aI0
aI0
aI0
aI0
aI45
aI0
asg90
S'Althea'
p286
sg92
I5
sg93
I10
sg94
S'F'
sg95
I0
sg96
S'Mage'
p287
sg98
I65
sg99
S'player'
p288
sg101
(I25
I2
tp289
sa(dp290
g7
S'None'
p291
sg9
(lp292
I95
aI65
aI5
aI60
aI60
aI40
aI55
aI40
asg11
I00
sg12
(lp293
(dp294
g15
Nsg16
I00
sg17
I00
sg18
I27
sg19
I00
sg20
S'Drake'
p295
sg22
S'Steel Lance'
p296
sa(dp297
g15
Nsg16
I00
sg17
I00
sg18
I20
sg19
I00
sg20
g295
sg22
S'Javelin'
p298
sa(dp299
g15
Nsg16
I00
sg17
I00
sg18
I6
sg19
I00
sg20
g295
sg22
S'Iron Lance'
p300
sa(dp301
g15
Nsg16
I00
sg17
I00
sg18
I3
sg19
I00
sg20
g295
sg22
S'Vulnerary'
p302
sa(dp303
g15
Nsg16
I00
sg17
I00
sg18
I30
sg19
I00
sg20
g295
sg22
S'Steel Sword'
p304
sasg32
(lp305
I30
aI10
aI70
aI90
aI90
aI10
aI70
aI10
asg34
g35
(g36
g37
NtRp306
(dp307
g40
I0
sg41
I21
sbsg42
(lp308
(I21
I0
tp309
a(I9
I0
tp310
a(I1
I0
tp311
a(I8
I0
tp312
a(I7
I0
tp313
a(I9
I0
tp314
a(I7
I0
tp315
a(I5
I0
tp316
a(I7
I0
tp317
a(I7
I0
tp318
asg54
S'0'
sg56
S'Resistance'
p319
sg58
S"A disgraced Imperial knight now in Althea's service."
p320
sg60
(lp321
sg63
(lp322
(dp323
g66
Nsg67
Nsg68
Nsg69
(lp324
sg71
Nsg72
Nsg73
Nsg22
S'Canto'
p325
sa(dp326
g66
Nsg67
Nsg68
Nsg69
(lp327
sg71
Nsg72
Nsg73
Nsg22
S'Savior'
p328
sasg81
(dp329
g83
I0
sg84
I0
sg85
I0
ssg86
I00
sg87
g295
sg88
(lp330
I35
aI30
aI0
aI0
aI0
aI0
aI0
asg90
S'Drake'
p331
sg92
I2
sg93
I9
sg94
S'M'
sg95
I0
sg96
S'Cavalier'
p332
sg98
I87
sg99
S'player'
p333
sg101
(I26
I2
tp334
sa(dp335
g7
S'None'
p336
sg9
(lp337
I95
aI40
aI60
aI55
aI95
aI65
aI35
aI55
asg11
I00
sg12
(lp338
(dp339
g15
Nsg16
I00
sg17
I00
sg18
I6
sg19
I00
sg20
S'Renae'
p340
sg22
S'Levin Sword'
p341
sa(dp342
g15
Nsg16
I00
sg17
I00
sg18
I26
sg19
I00
sg20
g340
sg22
S'Iron Sword'
p343
sa(dp344
g15
Nsg16
I00
sg17
I00
sg18
Nsg19
I00
sg20
g340
sg22
S"Prim's Charm"
p345
sa(dp346
g15
Nsg16
I00
sg17
I00
sg18
I30
sg19
I00
sg20
g340
sg22
S'Steel Sword'
p347
sa(dp348
g15
Nsg16
I00
sg17
I00
sg18
I3
sg19
I00
sg20
g340
sg22
S'Vulnerary'
p349
sasg32
(lp350
I30
aI10
aI90
aI70
aI30
aI10
aI90
aI70
asg34
g35
(g36
g37
NtRp351
(dp352
g40
I0
sg41
I17
sbsg42
(lp353
(I17
I0
tp354
a(I5
I0
tp355
a(I5
I0
tp356
a(I7
I0
tp357
a(I13
I0
tp358
a(I6
I0
tp359
a(I3
I0
tp360
a(I5
I0
tp361
a(I4
I0
tp362
a(I6
I0
tp363
asg54
S'0'
sg56
S'Kerala'
p364
sg58
S'An energetic thief with a kleptomanic streak.'
p365
sg60
(lp366
sg63
(lp367
(dp368
g66
Nsg67
Nsg68
Nsg69
(lp369
sg71
Nsg72
Nsg73
Nsg22
S'Locktouch'
p370
sa(dp371
g66
Nsg67
Nsg68
Nsg69
(lp372
sg71
Nsg72
Nsg73
Nsg22
S'Steal'
p373
sa(dp374
g66
Nsg67
Nsg68
Nsg69
(lp375
sg71
Nsg72
Nsg73
Nsg22
S'Underdog'
p376
sasg81
(dp377
g83
I0
sg84
I0
sg85
I0
ssg86
I00
sg87
g340
sg88
(lp378
I39
aI0
aI0
aI0
aI0
aI0
aI0
asg90
S'Renae'
p379
sg92
I0
sg93
I8
sg94
S'F'
sg95
I0
sg96
S'Thief'
p380
sg98
I75
sg99
S'player'
p381
sg101
(I23
I0
tp382
sa(dp383
g7
S'None'
p384
sg9
(lp385
I120
aI55
aI25
aI40
aI40
aI45
aI75
aI40
asg11
I00
sg12
(lp386
(dp387
g15
Nsg16
I00
sg17
I00
sg18
I25
sg19
I00
sg20
S'Theo'
p388
sg22
S'Great Lance'
p389
sa(dp390
g15
Nsg16
I00
sg17
I00
sg18
I19
sg19
I00
sg20
g388
sg22
S'Mithril Lance'
p391
sa(dp392
g15
Nsg16
I00
sg17
I00
sg18
I45
sg19
I00
sg20
g388
sg22
S'Iron Lance'
p393
sa(dp394
g15
Nsg16
I00
sg17
I00
sg18
I20
sg19
I00
sg20
g388
sg22
S'Javelin'
p395
sa(dp396
g15
Nsg16
I00
sg17
I00
sg18
I3
sg19
I00
sg20
g388
sg22
S'Vulnerary'
p397
sasg32
(lp398
I30
aI70
aI50
aI10
aI10
aI30
aI50
aI10
asg34
g35
(g36
g37
NtRp399
(dp400
g40
I0
sg41
I23
sbsg42
(lp401
(I23
I0
tp402
a(I11
I0
tp403
a(I1
I0
tp404
a(I9
I0
tp405
a(I5
I0
tp406
a(I5
I0
tp407
a(I11
I0
tp408
a(I4
I0
tp409
a(I8
I0
tp410
a(I4
I0
tp411
asg54
S'0'
sg56
S'Resistance'
p412
sg58
S'An avid scholar. Interested in esoteric philosophy.'
p413
sg60
(lp414
sg63
(lp415
(dp416
g66
Nsg67
Nsg68
Nsg69
(lp417
sg71
Nsg72
Nsg73
Nsg22
S'Provoke'
p418
sa(dp419
g66
Nsg67
Nsg68
Nsg69
(lp420
sg71
Nsg72
I0
sg73
Nsg22
S'Shove'
p421
sa(dp422
g66
Nsg67
Nsg68
Nsg69
(lp423
sg71
Nsg72
Nsg73
Nsg22
S'tile_Regeneration'
p424
sasg81
(dp425
g83
I0
sg84
I0
sg85
I0
ssg86
I00
sg87
g388
sg88
(lp426
I0
aI46
aI0
aI0
aI0
aI0
aI0
asg90
S'Theo'
p427
sg92
I1
sg93
I8
sg94
S'M'
sg95
I0
sg96
S'Knight'
p428
sg98
I96
sg99
S'player'
p429
sg101
(I24
I1
tp430
sa(dp431
g7
S'None'
p432
sg9
(lp433
I75
aI65
aI65
aI80
aI65
aI35
aI65
aI35
asg11
I00
sg12
(lp434
(dp435
g15
Nsg16
I00
sg17
I00
sg18
I25
sg19
I00
sg20
S'Eliza'
p436
sg22
S'Great Lance'
p437
sa(dp438
g15
Nsg16
I00
sg17
I00
sg18
I13
sg19
I00
sg20
g436
sg22
S'Axereaver'
p439
sa(dp440
g15
Nsg16
I00
sg17
I00
sg18
I17
sg19
I00
sg20
g436
sg22
S'Slim Lance'
p441
sa(dp442
g15
Nsg16
I00
sg17
I00
sg18
I3
sg19
I00
sg20
g436
sg22
S'Vulnerary'
p443
sa(dp444
g15
Nsg16
I00
sg17
I00
sg18
I14
sg19
I00
sg20
g436
sg22
S'Short Spear'
p445
sasg32
(lp446
I25
aI35
aI35
aI70
aI35
aI65
aI35
aI65
asg34
g35
(g36
g37
NtRp447
(dp448
g40
I5
sg41
I20
sbsg42
(lp449
(I20
I5
tp450
a(I9
I0
tp451
a(I6
I0
tp452
a(I11
I0
tp453
a(I12
I0
tp454
a(I6
I0
tp455
a(I9
I0
tp456
a(I4
I0
tp457
a(I5
I0
tp458
a(I5
I0
tp459
asg54
S'0'
sg56
S'Resistance'
p460
sg58
S'A moody, sarcastic soldier.'
p461
sg60
(lp462
sg63
(lp463
(dp464
g66
Nsg67
Nsg68
Nsg69
(lp465
sg71
Nsg72
Nsg73
Nsg22
S'Synergy'
p466
sa(dp467
g66
Nsg67
Nsg68
Nsg69
(lp468
sg71
Nsg72
Nsg73
Nsg22
S'fMaximum HP +5'
p469
sasg81
(dp470
g83
I0
sg84
I0
sg85
I0
ssg86
I00
sg87
g436
sg88
(lp471
I0
aI42
aI0
aI0
aI0
aI0
aI0
asg90
S'Eliza'
p472
sg92
I4
sg93
I10
sg94
S'F'
sg95
I0
sg96
S'Soldier'
p473
sg98
I32
sg99
S'player'
p474
sg101
(I23
I2
tp475
sa(dp476
g7
S'None'
p477
sg9
(lp478
I65
aI15
aI35
aI45
aI55
aI55
aI40
aI65
asg11
I00
sg12
(lp479
(dp480
g15
Nsg16
I00
sg17
I00
sg18
I9
sg19
I00
sg20
S'Sam'
p481
sg22
S'Shine'
p482
sa(dp483
g15
Nsg16
I00
sg17
I00
sg18
I15
sg19
I00
sg20
g481
sg22
S'Mend'
p484
sa(dp485
g15
Nsg16
I00
sg17
I00
sg18
I30
sg19
I00
sg20
g481
sg22
S'Heal'
p486
sa(dp487
g15
Nsg16
I00
sg17
I00
sg18
I4
sg19
I00
sg20
g481
sg22
S'Fortune'
p488
sasg32
(lp489
I45
aI95
aI55
aI85
aI15
aI15
aI70
aI45
asg34
g35
(g36
g37
NtRp490
(dp491
g40
I0
sg41
I20
sbsg42
(lp492
(I20
I0
tp493
a(I3
I0
tp494
a(I8
I0
tp495
a(I9
I0
tp496
a(I11
I0
tp497
a(I9
I0
tp498
a(I4
I0
tp499
a(I9
I0
tp500
a(I6
I0
tp501
a(I5
I0
tp502
asg54
S'Sam'
p503
sg56
S'Resistance'
p504
sg58
S"The resistance's leader. Ambitious and inquisitive."
p505
sg60
(lp506
sg63
(lp507
(dp508
g66
Nsg67
Nsg68
Nsg69
(lp509
sg71
Nsg72
Nsg73
Nsg22
S'Inspiration'
p510
sa(dp511
g66
Nsg67
Nsg68
Nsg69
(lp512
sg71
Nsg72
Nsg73
Nsg22
S'Skill_Aura'
p513
sasg81
(dp514
g83
I0
sg84
I0
sg85
I0
ssg86
I00
sg87
g481
sg88
(lp515
I0
aI0
aI0
aI0
aI53
aI0
aI0
asg90
S'Sam'
p516
sg92
I5
sg93
I10
sg94
S'M'
sg95
I0
sg96
S'Tactician'
p517
sg98
I43
sg99
S'player'
p518
sg101
(I25
I3
tp519
sa(dp520
g7
S'None'
p521
sg9
(lp522
I55
aI5
aI65
aI55
aI45
aI35
aI40
aI55
asg11
I00
sg12
(lp523
(dp524
g15
Nsg16
I00
sg17
I00
sg18
I25
sg19
I00
sg20
S'Kayla'
p525
sg22
S'Nyx'
p526
sa(dp527
g15
Nsg16
I00
sg17
I00
sg18
I34
sg19
I00
sg20
g525
sg22
S'Flux'
p528
sa(dp529
g15
Nsg16
I00
sg17
I00
sg18
I2
sg19
I00
sg20
g525
sg22
S'Scathe'
p530
sa(dp531
g15
Nsg16
I00
sg17
I00
sg18
I3
sg19
I00
sg20
g525
sg22
S'Vulnerary'
p532
sa(dp533
g15
Nsg16
I00
sg17
I00
sg18
I10
sg19
I00
sg20
g525
sg22
S'Scathe'
p534
sasg32
(lp535
I60
aI60
aI80
aI60
aI40
aI20
aI30
aI60
asg34
g35
(g36
g37
NtRp536
(dp537
g40
I0
sg41
I20
sbsg42
(lp538
(I20
I0
tp539
a(I1
I0
tp540
a(I10
I0
tp541
a(I9
I0
tp542
a(I8
I0
tp543
a(I7
I0
tp544
a(I6
I0
tp545
a(I8
I0
tp546
a(I4
I0
tp547
a(I4
I0
tp548
asg54
S'Kayla'
p549
sg56
S'Resistance'
p550
sg58
S'A scheming diplomat from the Confederacy.'
p551
sg60
(lp552
sg63
(lp553
(dp554
g66
Nsg67
Nsg68
Nsg69
(lp555
sg71
Nsg72
Nsg73
Nsg22
S'Hex'
p556
sa(dp557
g66
Nsg67
Nsg68
Nsg69
(lp558
sg71
Nsg72
Nsg73
Nsg22
S'Empowered'
p559
sasg81
(dp560
g83
I0
sg84
I0
sg85
I0
ssg86
I00
sg87
g525
sg88
(lp561
I0
aI0
aI0
aI0
aI0
aI0
aI52
asg90
S'Kayla'
p562
sg92
I5
sg93
I10
sg94
S'F'
sg95
I0
sg96
S'Shaman'
p563
sg98
I57
sg99
S'player'
p564
sg101
(I27
I3
tp565
sa(dp566
g7
S'Pursue'
p567
sg9
(lp568
I120
aI65
aI5
aI55
aI40
aI20
aI35
aI20
asg11
I00
sg12
(lp569
(dp570
g15
Nsg16
I00
sg17
I00
sg18
I9
sg19
I00
sg20
S'Coyote'
p571
sg22
S'Superior Edge'
p572
sa(dp573
g15
Nsg16
I00
sg17
I00
sg18
I11
sg19
I00
sg20
g571
sg22
S'Rusted Sword'
p574
sa(dp575
g15
Nsg16
I00
sg17
I00
sg18
I16
sg19
I00
sg20
g571
sg22
S'Iron Knife'
p576
sa(dp577
g15
Nsg16
I00
sg17
I00
sg18
I3
sg19
I00
sg20
g571
sg22
S'Vulnerary'
p578
sa(dp579
g15
Nsg16
I00
sg17
I00
sg18
I25
sg19
I00
sg20
g571
sg22
S'Great Sword'
p580
sasg32
(lp581
I70
aI15
aI55
aI5
aI90
aI70
aI85
aI70
asg34
g35
(g36
g37
NtRp582
(dp583
g40
I0
sg41
I26
sbsg42
(lp584
(I26
I0
tp585
a(I10
I0
tp586
a(I0
I0
tp587
a(I12
I0
tp588
a(I9
I0
tp589
a(I4
I0
tp590
a(I6
I0
tp591
a(I2
I0
tp592
a(I7
I0
tp593
a(I5
I0
tp594
asg54
S'0'
sg56
S'Resistance'
p595
sg58
S'A troubled wandererer with a mysterious past.'
p596
sg60
(lp597
sg63
(lp598
(dp599
g66
Nsg67
Nsg68
Nsg69
(lp600
sg71
Nsg72
Nsg73
Nsg22
S'Initiative'
p601
sa(dp602
g66
Nsg67
Nsg68
Nsg69
(lp603
sg71
Nsg72
Nsg73
Nsg22
S'Resist Status'
p604
sa(dp605
g66
Nsg67
Nsg68
Nsg69
(lp606
sg71
Nsg72
Nsg73
Nsg22
S'Swordbreaker'
p607
sasg81
(dp608
g83
I0
sg84
I0
sg85
I0
ssg86
I00
sg87
g571
sg88
(lp609
I50
aI0
aI0
aI0
aI0
aI0
aI0
asg90
S'Coyote'
p610
sg92
I4
sg93
I10
sg94
S'M'
sg95
I0
sg96
S'Mercenary'
p611
sg98
I51
sg99
S'player'
p612
sg101
(I26
I4
tp613
sa(dp614
g7
S'HardGuard'
p615
sg9
(lp616
I100
aI50
aI100
aI50
aI50
aI0
aI0
aI100
asg11
I00
sg12
(lp617
(dp618
g15
Nsg16
I00
sg17
I00
sg18
I15
sg19
I00
sg20
S'Marduk'
p619
sg22
S'Corona'
p620
sa(dp621
g15
Nsg16
I00
sg17
I00
sg18
I15
sg19
I00
sg20
g619
sg22
S'Physic'
p622
sa(dp623
g15
Nsg16
I00
sg17
I01
sg18
I1
sg19
I00
sg20
g619
sg22
S'Secret Book'
p624
sasg32
(lp625
I50
aI50
aI50
aI50
aI50
aI50
aI50
aI50
asg34
I23
sg42
(lp626
(I23
I0
tp627
a(I5
I0
tp628
a(I13
I0
tp629
a(I11
I0
tp630
a(I9
I0
tp631
a(I3
I0
tp632
a(I5
I2
tp633
a(I15
I0
tp634
a(I5
I0
tp635
a(I0
I0
tp636
asg54
S'Marduk'
p637
sg56
S'Empire'
p638
sg58
S"A member of the Empire's elite cadre of tacticians."
p639
sg60
(lp640
S'Boss'
p641
aS'Zero_Move'
p642
asg63
(lp643
(dp644
g66
Nsg67
Nsg68
Nsg69
(lp645
sg71
Nsg72
Nsg73
Nsg22
S'Inspiration'
p646
sa(dp647
g66
Nsg67
Nsg68
Nsg69
(lp648
sg71
Nsg72
Nsg73
Nsg22
S'Skill_Aura'
p649
sa(dp650
g66
Nsg67
Nsg68
Nsg69
(lp651
sg71
Nsg72
I0
sg73
Nsg22
S'Rally'
p652
sa(dp653
g66
Nsg67
Nsg68
Nsg69
(lp654
sg71
Nsg72
Nsg73
Nsg22
S'fDefense +2'
p655
sasg81
(dp656
S'damage'
p657
I0
sS'kills'
p658
I0
sS'healing'
p659
I0
ssg86
I00
sg87
g619
sg88
(lp660
I0
aI0
aI0
aI0
aI76
aI0
aI0
asg90
S'Marduk'
p661
sg92
I5
sg93
I15
sg94
S'M'
sg95
I0
sg96
S'Strategist'
p662
sg98
I0
sg99
S'enemy'
p663
sg101
(I2
I21
tp664
sa(dp665
g7
S'None'
p666
sg9
(lp667
I100
aI0
aI50
aI50
aI50
aI100
aI0
aI100
asg11
I00
sg12
(lp668
(dp669
g15
Nsg16
I00
sg17
I00
sg18
I15
sg19
I00
sg20
S'Vagnius'
p670
sg22
S'Ruin'
p671
sa(dp672
g15
Nsg16
I00
sg17
I01
sg18
I1
sg19
I00
sg20
g670
sg22
S'Mana Ring'
p673
sasg32
(lp674
I50
aI50
aI50
aI50
aI50
aI50
aI50
aI50
asg34
I34
sg42
(lp675
(I34
I0
tp676
a(I3
I0
tp677
a(I15
I2
tp678
a(I14
I0
tp679
a(I13
I0
tp680
a(I7
I0
tp681
a(I11
I0
tp682
a(I13
I0
tp683
a(I7
I0
tp684
a(I5
I0
tp685
asg54
S'Vagnius'
p686
sg56
S'Empire'
p687
sg58
S'Ruthless and cunning Imperial warlock.'
p688
sg60
(lp689
sg63
(lp690
(dp691
g66
Nsg67
Nsg68
Nsg69
(lp692
sg71
Nsg72
Nsg73
Nsg22
S'Hex'
p693
sa(dp694
g66
Nsg67
Nsg68
Nsg69
(lp695
sg71
Nsg72
Nsg73
Nsg22
S'Empowered'
p696
sa(dp697
g66
Nsg67
Nsg68
Nsg69
(lp698
sg71
Nsg72
I0
sg73
Nsg22
S'Gate'
p699
sa(dp700
g66
Nsg67
Nsg68
Nsg69
(lp701
sg71
Nsg72
Nsg73
Nsg22
S'fMagic +2'
p702
sasg81
(dp703
g657
I0
sg658
I0
sg659
I0
ssg86
I00
sg87
g670
sg88
(lp704
I0
aI0
aI0
aI0
aI0
aI0
aI76
asg90
S'Vagnius'
p705
sg92
I5
sg93
I18
sg94
S'M'
sg95
I0
sg96
S'Warlock'
p706
sg98
I0
sg99
S'enemy'
p707
sg101
Nsa(dp708
g7
S'HardGuard'
p709
sg9
(lp710
I95
aI45
aI0
aI55
aI0
aI0
aI20
aI25
asg11
I00
sg12
(lp711
(dp712
g15
Nsg16
I00
sg17
I00
sg18
I5
sg19
I00
sg20
I101
sg22
S'Ballista'
p713
sasg32
(lp714
I55
aI5
aI0
aI95
aI0
aI0
aI80
aI25
asg34
I15
sg42
(lp715
(I20
I0
tp716
a(I7
I0
tp717
a(I0
I0
tp718
a(I8
I0
tp719
a(I0
I0
tp720
a(I0
I0
tp721
a(I3
I0
tp722
a(I2
I0
tp723
a(I13
I0
tp724
a(I0
I0
tp725
asg54
S'0'
sg56
S'Empire'
p726
sg58
S'An imperial soldier'
p727
sg60
(lp728
sg63
(lp729
sg81
(dp730
g657
I0
sg658
I0
sg659
I0
ssg86
I00
sg87
I101
sg88
(lp731
I0
aI0
aI0
aI1
aI0
aI0
aI0
asg90
S'Soldier'
p732
sg92
I1
sg93
I10
sg94
S'M'
sg95
I0
sg96
S'Ballista'
p733
sg98
I0
sg99
S'enemy'
p734
sg101
(I7
I22
tp735
sa(dp736
g7
S'HardGuard'
p737
sg9
(lp738
I95
aI45
aI0
aI55
aI0
aI0
aI20
aI25
asg11
I00
sg12
(lp739
(dp740
g15
Nsg16
I00
sg17
I00
sg18
I5
sg19
I00
sg20
I102
sg22
S'Ballista'
p741
sasg32
(lp742
I55
aI5
aI0
aI95
aI0
aI0
aI80
aI25
asg34
I16
sg42
(lp743
(I20
I0
tp744
a(I7
I0
tp745
a(I0
I0
tp746
a(I8
I0
tp747
a(I0
I0
tp748
a(I0
I0
tp749
a(I3
I0
tp750
a(I2
I0
tp751
a(I13
I0
tp752
a(I0
I0
tp753
asg54
S'0'
sg56
g726
sg58
g727
sg60
(lp754
sg63
(lp755
sg81
(dp756
g657
I0
sg658
I0
sg659
I0
ssg86
I00
sg87
I102
sg88
(lp757
I0
aI0
aI0
aI1
aI0
aI0
aI0
asg90
g732
sg92
I1
sg93
I10
sg94
S'M'
sg95
I0
sg96
S'Ballista'
p758
sg98
I0
sg99
S'enemy'
p759
sg101
(I5
I20
tp760
sa(dp761
g7
S'HardGuard'
p762
sg9
(lp763
I95
aI45
aI0
aI55
aI0
aI0
aI20
aI25
asg11
I00
sg12
(lp764
(dp765
g15
Nsg16
I00
sg17
I00
sg18
I5
sg19
I00
sg20
I103
sg22
S'Ballista'
p766
sasg32
(lp767
I55
aI5
aI0
aI95
aI0
aI0
aI80
aI25
asg34
I15
sg42
(lp768
(I20
I0
tp769
a(I7
I0
tp770
a(I0
I0
tp771
a(I8
I0
tp772
a(I0
I0
tp773
a(I0
I0
tp774
a(I3
I0
tp775
a(I2
I0
tp776
a(I13
I0
tp777
a(I0
I0
tp778
asg54
S'0'
sg56
g726
sg58
g727
sg60
(lp779
sg63
(lp780
sg81
(dp781
g657
I0
sg658
I0
sg659
I0
ssg86
I00
sg87
I103
sg88
(lp782
I0
aI0
aI0
aI1
aI0
aI0
aI0
asg90
g732
sg92
I1
sg93
I10
sg94
S'M'
sg95
I0
sg96
S'Ballista'
p783
sg98
I0
sg99
S'enemy'
p784
sg101
(I3
I17
tp785
sa(dp786
g7
S'Attack_1'
p787
sg9
(lp788
I105
aI55
aI15
aI55
aI45
aI40
aI25
aI25
asg11
I00
sg12
(lp789
(dp790
g15
Nsg16
I00
sg17
I00
sg18
I45
sg19
I00
sg20
I104
sg22
S'Iron Sword'
p791
sasg32
(lp792
I45
aI95
aI35
aI95
aI5
aI60
aI25
aI25
asg34
I21
sg42
(lp793
(I21
I0
tp794
a(I7
I0
tp795
a(I1
I0
tp796
a(I9
I0
tp797
a(I9
I0
tp798
a(I3
I0
tp799
a(I5
I0
tp800
a(I2
I0
tp801
a(I6
I0
tp802
a(I5
I0
tp803
asg54
S'0'
sg56
g726
sg58
g727
sg60
(lp804
sg63
(lp805
(dp806
g66
Nsg67
Nsg68
Nsg69
(lp807
sg71
Nsg72
Nsg73
Nsg22
S'Initiative'
p808
sa(dp809
g66
Nsg67
Nsg68
Nsg69
(lp810
sg71
Nsg72
Nsg73
Nsg22
S'Resist Status'
p811
sasg81
(dp812
g657
I0
sg658
I0
sg659
I0
ssg86
I00
sg87
I104
sg88
(lp813
I1
aI0
aI0
aI0
aI0
aI0
aI0
asg90
g732
sg92
I4
sg93
I10
sg94
S'M'
sg95
I0
sg96
S'Mercenary'
p814
sg98
I0
sg99
S'enemy'
p815
sg101
(I13
I4
tp816
sa(dp817
g7
S'Attack_1'
p818
sg9
(lp819
I105
aI55
aI15
aI55
aI45
aI40
aI25
aI25
asg11
I00
sg12
(lp820
(dp821
g15
Nsg16
I00
sg17
I00
sg18
I45
sg19
I00
sg20
I105
sg22
S'Iron Sword'
p822
sasg32
(lp823
I45
aI95
aI35
aI95
aI5
aI60
aI25
aI25
asg34
I21
sg42
(lp824
(I21
I0
tp825
a(I7
I0
tp826
a(I1
I0
tp827
a(I9
I0
tp828
a(I9
I0
tp829
a(I3
I0
tp830
a(I5
I0
tp831
a(I2
I0
tp832
a(I6
I0
tp833
a(I5
I0
tp834
asg54
S'0'
sg56
g726
sg58
g727
sg60
(lp835
sg63
(lp836
(dp837
g66
Nsg67
Nsg68
Nsg69
(lp838
sg71
Nsg72
Nsg73
Nsg22
g808
sa(dp839
g66
Nsg67
Nsg68
Nsg69
(lp840
sg71
Nsg72
Nsg73
Nsg22
g811
sasg81
(dp841
g657
I0
sg658
I0
sg659
I0
ssg86
I00
sg87
I105
sg88
(lp842
I1
aI0
aI0
aI0
aI0
aI0
aI0
asg90
g732
sg92
I4
sg93
I10
sg94
S'M'
sg95
I0
sg96
S'Mercenary'
p843
sg98
I0
sg99
S'enemy'
p844
sg101
(I13
I6
tp845
sa(dp846
g7
S'Attack_1'
p847
sg9
(lp848
I105
aI55
aI15
aI55
aI45
aI40
aI25
aI25
asg11
I00
sg12
(lp849
(dp850
g15
Nsg16
I00
sg17
I00
sg18
I45
sg19
I00
sg20
I106
sg22
S'Iron Sword'
p851
sasg32
(lp852
I45
aI95
aI35
aI95
aI5
aI60
aI25
aI25
asg34
I21
sg42
(lp853
(I21
I0
tp854
a(I7
I0
tp855
a(I1
I0
tp856
a(I9
I0
tp857
a(I9
I0
tp858
a(I3
I0
tp859
a(I5
I0
tp860
a(I2
I0
tp861
a(I6
I0
tp862
a(I5
I0
tp863
asg54
S'0'
sg56
g726
sg58
g727
sg60
(lp864
sg63
(lp865
(dp866
g66
Nsg67
Nsg68
Nsg69
(lp867
sg71
Nsg72
Nsg73
Nsg22
g808
sa(dp868
g66
Nsg67
Nsg68
Nsg69
(lp869
sg71
Nsg72
Nsg73
Nsg22
g811
sasg81
(dp870
g657
I0
sg658
I0
sg659
I0
ssg86
I00
sg87
I106
sg88
(lp871
I1
aI0
aI0
aI0
aI0
aI0
aI0
asg90
g732
sg92
I4
sg93
I10
sg94
S'M'
sg95
I0
sg96
S'Mercenary'
p872
sg98
I0
sg99
S'enemy'
p873
sg101
(I17
I4
tp874
sa(dp875
g7
S'Attack_1'
p876
sg9
(lp877
I105
aI55
aI15
aI55
aI45
aI40
aI25
aI25
asg11
I00
sg12
(lp878
(dp879
g15
Nsg16
I00
sg17
I00
sg18
I45
sg19
I00
sg20
I107
sg22
S'Iron Sword'
p880
sasg32
(lp881
I45
aI95
aI35
aI95
aI5
aI60
aI25
aI25
asg34
I21
sg42
(lp882
(I21
I0
tp883
a(I7
I0
tp884
a(I1
I0
tp885
a(I9
I0
tp886
a(I9
I0
tp887
a(I3
I0
tp888
a(I5
I0
tp889
a(I2
I0
tp890
a(I6
I0
tp891
a(I5
I0
tp892
asg54
S'0'
sg56
g726
sg58
g727
sg60
(lp893
sg63
(lp894
(dp895
g66
Nsg67
Nsg68
Nsg69
(lp896
sg71
Nsg72
Nsg73
Nsg22
g808
sa(dp897
g66
Nsg67
Nsg68
Nsg69
(lp898
sg71
Nsg72
Nsg73
Nsg22
g811
sasg81
(dp899
g657
I0
sg658
I0
sg659
I0
ssg86
I00
sg87
I107
sg88
(lp900
I1
aI0
aI0
aI0
aI0
aI0
aI0
asg90
g732
sg92
I4
sg93
I10
sg94
S'M'
sg95
I0
sg96
S'Mercenary'
p901
sg98
I0
sg99
S'enemy'
p902
sg101
(I16
I3
tp903
sa(dp904
g7
S'Attack_1'
p905
sg9
(lp906
I100
aI65
aI5
aI45
aI35
aI20
aI15
aI15
asg11
I00
sg12
(lp907
(dp908
g15
Nsg16
I00
sg17
I00
sg18
I20
sg19
I00
sg20
I108
sg22
S'Hand Axe'
p909
sasg32
(lp910
I0
aI85
aI45
aI5
aI15
aI80
aI35
aI35
asg34
I22
sg42
(lp911
(I22
I0
tp912
a(I8
I0
tp913
a(I0
I0
tp914
a(I5
I0
tp915
a(I7
I0
tp916
a(I1
I0
tp917
a(I3
I0
tp918
a(I1
I0
tp919
a(I7
I0
tp920
a(I5
I0
tp921
asg54
S'0'
sg56
g726
sg58
g727
sg60
(lp922
sg63
(lp923
(dp924
g66
Nsg67
Nsg68
Nsg69
(lp925
sg71
Nsg72
Nsg73
Nsg22
S'Prescience'
p926
sa(dp927
g66
Nsg67
Nsg68
Nsg69
(lp928
sg71
Nsg72
I0
sg73
Nsg22
S'Shove'
p929
sasg81
(dp930
g657
I0
sg658
I0
sg659
I0
ssg86
I00
sg87
I108
sg88
(lp931
I0
aI0
aI1
aI0
aI0
aI0
aI0
asg90
g732
sg92
I4
sg93
I10
sg94
S'M'
sg95
I0
sg96
S'Raider'
p932
sg98
I0
sg99
S'enemy'
p933
sg101
(I14
I1
tp934
sa(dp935
g7
S'Attack_1'
p936
sg9
(lp937
I100
aI65
aI5
aI45
aI35
aI20
aI15
aI15
asg11
I00
sg12
(lp938
(dp939
g15
Nsg16
I00
sg17
I00
sg18
I20
sg19
I00
sg20
I109
sg22
S'Hand Axe'
p940
sasg32
(lp941
I0
aI85
aI45
aI5
aI15
aI80
aI35
aI35
asg34
I22
sg42
(lp942
(I22
I0
tp943
a(I8
I0
tp944
a(I0
I0
tp945
a(I5
I0
tp946
a(I7
I0
tp947
a(I1
I0
tp948
a(I3
I0
tp949
a(I1
I0
tp950
a(I7
I0
tp951
a(I5
I0
tp952
asg54
S'0'
sg56
g726
sg58
g727
sg60
(lp953
sg63
(lp954
(dp955
g66
Nsg67
Nsg68
Nsg69
(lp956
sg71
Nsg72
Nsg73
Nsg22
g926
sa(dp957
g66
Nsg67
Nsg68
Nsg69
(lp958
sg71
Nsg72
I0
sg73
Nsg22
g929
sasg81
(dp959
g657
I0
sg658
I0
sg659
I0
ssg86
I00
sg87
I109
sg88
(lp960
I0
aI0
aI1
aI0
aI0
aI0
aI0
asg90
g732
sg92
I4
sg93
I10
sg94
S'M'
sg95
I0
sg96
S'Raider'
p961
sg98
I0
sg99
S'enemy'
p962
sg101
(I10
I4
tp963
sa(dp964
g7
S'Attack_1'
p965
sg9
(lp966
I100
aI65
aI5
aI45
aI35
aI20
aI15
aI15
asg11
I00
sg12
(lp967
(dp968
g15
Nsg16
I00
sg17
I00
sg18
I30
sg19
I00
sg20
I110
sg22
S'Steel Axe'
p969
sasg32
(lp970
I0
aI85
aI45
aI5
aI15
aI80
aI35
aI35
asg34
I22
sg42
(lp971
(I22
I0
tp972
a(I8
I0
tp973
a(I0
I0
tp974
a(I5
I0
tp975
a(I7
I0
tp976
a(I1
I0
tp977
a(I3
I0
tp978
a(I1
I0
tp979
a(I7
I0
tp980
a(I5
I0
tp981
asg54
S'0'
sg56
g726
sg58
g727
sg60
(lp982
sg63
(lp983
(dp984
g66
Nsg67
Nsg68
Nsg69
(lp985
sg71
Nsg72
Nsg73
Nsg22
g926
sa(dp986
g66
Nsg67
Nsg68
Nsg69
(lp987
sg71
Nsg72
I0
sg73
Nsg22
g929
sasg81
(dp988
g657
I0
sg658
I0
sg659
I0
ssg86
I00
sg87
I110
sg88
(lp989
I0
aI0
aI16
aI0
aI0
aI0
aI0
asg90
g732
sg92
I4
sg93
I10
sg94
S'M'
sg95
I0
sg96
S'Raider'
p990
sg98
I0
sg99
S'enemy'
p991
sg101
(I11
I6
tp992
sa(dp993
g7
S'Attack_1'
p994
sg9
(lp995
I100
aI65
aI5
aI45
aI35
aI20
aI15
aI15
asg11
I00
sg12
(lp996
(dp997
g15
Nsg16
I00
sg17
I00
sg18
I30
sg19
I00
sg20
I111
sg22
S'Steel Axe'
p998
sasg32
(lp999
I0
aI85
aI45
aI5
aI15
aI80
aI35
aI35
asg34
I22
sg42
(lp1000
(I22
I0
tp1001
a(I8
I0
tp1002
a(I0
I0
tp1003
a(I5
I0
tp1004
a(I7
I0
tp1005
a(I1
I0
tp1006
a(I3
I0
tp1007
a(I1
I0
tp1008
a(I7
I0
tp1009
a(I5
I0
tp1010
asg54
S'0'
sg56
g726
sg58
g727
sg60
(lp1011
sg63
(lp1012
(dp1013
g66
Nsg67
Nsg68
Nsg69
(lp1014
sg71
Nsg72
Nsg73
Nsg22
g926
sa(dp1015
g66
Nsg67
Nsg68
Nsg69
(lp1016
sg71
Nsg72
I0
sg73
Nsg22
g929
sasg81
(dp1017
g657
I0
sg658
I0
sg659
I0
ssg86
I00
sg87
I111
sg88
(lp1018
I0
aI0
aI16
aI0
aI0
aI0
aI0
asg90
g732
sg92
I4
sg93
I10
sg94
S'M'
sg95
I0
sg96
S'Raider'
p1019
sg98
I0
sg99
S'enemy'
p1020
sg101
(I15
I6
tp1021
sa(dp1022
g7
S'Attack_1'
p1023
sg9
(lp1024
I100
aI40
aI20
aI40
aI25
aI35
aI25
aI25
asg11
I00
sg12
(lp1025
(dp1026
g15
Nsg16
I00
sg17
I01
sg18
I20
sg19
I00
sg20
I112
sg22
S'Mithril Sword'
p1027
sasg32
(lp1028
I0
aI40
aI20
aI40
aI75
aI85
aI75
aI75
asg34
I26
sg42
(lp1029
(I26
I0
tp1030
a(I8
I0
tp1031
a(I2
I0
tp1032
a(I11
I0
tp1033
a(I9
I0
tp1034
a(I3
I0
tp1035
a(I7
I0
tp1036
a(I4
I0
tp1037
a(I7
I0
tp1038
a(I6
I0
tp1039
asg54
S'0'
sg56
g726
sg58
g727
sg60
(lp1040
sg63
(lp1041
(dp1042
g66
Nsg67
Nsg68
Nsg69
(lp1043
sg71
Nsg72
Nsg73
Nsg22
g808
sa(dp1044
g66
Nsg67
Nsg68
Nsg69
(lp1045
sg71
Nsg72
Nsg73
Nsg22
g811
sa(dp1046
g66
Nsg67
Nsg68
Nsg69
(lp1047
sg71
Nsg72
Nsg73
Nsg22
S'Poise'
p1048
sasg81
(dp1049
g657
I0
sg658
I0
sg659
I0
ssg86
I00
sg87
I112
sg88
(lp1050
I41
aI0
aI16
aI0
aI0
aI0
aI0
asg90
g732
sg92
I4
sg93
I12
sg94
S'M'
sg95
I0
sg96
S'Vanguard'
p1051
sg98
I0
sg99
S'enemy'
p1052
sg101
(I12
I5
tp1053
sa(dp1054
g7
S'Attack_2'
p1055
sg9
(lp1056
I85
aI45
aI35
aI55
aI105
aI45
aI15
aI45
asg11
I00
sg12
(lp1057
(dp1058
g15
Nsg16
I00
sg17
I00
sg18
I45
sg19
I00
sg20
I113
sg22
S'Iron Lance'
p1059
sasg32
(lp1060
I65
aI5
aI15
aI95
aI45
aI5
aI35
aI5
asg34
I16
sg42
(lp1061
(I16
I0
tp1062
a(I6
I0
tp1063
a(I5
I0
tp1064
a(I7
I0
tp1065
a(I12
I0
tp1066
a(I4
I0
tp1067
a(I2
I0
tp1068
a(I6
I0
tp1069
a(I4
I0
tp1070
a(I6
I0
tp1071
asg54
S'0'
sg56
g726
sg58
g727
sg60
(lp1072
sg63
(lp1073
(dp1074
g66
Nsg67
Nsg68
Nsg69
(lp1075
sg71
Nsg72
Nsg73
Nsg22
S'Fleet_of_Foot'
p1076
sa(dp1077
g66
Nsg67
Nsg68
Nsg69
(lp1078
sg71
Nsg72
Nsg73
Nsg22
S'Evasion'
p1079
sasg81
(dp1080
g657
I0
sg658
I0
sg659
I0
ssg86
I00
sg87
I113
sg88
(lp1081
I0
aI1
aI0
aI0
aI0
aI0
aI0
asg90
g732
sg92
I0
sg93
I10
sg94
S'M'
sg95
I0
sg96
S'Skirmisher'
p1082
sg98
I0
sg99
S'enemy'
p1083
sg101
(I23
I10
tp1084
sa(dp1085
g7
S'Attack_2'
p1086
sg9
(lp1087
I85
aI45
aI35
aI55
aI105
aI45
aI15
aI45
asg11
I00
sg12
(lp1088
(dp1089
g15
Nsg16
I00
sg17
I00
sg18
I45
sg19
I00
sg20
I114
sg22
S'Iron Lance'
p1090
sasg32
(lp1091
I65
aI5
aI15
aI95
aI45
aI5
aI35
aI5
asg34
I16
sg42
(lp1092
(I16
I0
tp1093
a(I6
I0
tp1094
a(I5
I0
tp1095
a(I7
I0
tp1096
a(I12
I0
tp1097
a(I4
I0
tp1098
a(I2
I0
tp1099
a(I6
I0
tp1100
a(I4
I0
tp1101
a(I6
I0
tp1102
asg54
S'0'
sg56
g726
sg58
g727
sg60
(lp1103
sg63
(lp1104
(dp1105
g66
Nsg67
Nsg68
Nsg69
(lp1106
sg71
Nsg72
Nsg73
Nsg22
g1076
sa(dp1107
g66
Nsg67
Nsg68
Nsg69
(lp1108
sg71
Nsg72
Nsg73
Nsg22
g1079
sasg81
(dp1109
g657
I0
sg658
I0
sg659
I0
ssg86
I00
sg87
I114
sg88
(lp1110
I0
aI1
aI0
aI0
aI0
aI0
aI0
asg90
g732
sg92
I0
sg93
I10
sg94
S'M'
sg95
I0
sg96
S'Skirmisher'
p1111
sg98
I0
sg99
S'enemy'
p1112
sg101
(I25
I11
tp1113
sa(dp1114
g7
S'Attack_2'
p1115
sg9
(lp1116
I85
aI45
aI35
aI55
aI105
aI45
aI15
aI45
asg11
I00
sg12
(lp1117
(dp1118
g15
Nsg16
I00
sg17
I00
sg18
I45
sg19
I00
sg20
I115
sg22
S'Iron Lance'
p1119
sasg32
(lp1120
I65
aI5
aI15
aI95
aI45
aI5
aI35
aI5
asg34
I16
sg42
(lp1121
(I16
I0
tp1122
a(I6
I0
tp1123
a(I5
I0
tp1124
a(I7
I0
tp1125
a(I12
I0
tp1126
a(I4
I0
tp1127
a(I2
I0
tp1128
a(I6
I0
tp1129
a(I4
I0
tp1130
a(I6
I0
tp1131
asg54
S'0'
sg56
g726
sg58
g727
sg60
(lp1132
sg63
(lp1133
(dp1134
g66
Nsg67
Nsg68
Nsg69
(lp1135
sg71
Nsg72
Nsg73
Nsg22
g1076
sa(dp1136
g66
Nsg67
Nsg68
Nsg69
(lp1137
sg71
Nsg72
Nsg73
Nsg22
g1079
sasg81
(dp1138
g657
I0
sg658
I0
sg659
I0
ssg86
I00
sg87
I115
sg88
(lp1139
I0
aI1
aI0
aI0
aI0
aI0
aI0
asg90
g732
sg92
I0
sg93
I10
sg94
S'M'
sg95
I0
sg96
S'Skirmisher'
p1140
sg98
I0
sg99
S'enemy'
p1141
sg101
(I19
I12
tp1142
sa(dp1143
g7
S'Attack_2'
p1144
sg9
(lp1145
I85
aI45
aI35
aI55
aI105
aI45
aI15
aI45
asg11
I00
sg12
(lp1146
(dp1147
g15
Nsg16
I00
sg17
I00
sg18
I45
sg19
I00
sg20
I116
sg22
S'Iron Lance'
p1148
sasg32
(lp1149
I65
aI5
aI15
aI95
aI45
aI5
aI35
aI5
asg34
I16
sg42
(lp1150
(I16
I0
tp1151
a(I6
I0
tp1152
a(I5
I0
tp1153
a(I7
I0
tp1154
a(I12
I0
tp1155
a(I4
I0
tp1156
a(I2
I0
tp1157
a(I6
I0
tp1158
a(I4
I0
tp1159
a(I6
I0
tp1160
asg54
S'0'
sg56
g726
sg58
g727
sg60
(lp1161
sg63
(lp1162
(dp1163
g66
Nsg67
Nsg68
Nsg69
(lp1164
sg71
Nsg72
Nsg73
Nsg22
g1076
sa(dp1165
g66
Nsg67
Nsg68
Nsg69
(lp1166
sg71
Nsg72
Nsg73
Nsg22
g1079
sasg81
(dp1167
g657
I0
sg658
I0
sg659
I0
ssg86
I00
sg87
I116
sg88
(lp1168
I0
aI1
aI0
aI0
aI0
aI0
aI0
asg90
g732
sg92
I0
sg93
I10
sg94
S'M'
sg95
I0
sg96
S'Skirmisher'
p1169
sg98
I0
sg99
S'enemy'
p1170
sg101
(I25
I13
tp1171
sa(dp1172
g7
S'Attack_2'
p1173
sg9
(lp1174
I80
aI40
aI35
aI40
aI55
aI40
aI15
aI40
asg11
I00
sg12
(lp1175
(dp1176
g15
Nsg16
I00
sg17
I01
sg18
I25
sg19
I00
sg20
I117
sg22
S'Great Lance'
p1177
sasg32
(lp1178
I80
aI40
aI85
aI40
aI5
aI40
aI65
aI40
asg34
I21
sg42
(lp1179
(I21
I0
tp1180
a(I8
I0
tp1181
a(I5
I0
tp1182
a(I9
I0
tp1183
a(I13
I0
tp1184
a(I4
I0
tp1185
a(I4
I0
tp1186
a(I7
I0
tp1187
a(I7
I0
tp1188
a(I7
I0
tp1189
asg54
S'0'
sg56
g726
sg58
g727
sg60
(lp1190
sg63
(lp1191
(dp1192
g66
Nsg67
Nsg68
Nsg69
(lp1193
sg71
Nsg72
Nsg73
Nsg22
g1076
sa(dp1194
g66
Nsg67
Nsg68
Nsg69
(lp1195
sg71
Nsg72
Nsg73
Nsg22
g1079
sa(dp1196
g66
Nsg67
Nsg68
Nsg69
(lp1197
sg71
Nsg72
Nsg73
Nsg22
S'Canto'
p1198
sasg81
(dp1199
g657
I0
sg658
I0
sg659
I0
ssg86
I00
sg87
I117
sg88
(lp1200
I0
aI41
aI0
aI0
aI0
aI0
aI0
asg90
g732
sg92
I0
sg93
I12
sg94
S'M'
sg95
I0
sg96
S'Dragoon'
p1201
sg98
I0
sg99
S'enemy'
p1202
sg101
(I24
I11
tp1203
sa(dp1204
g7
S'Attack_3'
p1205
sg9
(lp1206
I100
aI65
aI5
aI45
aI35
aI20
aI15
aI15
asg11
I00
sg12
(lp1207
(dp1208
g15
Nsg16
I00
sg17
I00
sg18
I45
sg19
I00
sg20
I118
sg22
S'Iron Axe'
p1209
sasg32
(lp1210
I0
aI85
aI45
aI5
aI15
aI80
aI35
aI35
asg34
I22
sg42
(lp1211
(I22
I0
tp1212
a(I8
I0
tp1213
a(I0
I0
tp1214
a(I5
I0
tp1215
a(I7
I0
tp1216
a(I1
I0
tp1217
a(I3
I0
tp1218
a(I1
I0
tp1219
a(I7
I0
tp1220
a(I5
I0
tp1221
asg54
S'0'
sg56
g726
sg58
g727
sg60
(lp1222
sg63
(lp1223
(dp1224
g66
Nsg67
Nsg68
Nsg69
(lp1225
sg71
Nsg72
Nsg73
Nsg22
g926
sa(dp1226
g66
Nsg67
Nsg68
Nsg69
(lp1227
sg71
Nsg72
I0
sg73
Nsg22
g929
sasg81
(dp1228
g657
I0
sg658
I0
sg659
I0
ssg86
I00
sg87
I118
sg88
(lp1229
I0
aI0
aI1
aI0
aI0
aI0
aI0
asg90
g732
sg92
I4
sg93
I10
sg94
S'M'
sg95
I0
sg96
S'Raider'
p1230
sg98
I0
sg99
S'enemy'
p1231
sg101
(I5
I12
tp1232
sa(dp1233
g7
S'Attack_3'
p1234
sg9
(lp1235
I100
aI65
aI5
aI45
aI35
aI20
aI15
aI15
asg11
I00
sg12
(lp1236
(dp1237
g15
Nsg16
I00
sg17
I00
sg18
I45
sg19
I00
sg20
I119
sg22
S'Iron Axe'
p1238
sasg32
(lp1239
I0
aI85
aI45
aI5
aI15
aI80
aI35
aI35
asg34
I22
sg42
(lp1240
(I22
I0
tp1241
a(I8
I0
tp1242
a(I0
I0
tp1243
a(I5
I0
tp1244
a(I7
I0
tp1245
a(I1
I0
tp1246
a(I3
I0
tp1247
a(I1
I0
tp1248
a(I7
I0
tp1249
a(I5
I0
tp1250
asg54
S'0'
sg56
g726
sg58
g727
sg60
(lp1251
sg63
(lp1252
(dp1253
g66
Nsg67
Nsg68
Nsg69
(lp1254
sg71
Nsg72
Nsg73
Nsg22
g926
sa(dp1255
g66
Nsg67
Nsg68
Nsg69
(lp1256
sg71
Nsg72
I0
sg73
Nsg22
g929
sasg81
(dp1257
g657
I0
sg658
I0
sg659
I0
ssg86
I00
sg87
I119
sg88
(lp1258
I0
aI0
aI1
aI0
aI0
aI0
aI0
asg90
g732
sg92
I4
sg93
I10
sg94
S'M'
sg95
I0
sg96
S'Raider'
p1259
sg98
I0
sg99
S'enemy'
p1260
sg101
(I7
I13
tp1261
sa(dp1262
g7
S'Attack_3'
p1263
sg9
(lp1264
I85
aI45
aI35
aI55
aI105
aI45
aI15
aI45
asg11
I00
sg12
(lp1265
(dp1266
g15
Nsg16
I00
sg17
I00
sg18
I45
sg19
I00
sg20
I120
sg22
S'Iron Lance'
p1267
sasg32
(lp1268
I65
aI5
aI15
aI95
aI45
aI5
aI35
aI5
asg34
I16
sg42
(lp1269
(I16
I0
tp1270
a(I6
I0
tp1271
a(I5
I0
tp1272
a(I7
I0
tp1273
a(I12
I0
tp1274
a(I4
I0
tp1275
a(I2
I0
tp1276
a(I6
I0
tp1277
a(I4
I0
tp1278
a(I6
I0
tp1279
asg54
S'0'
sg56
g726
sg58
g727
sg60
(lp1280
sg63
(lp1281
(dp1282
g66
Nsg67
Nsg68
Nsg69
(lp1283
sg71
Nsg72
Nsg73
Nsg22
g1076
sa(dp1284
g66
Nsg67
Nsg68
Nsg69
(lp1285
sg71
Nsg72
Nsg73
Nsg22
g1079
sasg81
(dp1286
g657
I0
sg658
I0
sg659
I0
ssg86
I00
sg87
I120
sg88
(lp1287
I0
aI1
aI0
aI0
aI0
aI0
aI0
asg90
g732
sg92
I0
sg93
I10
sg94
S'M'
sg95
I0
sg96
S'Skirmisher'
p1288
sg98
I0
sg99
S'enemy'
p1289
sg101
(I4
I13
tp1290
sa(dp1291
g7
S'Attack_3'
p1292
sg9
(lp1293
I85
aI45
aI35
aI55
aI105
aI45
aI15
aI45
asg11
I00
sg12
(lp1294
(dp1295
g15
Nsg16
I00
sg17
I00
sg18
I45
sg19
I00
sg20
I121
sg22
S'Iron Lance'
p1296
sasg32
(lp1297
I65
aI5
aI15
aI95
aI45
aI5
aI35
aI5
asg34
I16
sg42
(lp1298
(I16
I0
tp1299
a(I6
I0
tp1300
a(I5
I0
tp1301
a(I7
I0
tp1302
a(I12
I0
tp1303
a(I4
I0
tp1304
a(I2
I0
tp1305
a(I6
I0
tp1306
a(I4
I0
tp1307
a(I6
I0
tp1308
asg54
S'0'
sg56
g726
sg58
g727
sg60
(lp1309
sg63
(lp1310
(dp1311
g66
Nsg67
Nsg68
Nsg69
(lp1312
sg71
Nsg72
Nsg73
Nsg22
g1076
sa(dp1313
g66
Nsg67
Nsg68
Nsg69
(lp1314
sg71
Nsg72
Nsg73
Nsg22
g1079
sasg81
(dp1315
g657
I0
sg658
I0
sg659
I0
ssg86
I00
sg87
I121
sg88
(lp1316
I0
aI1
aI0
aI0
aI0
aI0
aI0
asg90
g732
sg92
I0
sg93
I10
sg94
S'M'
sg95
I0
sg96
S'Skirmisher'
p1317
sg98
I0
sg99
S'enemy'
p1318
sg101
(I6
I11
tp1319
sa(dp1320
g7
S'Attack_3'
p1321
sg9
(lp1322
I85
aI45
aI35
aI55
aI105
aI45
aI15
aI45
asg11
I00
sg12
(lp1323
(dp1324
g15
Nsg16
I00
sg17
I00
sg18
I45
sg19
I00
sg20
I122
sg22
S'Iron Lance'
p1325
sasg32
(lp1326
I65
aI5
aI15
aI95
aI45
aI5
aI35
aI5
asg34
I16
sg42
(lp1327
(I16
I0
tp1328
a(I6
I0
tp1329
a(I5
I0
tp1330
a(I7
I0
tp1331
a(I12
I0
tp1332
a(I4
I0
tp1333
a(I2
I0
tp1334
a(I6
I0
tp1335
a(I4
I0
tp1336
a(I6
I0
tp1337
asg54
S'0'
sg56
g726
sg58
g727
sg60
(lp1338
sg63
(lp1339
(dp1340
g66
Nsg67
Nsg68
Nsg69
(lp1341
sg71
Nsg72
Nsg73
Nsg22
g1076
sa(dp1342
g66
Nsg67
Nsg68
Nsg69
(lp1343
sg71
Nsg72
Nsg73
Nsg22
g1079
sasg81
(dp1344
g657
I0
sg658
I0
sg659
I0
ssg86
I00
sg87
I122
sg88
(lp1345
I0
aI1
aI0
aI0
aI0
aI0
aI0
asg90
g732
sg92
I0
sg93
I10
sg94
S'M'
sg95
I0
sg96
S'Skirmisher'
p1346
sg98
I0
sg99
S'enemy'
p1347
sg101
(I7
I8
tp1348
sa(dp1349
g7
S'Attack_3'
p1350
sg9
(lp1351
I80
aI40
aI35
aI40
aI55
aI40
aI15
aI40
asg11
I00
sg12
(lp1352
(dp1353
g15
Nsg16
I00
sg17
I00
sg18
I30
sg19
I00
sg20
I123
sg22
S'Steel Lance'
p1354
sasg32
(lp1355
I80
aI40
aI85
aI40
aI5
aI40
aI65
aI40
asg34
I21
sg42
(lp1356
(I21
I0
tp1357
a(I8
I0
tp1358
a(I5
I0
tp1359
a(I9
I0
tp1360
a(I13
I0
tp1361
a(I4
I0
tp1362
a(I4
I0
tp1363
a(I7
I0
tp1364
a(I7
I0
tp1365
a(I7
I0
tp1366
asg54
S'0'
sg56
g726
sg58
g727
sg60
(lp1367
sg63
(lp1368
(dp1369
g66
Nsg67
Nsg68
Nsg69
(lp1370
sg71
Nsg72
Nsg73
Nsg22
g1076
sa(dp1371
g66
Nsg67
Nsg68
Nsg69
(lp1372
sg71
Nsg72
Nsg73
Nsg22
g1079
sa(dp1373
g66
Nsg67
Nsg68
Nsg69
(lp1374
sg71
Nsg72
Nsg73
Nsg22
g1198
sasg81
(dp1375
g657
I0
sg658
I0
sg659
I0
ssg86
I00
sg87
I123
sg88
(lp1376
I0
aI16
aI0
aI0
aI0
aI0
aI0
asg90
g732
sg92
I0
sg93
I12
sg94
S'M'
sg95
I0
sg96
S'Dragoon'
p1377
sg98
I0
sg99
S'enemy'
p1378
sg101
(I7
I11
tp1379
sa(dp1380
g7
S'Attack_4'
p1381
sg9
(lp1382
I105
aI55
aI15
aI55
aI45
aI40
aI25
aI25
asg11
I00
sg12
(lp1383
(dp1384
g15
Nsg16
I00
sg17
I00
sg18
I30
sg19
I00
sg20
I124
sg22
S'Steel Sword'
p1385
sasg32
(lp1386
I45
aI95
aI35
aI95
aI5
aI60
aI25
aI25
asg34
I21
sg42
(lp1387
(I21
I0
tp1388
a(I7
I0
tp1389
a(I1
I0
tp1390
a(I9
I0
tp1391
a(I9
I0
tp1392
a(I3
I0
tp1393
a(I5
I0
tp1394
a(I2
I0
tp1395
a(I6
I0
tp1396
a(I5
I0
tp1397
asg54
S'0'
sg56
g726
sg58
g727
sg60
(lp1398
sg63
(lp1399
(dp1400
g66
Nsg67
Nsg68
Nsg69
(lp1401
sg71
Nsg72
Nsg73
Nsg22
g808
sa(dp1402
g66
Nsg67
Nsg68
Nsg69
(lp1403
sg71
Nsg72
Nsg73
Nsg22
g811
sasg81
(dp1404
g657
I0
sg658
I0
sg659
I0
ssg86
I00
sg87
I124
sg88
(lp1405
I16
aI0
aI0
aI0
aI0
aI0
aI0
asg90
g732
sg92
I4
sg93
I10
sg94
S'M'
sg95
I0
sg96
S'Mercenary'
p1406
sg98
I0
sg99
S'enemy'
p1407
sg101
(I16
I18
tp1408
sa(dp1409
g7
S'Attack_4'
p1410
sg9
(lp1411
I105
aI55
aI15
aI55
aI45
aI40
aI25
aI25
asg11
I00
sg12
(lp1412
(dp1413
g15
Nsg16
I00
sg17
I00
sg18
I30
sg19
I00
sg20
I125
sg22
S'Steel Sword'
p1414
sasg32
(lp1415
I45
aI95
aI35
aI95
aI5
aI60
aI25
aI25
asg34
I21
sg42
(lp1416
(I21
I0
tp1417
a(I7
I0
tp1418
a(I1
I0
tp1419
a(I9
I0
tp1420
a(I9
I0
tp1421
a(I3
I0
tp1422
a(I5
I0
tp1423
a(I2
I0
tp1424
a(I6
I0
tp1425
a(I5
I0
tp1426
asg54
S'0'
sg56
g726
sg58
g727
sg60
(lp1427
sg63
(lp1428
(dp1429
g66
Nsg67
Nsg68
Nsg69
(lp1430
sg71
Nsg72
Nsg73
Nsg22
g808
sa(dp1431
g66
Nsg67
Nsg68
Nsg69
(lp1432
sg71
Nsg72
Nsg73
Nsg22
g811
sasg81
(dp1433
g657
I0
sg658
I0
sg659
I0
ssg86
I00
sg87
I125
sg88
(lp1434
I16
aI0
aI0
aI0
aI0
aI0
aI0
asg90
g732
sg92
I4
sg93
I10
sg94
S'M'
sg95
I0
sg96
S'Mercenary'
p1435
sg98
I0
sg99
S'enemy'
p1436
sg101
(I18
I18
tp1437
sa(dp1438
g7
S'Attack_4'
p1439
sg9
(lp1440
I105
aI55
aI15
aI55
aI45
aI40
aI25
aI25
asg11
I00
sg12
(lp1441
(dp1442
g15
Nsg16
I00
sg17
I00
sg18
I30
sg19
I00
sg20
I126
sg22
S'Steel Sword'
p1443
sasg32
(lp1444
I45
aI95
aI35
aI95
aI5
aI60
aI25
aI25
asg34
I21
sg42
(lp1445
(I21
I0
tp1446
a(I7
I0
tp1447
a(I1
I0
tp1448
a(I9
I0
tp1449
a(I9
I0
tp1450
a(I3
I0
tp1451
a(I5
I0
tp1452
a(I2
I0
tp1453
a(I6
I0
tp1454
a(I5
I0
tp1455
asg54
S'0'
sg56
g726
sg58
g727
sg60
(lp1456
sg63
(lp1457
(dp1458
g66
Nsg67
Nsg68
Nsg69
(lp1459
sg71
Nsg72
Nsg73
Nsg22
g808
sa(dp1460
g66
Nsg67
Nsg68
Nsg69
(lp1461
sg71
Nsg72
Nsg73
Nsg22
g811
sasg81
(dp1462
g657
I0
sg658
I0
sg659
I0
ssg86
I00
sg87
I126
sg88
(lp1463
I16
aI0
aI0
aI0
aI0
aI0
aI0
asg90
g732
sg92
I4
sg93
I10
sg94
S'M'
sg95
I0
sg96
S'Mercenary'
p1464
sg98
I0
sg99
S'enemy'
p1465
sg101
(I17
I17
tp1466
sa(dp1467
g7
S'Attack_4'
p1468
sg9
(lp1469
I105
aI55
aI15
aI55
aI45
aI40
aI25
aI25
asg11
I00
sg12
(lp1470
(dp1471
g15
Nsg16
I00
sg17
I00
sg18
I30
sg19
I00
sg20
I127
sg22
S'Steel Sword'
p1472
sasg32
(lp1473
I45
aI95
aI35
aI95
aI5
aI60
aI25
aI25
asg34
I21
sg42
(lp1474
(I21
I0
tp1475
a(I7
I0
tp1476
a(I1
I0
tp1477
a(I9
I0
tp1478
a(I9
I0
tp1479
a(I3
I0
tp1480
a(I5
I0
tp1481
a(I2
I0
tp1482
a(I6
I0
tp1483
a(I5
I0
tp1484
asg54
S'0'
sg56
g726
sg58
g727
sg60
(lp1485
sg63
(lp1486
(dp1487
g66
Nsg67
Nsg68
Nsg69
(lp1488
sg71
Nsg72
Nsg73
Nsg22
g808
sa(dp1489
g66
Nsg67
Nsg68
Nsg69
(lp1490
sg71
Nsg72
Nsg73
Nsg22
g811
sasg81
(dp1491
g657
I0
sg658
I0
sg659
I0
ssg86
I00
sg87
I127
sg88
(lp1492
I16
aI0
aI0
aI0
aI0
aI0
aI0
asg90
g732
sg92
I4
sg93
I10
sg94
S'M'
sg95
I0
sg96
S'Mercenary'
p1493
sg98
I0
sg99
S'enemy'
p1494
sg101
(I17
I19
tp1495
sa(dp1496
g7
S'Attack_4'
p1497
sg9
(lp1498
I100
aI65
aI5
aI45
aI35
aI20
aI15
aI15
asg11
I00
sg12
(lp1499
(dp1500
g15
Nsg16
I00
sg17
I00
sg18
I30
sg19
I00
sg20
I128
sg22
S'Steel Axe'
p1501
sasg32
(lp1502
I0
aI85
aI45
aI5
aI15
aI80
aI35
aI35
asg34
I22
sg42
(lp1503
(I22
I0
tp1504
a(I8
I0
tp1505
a(I0
I0
tp1506
a(I5
I0
tp1507
a(I7
I0
tp1508
a(I1
I0
tp1509
a(I3
I0
tp1510
a(I1
I0
tp1511
a(I7
I0
tp1512
a(I5
I0
tp1513
asg54
S'0'
sg56
g726
sg58
g727
sg60
(lp1514
sg63
(lp1515
(dp1516
g66
Nsg67
Nsg68
Nsg69
(lp1517
sg71
Nsg72
Nsg73
Nsg22
g926
sa(dp1518
g66
Nsg67
Nsg68
Nsg69
(lp1519
sg71
Nsg72
I0
sg73
Nsg22
g929
sasg81
(dp1520
g657
I0
sg658
I0
sg659
I0
ssg86
I00
sg87
I128
sg88
(lp1521
I0
aI0
aI16
aI0
aI0
aI0
aI0
asg90
g732
sg92
I4
sg93
I10
sg94
S'M'
sg95
I0
sg96
S'Raider'
p1522
sg98
I0
sg99
S'enemy'
p1523
sg101
(I18
I15
tp1524
sa(dp1525
g7
S'Attack_4'
p1526
sg9
(lp1527
I100
aI65
aI5
aI45
aI35
aI20
aI15
aI15
asg11
I00
sg12
(lp1528
(dp1529
g15
Nsg16
I00
sg17
I01
sg18
I25
sg19
I00
sg20
I129
sg22
S'Great Axe'
p1530
sasg32
(lp1531
I0
aI85
aI45
aI5
aI15
aI80
aI35
aI35
asg34
I22
sg42
(lp1532
(I22
I0
tp1533
a(I8
I0
tp1534
a(I0
I0
tp1535
a(I5
I0
tp1536
a(I7
I0
tp1537
a(I1
I0
tp1538
a(I3
I0
tp1539
a(I1
I0
tp1540
a(I7
I0
tp1541
a(I5
I0
tp1542
asg54
S'0'
sg56
g726
sg58
g727
sg60
(lp1543
sg63
(lp1544
(dp1545
g66
Nsg67
Nsg68
Nsg69
(lp1546
sg71
Nsg72
Nsg73
Nsg22
g926
sa(dp1547
g66
Nsg67
Nsg68
Nsg69
(lp1548
sg71
Nsg72
I0
sg73
Nsg22
g929
sasg81
(dp1549
g657
I0
sg658
I0
sg659
I0
ssg86
I00
sg87
I129
sg88
(lp1550
I0
aI0
aI41
aI0
aI0
aI0
aI0
asg90
g732
sg92
I4
sg93
I10
sg94
S'M'
sg95
I0
sg96
S'Raider'
p1551
sg98
I0
sg99
S'enemy'
p1552
sg101
(I11
I19
tp1553
sa(dp1554
g7
S'Attack_4'
p1555
sg9
(lp1556
I100
aI65
aI5
aI45
aI35
aI20
aI15
aI15
asg11
I00
sg12
(lp1557
(dp1558
g15
Nsg16
I00
sg17
I00
sg18
I30
sg19
I00
sg20
I130
sg22
S'Steel Axe'
p1559
sasg32
(lp1560
I0
aI85
aI45
aI5
aI15
aI80
aI35
aI35
asg34
I22
sg42
(lp1561
(I22
I0
tp1562
a(I8
I0
tp1563
a(I0
I0
tp1564
a(I5
I0
tp1565
a(I7
I0
tp1566
a(I1
I0
tp1567
a(I3
I0
tp1568
a(I1
I0
tp1569
a(I7
I0
tp1570
a(I5
I0
tp1571
asg54
S'0'
sg56
g726
sg58
g727
sg60
(lp1572
sg63
(lp1573
(dp1574
g66
Nsg67
Nsg68
Nsg69
(lp1575
sg71
Nsg72
Nsg73
Nsg22
g926
sa(dp1576
g66
Nsg67
Nsg68
Nsg69
(lp1577
sg71
Nsg72
I0
sg73
Nsg22
g929
sasg81
(dp1578
g657
I0
sg658
I0
sg659
I0
ssg86
I00
sg87
I130
sg88
(lp1579
I0
aI0
aI16
aI0
aI0
aI0
aI0
asg90
g732
sg92
I4
sg93
I10
sg94
S'M'
sg95
I0
sg96
S'Raider'
p1580
sg98
I0
sg99
S'enemy'
p1581
sg101
(I21
I18
tp1582
sa(dp1583
g7
S'Attack_4'
p1584
sg9
(lp1585
I100
aI65
aI5
aI45
aI35
aI20
aI15
aI15
asg11
I00
sg12
(lp1586
(dp1587
g15
Nsg16
I00
sg17
I00
sg18
I20
sg19
I00
sg20
I131
sg22
S'Hand Axe'
p1588
sasg32
(lp1589
I0
aI85
aI45
aI5
aI15
aI80
aI35
aI35
asg34
I22
sg42
(lp1590
(I22
I0
tp1591
a(I8
I0
tp1592
a(I0
I0
tp1593
a(I5
I0
tp1594
a(I7
I0
tp1595
a(I1
I0
tp1596
a(I3
I0
tp1597
a(I1
I0
tp1598
a(I7
I0
tp1599
a(I5
I0
tp1600
asg54
S'0'
sg56
g726
sg58
g727
sg60
(lp1601
sg63
(lp1602
(dp1603
g66
Nsg67
Nsg68
Nsg69
(lp1604
sg71
Nsg72
Nsg73
Nsg22
g926
sa(dp1605
g66
Nsg67
Nsg68
Nsg69
(lp1606
sg71
Nsg72
I0
sg73
Nsg22
g929
sasg81
(dp1607
g657
I0
sg658
I0
sg659
I0
ssg86
I00
sg87
I131
sg88
(lp1608
I0
aI0
aI1
aI0
aI0
aI0
aI0
asg90
g732
sg92
I4
sg93
I10
sg94
S'M'
sg95
I0
sg96
S'Raider'
p1609
sg98
I0
sg99
S'enemy'
p1610
sg101
(I18
I21
tp1611
sa(dp1612
g7
S'Attack_4'
p1613
sg9
(lp1614
I100
aI40
aI20
aI40
aI25
aI35
aI25
aI25
asg11
I00
sg12
(lp1615
(dp1616
g15
Nsg16
I00
sg17
I00
sg18
I30
sg19
I00
sg20
I132
sg22
S'Steel Sword'
p1617
sa(dp1618
g15
Nsg16
I00
sg17
I01
sg18
I3
sg19
I00
sg20
I132
sg22
S'Elixir'
p1619
sasg32
(lp1620
I0
aI40
aI20
aI40
aI75
aI85
aI75
aI75
asg34
I26
sg42
(lp1621
(I26
I0
tp1622
a(I8
I0
tp1623
a(I2
I0
tp1624
a(I11
I0
tp1625
a(I9
I0
tp1626
a(I3
I0
tp1627
a(I7
I0
tp1628
a(I4
I0
tp1629
a(I7
I0
tp1630
a(I6
I0
tp1631
asg54
S'0'
sg56
g726
sg58
g727
sg60
(lp1632
sg63
(lp1633
(dp1634
g66
Nsg67
Nsg68
Nsg69
(lp1635
sg71
Nsg72
Nsg73
Nsg22
g808
sa(dp1636
g66
Nsg67
Nsg68
Nsg69
(lp1637
sg71
Nsg72
Nsg73
Nsg22
g811
sa(dp1638
g66
Nsg67
Nsg68
Nsg69
(lp1639
sg71
Nsg72
Nsg73
Nsg22
g1048
sasg81
(dp1640
g657
I0
sg658
I0
sg659
I0
ssg86
I00
sg87
I132
sg88
(lp1641
I16
aI0
aI16
aI0
aI0
aI0
aI0
asg90
g732
sg92
I4
sg93
I12
sg94
S'M'
sg95
I0
sg96
S'Vanguard'
p1642
sg98
I0
sg99
S'enemy'
p1643
sg101
(I17
I18
tp1644
sa(dp1645
g7
S'Attack'
p1646
sg9
(lp1647
I105
aI55
aI15
aI55
aI45
aI40
aI25
aI25
asg11
I00
sg12
(lp1648
(dp1649
g15
Nsg16
I00
sg17
I00
sg18
I30
sg19
I00
sg20
I133
sg22
S'Steel Sword'
p1650
sasg32
(lp1651
I45
aI95
aI35
aI95
aI5
aI60
aI25
aI25
asg34
I21
sg42
(lp1652
(I21
I0
tp1653
a(I7
I0
tp1654
a(I1
I0
tp1655
a(I9
I0
tp1656
a(I9
I0
tp1657
a(I3
I0
tp1658
a(I5
I0
tp1659
a(I2
I0
tp1660
a(I6
I0
tp1661
a(I5
I0
tp1662
asg54
S'0'
sg56
g726
sg58
g727
sg60
(lp1663
sg63
(lp1664
(dp1665
g66
Nsg67
Nsg68
Nsg69
(lp1666
sg71
Nsg72
Nsg73
Nsg22
g808
sa(dp1667
g66
Nsg67
Nsg68
Nsg69
(lp1668
sg71
Nsg72
Nsg73
Nsg22
g811
sasg81
(dp1669
g657
I0
sg658
I0
sg659
I0
ssg86
I00
sg87
I133
sg88
(lp1670
I16
aI0
aI0
aI0
aI0
aI0
aI0
asg90
g732
sg92
I4
sg93
I10
sg94
S'M'
sg95
I0
sg96
S'Mercenary'
p1671
sg98
I0
sg99
S'enemy'
p1672
sg101
(I3
I18
tp1673
sa(dp1674
g7
S'Attack'
p1675
sg9
(lp1676
I105
aI55
aI15
aI55
aI45
aI40
aI25
aI25
asg11
I00
sg12
(lp1677
(dp1678
g15
Nsg16
I00
sg17
I00
sg18
I30
sg19
I00
sg20
I134
sg22
S'Steel Sword'
p1679
sasg32
(lp1680
I45
aI95
aI35
aI95
aI5
aI60
aI25
aI25
asg34
I21
sg42
(lp1681
(I21
I0
tp1682
a(I7
I0
tp1683
a(I1
I0
tp1684
a(I9
I0
tp1685
a(I9
I0
tp1686
a(I3
I0
tp1687
a(I5
I0
tp1688
a(I2
I0
tp1689
a(I6
I0
tp1690
a(I5
I0
tp1691
asg54
S'0'
sg56
g726
sg58
g727
sg60
(lp1692
sg63
(lp1693
(dp1694
g66
Nsg67
Nsg68
Nsg69
(lp1695
sg71
Nsg72
Nsg73
Nsg22
g808
sa(dp1696
g66
Nsg67
Nsg68
Nsg69
(lp1697
sg71
Nsg72
Nsg73
Nsg22
g811
sasg81
(dp1698
g657
I0
sg658
I0
sg659
I0
ssg86
I00
sg87
I134
sg88
(lp1699
I16
aI0
aI0
aI0
aI0
aI0
aI0
asg90
g732
sg92
I4
sg93
I10
sg94
S'M'
sg95
I0
sg96
S'Mercenary'
p1700
sg98
I0
sg99
S'enemy'
p1701
sg101
(I4
I17
tp1702
sa(dp1703
g7
S'Attack'
p1704
sg9
(lp1705
I105
aI55
aI15
aI55
aI45
aI40
aI25
aI25
asg11
I00
sg12
(lp1706
(dp1707
g15
Nsg16
I00
sg17
I00
sg18
I30
sg19
I00
sg20
I135
sg22
S'Steel Sword'
p1708
sasg32
(lp1709
I45
aI95
aI35
aI95
aI5
aI60
aI25
aI25
asg34
I21
sg42
(lp1710
(I21
I0
tp1711
a(I7
I0
tp1712
a(I1
I0
tp1713
a(I9
I0
tp1714
a(I9
I0
tp1715
a(I3
I0
tp1716
a(I5
I0
tp1717
a(I2
I0
tp1718
a(I6
I0
tp1719
a(I5
I0
tp1720
asg54
S'0'
sg56
g726
sg58
g727
sg60
(lp1721
sg63
(lp1722
(dp1723
g66
Nsg67
Nsg68
Nsg69
(lp1724
sg71
Nsg72
Nsg73
Nsg22
g808
sa(dp1725
g66
Nsg67
Nsg68
Nsg69
(lp1726
sg71
Nsg72
Nsg73
Nsg22
g811
sasg81
(dp1727
g657
I0
sg658
I0
sg659
I0
ssg86
I00
sg87
I135
sg88
(lp1728
I16
aI0
aI0
aI0
aI0
aI0
aI0
asg90
g732
sg92
I4
sg93
I10
sg94
S'M'
sg95
I0
sg96
S'Mercenary'
p1729
sg98
I0
sg99
S'enemy'
p1730
sg101
(I4
I21
tp1731
sa(dp1732
g7
S'Attack'
p1733
sg9
(lp1734
I105
aI55
aI15
aI55
aI45
aI40
aI25
aI25
asg11
I00
sg12
(lp1735
(dp1736
g15
Nsg16
I00
sg17
I00
sg18
I30
sg19
I00
sg20
I136
sg22
S'Steel Sword'
p1737
sasg32
(lp1738
I45
aI95
aI35
aI95
aI5
aI60
aI25
aI25
asg34
I21
sg42
(lp1739
(I21
I0
tp1740
a(I7
I0
tp1741
a(I1
I0
tp1742
a(I9
I0
tp1743
a(I9
I0
tp1744
a(I3
I0
tp1745
a(I5
I0
tp1746
a(I2
I0
tp1747
a(I6
I0
tp1748
a(I5
I0
tp1749
asg54
S'0'
sg56
g726
sg58
g727
sg60
(lp1750
sg63
(lp1751
(dp1752
g66
Nsg67
Nsg68
Nsg69
(lp1753
sg71
Nsg72
Nsg73
Nsg22
g808
sa(dp1754
g66
Nsg67
Nsg68
Nsg69
(lp1755
sg71
Nsg72
Nsg73
Nsg22
g811
sasg81
(dp1756
g657
I0
sg658
I0
sg659
I0
ssg86
I00
sg87
I136
sg88
(lp1757
I16
aI0
aI0
aI0
aI0
aI0
aI0
asg90
g732
sg92
I4
sg93
I10
sg94
S'M'
sg95
I0
sg96
S'Mercenary'
p1758
sg98
I0
sg99
S'enemy'
p1759
sg101
(I5
I22
tp1760
sa(dp1761
g7
S'SoftGuard'
p1762
sg9
(lp1763
I100
aI40
aI20
aI40
aI25
aI35
aI25
aI25
asg11
I00
sg12
(lp1764
(dp1765
g15
Nsg16
I00
sg17
I00
sg18
I30
sg19
I00
sg20
I137
sg22
S'Steel Sword'
p1766
sa(dp1767
g15
Nsg16
I00
sg17
I00
sg18
I20
sg19
I00
sg20
I137
sg22
S'Hand Axe'
p1768
sasg32
(lp1769
I0
aI40
aI20
aI40
aI75
aI85
aI75
aI75
asg34
I26
sg42
(lp1770
(I26
I0
tp1771
a(I8
I0
tp1772
a(I2
I0
tp1773
a(I11
I0
tp1774
a(I9
I0
tp1775
a(I3
I0
tp1776
a(I7
I0
tp1777
a(I4
I0
tp1778
a(I7
I0
tp1779
a(I6
I0
tp1780
asg54
S'0'
sg56
g726
sg58
g727
sg60
(lp1781
sg63
(lp1782
(dp1783
g66
Nsg67
Nsg68
Nsg69
(lp1784
sg71
Nsg72
Nsg73
Nsg22
g808
sa(dp1785
g66
Nsg67
Nsg68
Nsg69
(lp1786
sg71
Nsg72
Nsg73
Nsg22
g811
sa(dp1787
g66
Nsg67
Nsg68
Nsg69
(lp1788
sg71
Nsg72
Nsg73
Nsg22
g1048
sasg81
(dp1789
g657
I0
sg658
I0
sg659
I0
ssg86
I00
sg87
I137
sg88
(lp1790
I16
aI0
aI16
aI0
aI0
aI0
aI0
asg90
g732
sg92
I4
sg93
I12
sg94
S'M'
sg95
I0
sg96
S'Vanguard'
p1791
sg98
I0
sg99
S'enemy'
p1792
sg101
(I1
I22
tp1793
sa(dp1794
g7
S'SoftGuard'
p1795
sg9
(lp1796
I80
aI40
aI35
aI40
aI55
aI40
aI15
aI40
asg11
I00
sg12
(lp1797
(dp1798
g15
Nsg16
I00
sg17
I00
sg18
I30
sg19
I00
sg20
I138
sg22
S'Steel Lance'
p1799
sa(dp1800
g15
Nsg16
I00
sg17
I00
sg18
I20
sg19
I00
sg20
I138
sg22
S'Javelin'
p1801
sasg32
(lp1802
I80
aI40
aI85
aI40
aI5
aI40
aI65
aI40
asg34
I21
sg42
(lp1803
(I21
I0
tp1804
a(I8
I0
tp1805
a(I5
I0
tp1806
a(I9
I0
tp1807
a(I13
I0
tp1808
a(I4
I0
tp1809
a(I4
I0
tp1810
a(I7
I0
tp1811
a(I7
I0
tp1812
a(I7
I0
tp1813
asg54
S'0'
sg56
g726
sg58
g727
sg60
(lp1814
sg63
(lp1815
(dp1816
g66
Nsg67
Nsg68
Nsg69
(lp1817
sg71
Nsg72
Nsg73
Nsg22
g1076
sa(dp1818
g66
Nsg67
Nsg68
Nsg69
(lp1819
sg71
Nsg72
Nsg73
Nsg22
g1079
sa(dp1820
g66
Nsg67
Nsg68
Nsg69
(lp1821
sg71
Nsg72
Nsg73
Nsg22
g1198
sasg81
(dp1822
g657
I0
sg658
I0
sg659
I0
ssg86
I00
sg87
I138
sg88
(lp1823
I0
aI16
aI0
aI0
aI0
aI0
aI0
asg90
g732
sg92
I0
sg93
I12
sg94
S'M'
sg95
I0
sg96
S'Dragoon'
p1824
sg98
I0
sg99
S'enemy'
p1825
sg101
(I3
I22
tp1826
sa(dp1827
g7
S'SoftGuard'
p1828
sg9
(lp1829
I60
aI15
aI55
aI35
aI55
aI40
aI25
aI45
asg11
I00
sg12
(lp1830
(dp1831
g15
Nsg16
I00
sg17
I00
sg18
I30
sg19
I00
sg20
I139
sg22
S'Fire'
p1832
sa(dp1833
g15
Nsg16
I00
sg17
I01
sg18
I5
sg19
I00
sg20
I139
sg22
S'Blizzard'
p1834
sasg32
(lp1835
I60
aI65
aI5
aI85
aI5
aI40
aI75
aI95
asg34
I19
sg42
(lp1836
(I19
I0
tp1837
a(I1
I0
tp1838
a(I10
I0
tp1839
a(I6
I0
tp1840
a(I9
I0
tp1841
a(I4
I4
tp1842
a(I3
I0
tp1843
a(I7
I0
tp1844
a(I5
I0
tp1845
a(I6
I0
tp1846
asg54
S'0'
sg56
g726
sg58
g727
sg60
(lp1847
sg63
(lp1848
(dp1849
g66
Nsg67
Nsg68
Nsg69
(lp1850
sg71
Nsg72
Nsg73
Nsg22
S'Focus'
p1851
sa(dp1852
g66
Nsg67
Nsg68
Nsg69
(lp1853
sg71
Nsg72
Nsg73
Nsg22
S'Conductance'
p1854
sa(dp1855
g66
Nsg67
Nsg68
Nsg69
(lp1856
sg71
Nsg72
Nsg73
Nsg22
S'fLuck +4'
p1857
sasg81
(dp1858
g657
I0
sg658
I0
sg659
I0
ssg86
I00
sg87
I139
sg88
(lp1859
I0
aI0
aI0
aI0
aI0
aI41
aI0
asg90
g732
sg92
I5
sg93
I12
sg94
S'M'
sg95
I0
sg96
S'Sage'
p1860
sg98
I0
sg99
S'enemy'
p1861
sg101
(I2
I17
tp1862
sa(dp1863
g7
S'Pursue'
p1864
sg9
(lp1865
I105
aI55
aI15
aI55
aI45
aI40
aI25
aI25
asg11
I00
sg12
(lp1866
(dp1867
g15
Nsg16
I00
sg17
I00
sg18
I30
sg19
I00
sg20
I140
sg22
S'Steel Sword'
p1868
sasg32
(lp1869
I45
aI95
aI35
aI95
aI5
aI60
aI25
aI25
asg34
I21
sg42
(lp1870
(I21
I0
tp1871
a(I7
I0
tp1872
a(I1
I0
tp1873
a(I9
I0
tp1874
a(I9
I0
tp1875
a(I3
I0
tp1876
a(I5
I0
tp1877
a(I2
I0
tp1878
a(I6
I0
tp1879
a(I5
I0
tp1880
asg54
S'merc1'
p1881
sg56
g726
sg58
g727
sg60
(lp1882
sg63
(lp1883
(dp1884
g66
Nsg67
Nsg68
Nsg69
(lp1885
sg71
Nsg72
Nsg73
Nsg22
g808
sa(dp1886
g66
Nsg67
Nsg68
Nsg69
(lp1887
sg71
Nsg72
Nsg73
Nsg22
g811
sasg81
(dp1888
g657
I0
sg658
I0
sg659
I0
ssg86
I00
sg87
I140
sg88
(lp1889
I16
aI0
aI0
aI0
aI0
aI0
aI0
asg90
g732
sg92
I4
sg93
I10
sg94
S'M'
sg95
I0
sg96
S'Mercenary'
p1890
sg98
I0
sg99
S'enemy'
p1891
sg101
Nsa(dp1892
g7
S'Pursue'
p1893
sg9
(lp1894
I105
aI55
aI15
aI55
aI45
aI40
aI25
aI25
asg11
I00
sg12
(lp1895
(dp1896
g15
Nsg16
I00
sg17
I00
sg18
I30
sg19
I00
sg20
I141
sg22
S'Steel Sword'
p1897
sasg32
(lp1898
I45
aI95
aI35
aI95
aI5
aI60
aI25
aI25
asg34
I21
sg42
(lp1899
(I21
I0
tp1900
a(I7
I0
tp1901
a(I1
I0
tp1902
a(I9
I0
tp1903
a(I9
I0
tp1904
a(I3
I0
tp1905
a(I5
I0
tp1906
a(I2
I0
tp1907
a(I6
I0
tp1908
a(I5
I0
tp1909
asg54
S'merc2'
p1910
sg56
g726
sg58
g727
sg60
(lp1911
sg63
(lp1912
(dp1913
g66
Nsg67
Nsg68
Nsg69
(lp1914
sg71
Nsg72
Nsg73
Nsg22
g808
sa(dp1915
g66
Nsg67
Nsg68
Nsg69
(lp1916
sg71
Nsg72
Nsg73
Nsg22
g811
sasg81
(dp1917
g657
I0
sg658
I0
sg659
I0
ssg86
I00
sg87
I141
sg88
(lp1918
I16
aI0
aI0
aI0
aI0
aI0
aI0
asg90
g732
sg92
I4
sg93
I10
sg94
S'M'
sg95
I0
sg96
S'Mercenary'
p1919
sg98
I0
sg99
S'enemy'
p1920
sg101
Nsa(dp1921
g7
S'Pursue'
p1922
sg9
(lp1923
I105
aI55
aI15
aI55
aI45
aI40
aI25
aI25
asg11
I00
sg12
(lp1924
(dp1925
g15
Nsg16
I00
sg17
I00
sg18
I30
sg19
I00
sg20
I142
sg22
S'Steel Sword'
p1926
sasg32
(lp1927
I45
aI95
aI35
aI95
aI5
aI60
aI25
aI25
asg34
I21
sg42
(lp1928
(I21
I0
tp1929
a(I7
I0
tp1930
a(I1
I0
tp1931
a(I9
I0
tp1932
a(I9
I0
tp1933
a(I3
I0
tp1934
a(I5
I0
tp1935
a(I2
I0
tp1936
a(I6
I0
tp1937
a(I5
I0
tp1938
asg54
S'merc3'
p1939
sg56
g726
sg58
g727
sg60
(lp1940
sg63
(lp1941
(dp1942
g66
Nsg67
Nsg68
Nsg69
(lp1943
sg71
Nsg72
Nsg73
Nsg22
g808
sa(dp1944
g66
Nsg67
Nsg68
Nsg69
(lp1945
sg71
Nsg72
Nsg73
Nsg22
g811
sasg81
(dp1946
g657
I0
sg658
I0
sg659
I0
ssg86
I00
sg87
I142
sg88
(lp1947
I16
aI0
aI0
aI0
aI0
aI0
aI0
asg90
g732
sg92
I4
sg93
I10
sg94
S'M'
sg95
I0
sg96
S'Mercenary'
p1948
sg98
I0
sg99
S'enemy'
p1949
sg101
Nsa(dp1950
g7
S'Pursue'
p1951
sg9
(lp1952
I105
aI55
aI15
aI55
aI45
aI40
aI25
aI25
asg11
I00
sg12
(lp1953
(dp1954
g15
Nsg16
I00
sg17
I00
sg18
I30
sg19
I00
sg20
I143
sg22
S'Steel Sword'
p1955
sasg32
(lp1956
I45
aI95
aI35
aI95
aI5
aI60
aI25
aI25
asg34
I21
sg42
(lp1957
(I21
I0
tp1958
a(I7
I0
tp1959
a(I1
I0
tp1960
a(I9
I0
tp1961
a(I9
I0
tp1962
a(I3
I0
tp1963
a(I5
I0
tp1964
a(I2
I0
tp1965
a(I6
I0
tp1966
a(I5
I0
tp1967
asg54
S'merc4'
p1968
sg56
g726
sg58
g727
sg60
(lp1969
sg63
(lp1970
(dp1971
g66
Nsg67
Nsg68
Nsg69
(lp1972
sg71
Nsg72
Nsg73
Nsg22
g808
sa(dp1973
g66
Nsg67
Nsg68
Nsg69
(lp1974
sg71
Nsg72
Nsg73
Nsg22
g811
sasg81
(dp1975
g657
I0
sg658
I0
sg659
I0
ssg86
I00
sg87
I143
sg88
(lp1976
I16
aI0
aI0
aI0
aI0
aI0
aI0
asg90
g732
sg92
I4
sg93
I10
sg94
S'M'
sg95
I0
sg96
S'Mercenary'
p1977
sg98
I0
sg99
S'enemy'
p1978
sg101
Nsa(dp1979
g7
S'Pursue'
p1980
sg9
(lp1981
I110
aI65
aI0
aI40
aI25
aI20
aI15
aI15
asg11
I00
sg12
(lp1982
(dp1983
g15
Nsg16
I00
sg17
I00
sg18
I45
sg19
I00
sg20
I144
sg22
S'Iron Axe'
p1984
sasg32
(lp1985
I90
aI85
aI0
aI60
aI25
aI80
aI35
aI35
asg34
I22
sg42
(lp1986
(I22
I0
tp1987
a(I8
I0
tp1988
a(I0
I0
tp1989
a(I4
I0
tp1990
a(I5
I0
tp1991
a(I1
I0
tp1992
a(I3
I0
tp1993
a(I1
I0
tp1994
a(I8
I0
tp1995
a(I5
I0
tp1996
asg54
S'bandit1'
p1997
sg56
g726
sg58
g727
sg60
(lp1998
sg63
(lp1999
(dp2000
g66
Nsg67
Nsg68
Nsg69
(lp2001
sg71
Nsg72
Nsg73
Nsg22
S'Fleet_of_Foot'
p2002
sa(dp2003
g66
Nsg67
Nsg68
Nsg69
(lp2004
sg71
Nsg72
I0
sg73
Nsg22
S'Shove'
p2005
sasg81
(dp2006
g657
I0
sg658
I0
sg659
I0
ssg86
I00
sg87
I144
sg88
(lp2007
I0
aI0
aI1
aI0
aI0
aI0
aI0
asg90
g732
sg92
I0
sg93
I10
sg94
S'M'
sg95
I0
sg96
S'Brigand'
p2008
sg98
I0
sg99
S'enemy'
p2009
sg101
Nsa(dp2010
g7
S'Pursue'
p2011
sg9
(lp2012
I110
aI65
aI0
aI40
aI25
aI20
aI15
aI15
asg11
I00
sg12
(lp2013
(dp2014
g15
Nsg16
I00
sg17
I00
sg18
I30
sg19
I00
sg20
I145
sg22
S'Steel Axe'
p2015
sasg32
(lp2016
I90
aI85
aI0
aI60
aI25
aI80
aI35
aI35
asg34
I22
sg42
(lp2017
(I22
I0
tp2018
a(I8
I0
tp2019
a(I0
I0
tp2020
a(I4
I0
tp2021
a(I5
I0
tp2022
a(I1
I0
tp2023
a(I3
I0
tp2024
a(I1
I0
tp2025
a(I8
I0
tp2026
a(I5
I0
tp2027
asg54
S'bandit2'
p2028
sg56
g726
sg58
g727
sg60
(lp2029
sg63
(lp2030
(dp2031
g66
Nsg67
Nsg68
Nsg69
(lp2032
sg71
Nsg72
Nsg73
Nsg22
g2002
sa(dp2033
g66
Nsg67
Nsg68
Nsg69
(lp2034
sg71
Nsg72
I0
sg73
Nsg22
g2005
sasg81
(dp2035
g657
I0
sg658
I0
sg659
I0
ssg86
I00
sg87
I145
sg88
(lp2036
I0
aI0
aI16
aI0
aI0
aI0
aI0
asg90
g732
sg92
I0
sg93
I10
sg94
S'M'
sg95
I0
sg96
S'Brigand'
p2037
sg98
I0
sg99
S'enemy'
p2038
sg101
Nsa(dp2039
g7
S'Pursue'
p2040
sg9
(lp2041
I110
aI65
aI0
aI40
aI25
aI20
aI15
aI15
asg11
I00
sg12
(lp2042
(dp2043
g15
Nsg16
I00
sg17
I00
sg18
I30
sg19
I00
sg20
I146
sg22
S'Steel Axe'
p2044
sasg32
(lp2045
I90
aI85
aI0
aI60
aI25
aI80
aI35
aI35
asg34
I22
sg42
(lp2046
(I22
I0
tp2047
a(I8
I0
tp2048
a(I0
I0
tp2049
a(I4
I0
tp2050
a(I5
I0
tp2051
a(I1
I0
tp2052
a(I3
I0
tp2053
a(I1
I0
tp2054
a(I8
I0
tp2055
a(I5
I0
tp2056
asg54
S'bandit3'
p2057
sg56
g726
sg58
g727
sg60
(lp2058
sg63
(lp2059
(dp2060
g66
Nsg67
Nsg68
Nsg69
(lp2061
sg71
Nsg72
Nsg73
Nsg22
g2002
sa(dp2062
g66
Nsg67
Nsg68
Nsg69
(lp2063
sg71
Nsg72
I0
sg73
Nsg22
g2005
sasg81
(dp2064
g657
I0
sg658
I0
sg659
I0
ssg86
I00
sg87
I146
sg88
(lp2065
I0
aI0
aI16
aI0
aI0
aI0
aI0
asg90
g732
sg92
I0
sg93
I10
sg94
S'M'
sg95
I0
sg96
S'Brigand'
p2066
sg98
I0
sg99
S'enemy'
p2067
sg101
Nsa(dp2068
g7
S'Pursue'
p2069
sg9
(lp2070
I110
aI65
aI0
aI40
aI25
aI20
aI15
aI15
asg11
I00
sg12
(lp2071
(dp2072
g15
Nsg16
I00
sg17
I01
sg18
I15
sg19
I00
sg20
I147
sg22
S'Short Axe'
p2073
sasg32
(lp2074
I90
aI85
aI0
aI60
aI25
aI80
aI35
aI35
asg34
I22
sg42
(lp2075
(I22
I0
tp2076
a(I8
I0
tp2077
a(I0
I0
tp2078
a(I4
I0
tp2079
a(I5
I0
tp2080
a(I1
I0
tp2081
a(I3
I0
tp2082
a(I1
I0
tp2083
a(I8
I0
tp2084
a(I5
I0
tp2085
asg54
S'bandit4'
p2086
sg56
g726
sg58
g727
sg60
(lp2087
sg63
(lp2088
(dp2089
g66
Nsg67
Nsg68
Nsg69
(lp2090
sg71
Nsg72
Nsg73
Nsg22
g2002
sa(dp2091
g66
Nsg67
Nsg68
Nsg69
(lp2092
sg71
Nsg72
I0
sg73
Nsg22
g2005
sasg81
(dp2093
g657
I0
sg658
I0
sg659
I0
ssg86
I00
sg87
I147
sg88
(lp2094
I0
aI0
aI16
aI0
aI0
aI0
aI0
asg90
g732
sg92
I0
sg93
I10
sg94
S'M'
sg95
I0
sg96
S'Brigand'
p2095
sg98
I0
sg99
S'enemy'
p2096
sg101
Nsa(dp2097
g7
S'Pursue'
p2098
sg9
(lp2099
I110
aI65
aI0
aI40
aI25
aI20
aI15
aI15
asg11
I00
sg12
(lp2100
(dp2101
g15
Nsg16
I00
sg17
I00
sg18
I45
sg19
I00
sg20
I148
sg22
S'Iron Axe'
p2102
sasg32
(lp2103
I90
aI85
aI0
aI60
aI25
aI80
aI35
aI35
asg34
I22
sg42
(lp2104
(I22
I0
tp2105
a(I8
I0
tp2106
a(I0
I0
tp2107
a(I4
I0
tp2108
a(I5
I0
tp2109
a(I1
I0
tp2110
a(I3
I0
tp2111
a(I1
I0
tp2112
a(I8
I0
tp2113
a(I5
I0
tp2114
asg54
S'bandit5'
p2115
sg56
g726
sg58
g727
sg60
(lp2116
sg63
(lp2117
(dp2118
g66
Nsg67
Nsg68
Nsg69
(lp2119
sg71
Nsg72
Nsg73
Nsg22
g2002
sa(dp2120
g66
Nsg67
Nsg68
Nsg69
(lp2121
sg71
Nsg72
I0
sg73
Nsg22
g2005
sasg81
(dp2122
g657
I0
sg658
I0
sg659
I0
ssg86
I00
sg87
I148
sg88
(lp2123
I0
aI0
aI1
aI0
aI0
aI0
aI0
asg90
g732
sg92
I0
sg93
I10
sg94
S'M'
sg95
I0
sg96
S'Brigand'
p2124
sg98
I0
sg99
S'enemy'
p2125
sg101
Nsa(dp2126
g7
S'Pursue'
p2127
sg9
(lp2128
I110
aI65
aI0
aI40
aI25
aI20
aI15
aI15
asg11
I00
sg12
(lp2129
(dp2130
g15
Nsg16
I00
sg17
I00
sg18
I30
sg19
I00
sg20
I149
sg22
S'Steel Axe'
p2131
sasg32
(lp2132
I90
aI85
aI0
aI60
aI25
aI80
aI35
aI35
asg34
I22
sg42
(lp2133
(I22
I0
tp2134
a(I8
I0
tp2135
a(I0
I0
tp2136
a(I4
I0
tp2137
a(I5
I0
tp2138
a(I1
I0
tp2139
a(I3
I0
tp2140
a(I1
I0
tp2141
a(I8
I0
tp2142
a(I5
I0
tp2143
asg54
S'bandit6'
p2144
sg56
g726
sg58
g727
sg60
(lp2145
sg63
(lp2146
(dp2147
g66
Nsg67
Nsg68
Nsg69
(lp2148
sg71
Nsg72
Nsg73
Nsg22
g2002
sa(dp2149
g66
Nsg67
Nsg68
Nsg69
(lp2150
sg71
Nsg72
I0
sg73
Nsg22
g2005
sasg81
(dp2151
g657
I0
sg658
I0
sg659
I0
ssg86
I00
sg87
I149
sg88
(lp2152
I0
aI0
aI16
aI0
aI0
aI0
aI0
asg90
g732
sg92
I0
sg93
I10
sg94
S'M'
sg95
I0
sg96
S'Brigand'
p2153
sg98
I0
sg99
S'enemy'
p2154
sg101
Nsa(dp2155
g7
S'Pursue'
p2156
sg9
(lp2157
I110
aI65
aI0
aI40
aI25
aI20
aI15
aI15
asg11
I00
sg12
(lp2158
(dp2159
g15
Nsg16
I00
sg17
I00
sg18
I30
sg19
I00
sg20
I150
sg22
S'Steel Axe'
p2160
sasg32
(lp2161
I90
aI85
aI0
aI60
aI25
aI80
aI35
aI35
asg34
I22
sg42
(lp2162
(I22
I0
tp2163
a(I8
I0
tp2164
a(I0
I0
tp2165
a(I4
I0
tp2166
a(I5
I0
tp2167
a(I1
I0
tp2168
a(I3
I0
tp2169
a(I1
I0
tp2170
a(I8
I0
tp2171
a(I5
I0
tp2172
asg54
S'bandit7'
p2173
sg56
g726
sg58
g727
sg60
(lp2174
sg63
(lp2175
(dp2176
g66
Nsg67
Nsg68
Nsg69
(lp2177
sg71
Nsg72
Nsg73
Nsg22
g2002
sa(dp2178
g66
Nsg67
Nsg68
Nsg69
(lp2179
sg71
Nsg72
I0
sg73
Nsg22
g2005
sasg81
(dp2180
g657
I0
sg658
I0
sg659
I0
ssg86
I00
sg87
I150
sg88
(lp2181
I0
aI0
aI16
aI0
aI0
aI0
aI0
asg90
g732
sg92
I0
sg93
I10
sg94
S'M'
sg95
I0
sg96
S'Brigand'
p2182
sg98
I0
sg99
S'enemy'
p2183
sg101
Nsa(dp2184
g7
S'Pursue'
p2185
sg9
(lp2186
I110
aI65
aI0
aI40
aI25
aI20
aI15
aI15
asg11
I00
sg12
(lp2187
(dp2188
g15
Nsg16
I00
sg17
I01
sg18
I20
sg19
I00
sg20
I151
sg22
S'Mithril Axe'
p2189
sasg32
(lp2190
I90
aI85
aI0
aI60
aI25
aI80
aI35
aI35
asg34
I22
sg42
(lp2191
(I22
I0
tp2192
a(I8
I0
tp2193
a(I0
I0
tp2194
a(I4
I0
tp2195
a(I5
I0
tp2196
a(I1
I0
tp2197
a(I3
I0
tp2198
a(I1
I0
tp2199
a(I8
I0
tp2200
a(I5
I0
tp2201
asg54
S'bandit8'
p2202
sg56
g726
sg58
g727
sg60
(lp2203
sg63
(lp2204
(dp2205
g66
Nsg67
Nsg68
Nsg69
(lp2206
sg71
Nsg72
Nsg73
Nsg22
g2002
sa(dp2207
g66
Nsg67
Nsg68
Nsg69
(lp2208
sg71
Nsg72
I0
sg73
Nsg22
g2005
sasg81
(dp2209
g657
I0
sg658
I0
sg659
I0
ssg86
I00
sg87
I151
sg88
(lp2210
I0
aI0
aI41
aI0
aI0
aI0
aI0
asg90
g732
sg92
I0
sg93
I10
sg94
S'M'
sg95
I0
sg96
S'Brigand'
p2211
sg98
I0
sg99
S'enemy'
p2212
sg101
Nsa(dp2213
g7
S'Pursue'
p2214
sg9
(lp2215
I105
aI60
aI15
aI45
aI40
aI35
aI35
aI25
asg11
I00
sg12
(lp2216
(dp2217
g15
Nsg16
I00
sg17
I00
sg18
I30
sg19
I00
sg20
I152
sg22
S'Steel Lance'
p2218
sasg32
(lp2219
I40
aI80
aI20
aI60
aI20
aI80
aI80
aI0
asg34
I21
sg42
(lp2220
(I21
I0
tp2221
a(I9
I0
tp2222
a(I1
I0
tp2223
a(I6
I0
tp2224
a(I6
I0
tp2225
a(I2
I0
tp2226
a(I7
I0
tp2227
a(I2
I0
tp2228
a(I7
I0
tp2229
a(I6
I0
tp2230
asg54
S'wr1_1'
p2231
sg56
g726
sg58
g727
sg60
(lp2232
S'Flying'
p2233
asg63
(lp2234
(dp2235
g66
Nsg67
Nsg68
Nsg69
(lp2236
sg71
Nsg72
Nsg73
Nsg22
S'Flying'
p2237
sa(dp2238
g66
Nsg67
Nsg68
Nsg69
(lp2239
sg71
Nsg72
Nsg73
Nsg22
S'Empowered'
p2240
sasg81
(dp2241
g657
I0
sg658
I0
sg659
I0
ssg86
I00
sg87
I152
sg88
(lp2242
I0
aI16
aI1
aI0
aI0
aI0
aI0
asg90
g732
sg92
I2
sg93
I9
sg94
S'M'
sg95
I0
sg96
S'Dracoknight'
p2243
sg98
I0
sg99
S'enemy'
p2244
sg101
Nsa(dp2245
g7
S'Pursue'
p2246
sg9
(lp2247
I105
aI60
aI15
aI45
aI40
aI35
aI35
aI25
asg11
I00
sg12
(lp2248
(dp2249
g15
Nsg16
I00
sg17
I00
sg18
I45
sg19
I00
sg20
I153
sg22
S'Iron Axe'
p2250
sasg32
(lp2251
I40
aI80
aI20
aI60
aI20
aI80
aI80
aI0
asg34
I21
sg42
(lp2252
(I21
I0
tp2253
a(I9
I0
tp2254
a(I1
I0
tp2255
a(I6
I0
tp2256
a(I6
I0
tp2257
a(I2
I0
tp2258
a(I7
I0
tp2259
a(I2
I0
tp2260
a(I7
I0
tp2261
a(I6
I0
tp2262
asg54
S'wr1_2'
p2263
sg56
g726
sg58
g727
sg60
(lp2264
g2233
asg63
(lp2265
(dp2266
g66
Nsg67
Nsg68
Nsg69
(lp2267
sg71
Nsg72
Nsg73
Nsg22
g2237
sa(dp2268
g66
Nsg67
Nsg68
Nsg69
(lp2269
sg71
Nsg72
Nsg73
Nsg22
g2240
sasg81
(dp2270
g657
I0
sg658
I0
sg659
I0
ssg86
I00
sg87
I153
sg88
(lp2271
I0
aI1
aI1
aI0
aI0
aI0
aI0
asg90
g732
sg92
I2
sg93
I9
sg94
S'M'
sg95
I0
sg96
S'Dracoknight'
p2272
sg98
I0
sg99
S'enemy'
p2273
sg101
Nsa(dp2274
g7
S'Pursue'
p2275
sg9
(lp2276
I105
aI60
aI15
aI45
aI40
aI35
aI35
aI25
asg11
I00
sg12
(lp2277
(dp2278
g15
Nsg16
I00
sg17
I00
sg18
I20
sg19
I00
sg20
I154
sg22
S'Javelin'
p2279
sasg32
(lp2280
I40
aI80
aI20
aI60
aI20
aI80
aI80
aI0
asg34
I21
sg42
(lp2281
(I21
I0
tp2282
a(I9
I0
tp2283
a(I1
I0
tp2284
a(I6
I0
tp2285
a(I6
I0
tp2286
a(I2
I0
tp2287
a(I7
I0
tp2288
a(I2
I0
tp2289
a(I7
I0
tp2290
a(I6
I0
tp2291
asg54
S'wr1_3'
p2292
sg56
g726
sg58
g727
sg60
(lp2293
g2233
asg63
(lp2294
(dp2295
g66
Nsg67
Nsg68
Nsg69
(lp2296
sg71
Nsg72
Nsg73
Nsg22
g2237
sa(dp2297
g66
Nsg67
Nsg68
Nsg69
(lp2298
sg71
Nsg72
Nsg73
Nsg22
g2240
sasg81
(dp2299
g657
I0
sg658
I0
sg659
I0
ssg86
I00
sg87
I154
sg88
(lp2300
I0
aI1
aI1
aI0
aI0
aI0
aI0
asg90
g732
sg92
I2
sg93
I9
sg94
S'M'
sg95
I0
sg96
S'Dracoknight'
p2301
sg98
I0
sg99
S'enemy'
p2302
sg101
Nsa(dp2303
g7
S'Pursue'
p2304
sg9
(lp2305
I105
aI60
aI15
aI45
aI40
aI35
aI35
aI25
asg11
I00
sg12
(lp2306
(dp2307
g15
Nsg16
I00
sg17
I00
sg18
I45
sg19
I00
sg20
I155
sg22
S'Iron Axe'
p2308
sasg32
(lp2309
I40
aI80
aI20
aI60
aI20
aI80
aI80
aI0
asg34
I21
sg42
(lp2310
(I21
I0
tp2311
a(I9
I0
tp2312
a(I1
I0
tp2313
a(I6
I0
tp2314
a(I6
I0
tp2315
a(I2
I0
tp2316
a(I7
I0
tp2317
a(I2
I0
tp2318
a(I7
I0
tp2319
a(I6
I0
tp2320
asg54
S'wr1_4'
p2321
sg56
g726
sg58
g727
sg60
(lp2322
g2233
asg63
(lp2323
(dp2324
g66
Nsg67
Nsg68
Nsg69
(lp2325
sg71
Nsg72
Nsg73
Nsg22
g2237
sa(dp2326
g66
Nsg67
Nsg68
Nsg69
(lp2327
sg71
Nsg72
Nsg73
Nsg22
g2240
sasg81
(dp2328
g657
I0
sg658
I0
sg659
I0
ssg86
I00
sg87
I155
sg88
(lp2329
I0
aI1
aI1
aI0
aI0
aI0
aI0
asg90
g732
sg92
I2
sg93
I9
sg94
S'M'
sg95
I0
sg96
S'Dracoknight'
p2330
sg98
I0
sg99
S'enemy'
p2331
sg101
Nsa(dp2332
g7
S'Pursue'
p2333
sg9
(lp2334
I105
aI60
aI15
aI45
aI40
aI35
aI35
aI25
asg11
I00
sg12
(lp2335
(dp2336
g15
Nsg16
I00
sg17
I00
sg18
I30
sg19
I00
sg20
I156
sg22
S'Steel Lance'
p2337
sasg32
(lp2338
I45
aI40
aI35
aI5
aI60
aI15
aI15
aI25
asg34
I22
sg42
(lp2339
(I22
I0
tp2340
a(I10
I0
tp2341
a(I1
I0
tp2342
a(I7
I0
tp2343
a(I6
I0
tp2344
a(I3
I0
tp2345
a(I8
I0
tp2346
a(I2
I0
tp2347
a(I7
I0
tp2348
a(I6
I0
tp2349
asg54
S'wr2_1'
p2350
sg56
g726
sg58
g727
sg60
(lp2351
g2233
asg63
(lp2352
(dp2353
g66
Nsg67
Nsg68
Nsg69
(lp2354
sg71
Nsg72
Nsg73
Nsg22
g2237
sa(dp2355
g66
Nsg67
Nsg68
Nsg69
(lp2356
sg71
Nsg72
Nsg73
Nsg22
g2240
sasg81
(dp2357
g657
I0
sg658
I0
sg659
I0
ssg86
I00
sg87
I156
sg88
(lp2358
I0
aI16
aI1
aI0
aI0
aI0
aI0
asg90
g732
sg92
I2
sg93
I10
sg94
S'M'
sg95
I0
sg96
S'Dracoknight'
p2359
sg98
I0
sg99
S'enemy'
p2360
sg101
Nsa(dp2361
g7
S'Pursue'
p2362
sg9
(lp2363
I105
aI60
aI15
aI45
aI40
aI35
aI35
aI25
asg11
I00
sg12
(lp2364
(dp2365
g15
Nsg16
I00
sg17
I00
sg18
I45
sg19
I00
sg20
I157
sg22
S'Iron Axe'
p2366
sasg32
(lp2367
I45
aI40
aI35
aI5
aI60
aI15
aI15
aI25
asg34
I22
sg42
(lp2368
(I22
I0
tp2369
a(I10
I0
tp2370
a(I1
I0
tp2371
a(I7
I0
tp2372
a(I6
I0
tp2373
a(I3
I0
tp2374
a(I8
I0
tp2375
a(I2
I0
tp2376
a(I7
I0
tp2377
a(I6
I0
tp2378
asg54
S'wr2_2'
p2379
sg56
g726
sg58
g727
sg60
(lp2380
g2233
asg63
(lp2381
(dp2382
g66
Nsg67
Nsg68
Nsg69
(lp2383
sg71
Nsg72
Nsg73
Nsg22
g2237
sa(dp2384
g66
Nsg67
Nsg68
Nsg69
(lp2385
sg71
Nsg72
Nsg73
Nsg22
g2240
sasg81
(dp2386
g657
I0
sg658
I0
sg659
I0
ssg86
I00
sg87
I157
sg88
(lp2387
I0
aI1
aI1
aI0
aI0
aI0
aI0
asg90
g732
sg92
I2
sg93
I10
sg94
S'M'
sg95
I0
sg96
S'Dracoknight'
p2388
sg98
I0
sg99
S'enemy'
p2389
sg101
Nsa(dp2390
g7
S'Pursue'
p2391
sg9
(lp2392
I105
aI60
aI15
aI45
aI40
aI35
aI35
aI25
asg11
I00
sg12
(lp2393
(dp2394
g15
Nsg16
I00
sg17
I00
sg18
I20
sg19
I00
sg20
I158
sg22
S'Javelin'
p2395
sasg32
(lp2396
I45
aI40
aI35
aI5
aI60
aI15
aI15
aI25
asg34
I22
sg42
(lp2397
(I22
I0
tp2398
a(I10
I0
tp2399
a(I1
I0
tp2400
a(I7
I0
tp2401
a(I6
I0
tp2402
a(I3
I0
tp2403
a(I8
I0
tp2404
a(I2
I0
tp2405
a(I7
I0
tp2406
a(I6
I0
tp2407
asg54
S'wr2_3'
p2408
sg56
g726
sg58
g727
sg60
(lp2409
g2233
asg63
(lp2410
(dp2411
g66
Nsg67
Nsg68
Nsg69
(lp2412
sg71
Nsg72
Nsg73
Nsg22
g2237
sa(dp2413
g66
Nsg67
Nsg68
Nsg69
(lp2414
sg71
Nsg72
Nsg73
Nsg22
g2240
sasg81
(dp2415
g657
I0
sg658
I0
sg659
I0
ssg86
I00
sg87
I158
sg88
(lp2416
I0
aI1
aI1
aI0
aI0
aI0
aI0
asg90
g732
sg92
I2
sg93
I10
sg94
S'M'
sg95
I0
sg96
S'Dracoknight'
p2417
sg98
I0
sg99
S'enemy'
p2418
sg101
Nsa(dp2419
g7
S'Pursue'
p2420
sg9
(lp2421
I105
aI60
aI15
aI45
aI40
aI35
aI35
aI25
asg11
I00
sg12
(lp2422
(dp2423
g15
Nsg16
I00
sg17
I00
sg18
I45
sg19
I00
sg20
I159
sg22
S'Iron Axe'
p2424
sasg32
(lp2425
I45
aI40
aI35
aI5
aI60
aI15
aI15
aI25
asg34
I22
sg42
(lp2426
(I22
I0
tp2427
a(I10
I0
tp2428
a(I1
I0
tp2429
a(I7
I0
tp2430
a(I6
I0
tp2431
a(I3
I0
tp2432
a(I8
I0
tp2433
a(I2
I0
tp2434
a(I7
I0
tp2435
a(I6
I0
tp2436
asg54
S'wr2_4'
p2437
sg56
g726
sg58
g727
sg60
(lp2438
g2233
asg63
(lp2439
(dp2440
g66
Nsg67
Nsg68
Nsg69
(lp2441
sg71
Nsg72
Nsg73
Nsg22
g2237
sa(dp2442
g66
Nsg67
Nsg68
Nsg69
(lp2443
sg71
Nsg72
Nsg73
Nsg22
g2240
sasg81
(dp2444
g657
I0
sg658
I0
sg659
I0
ssg86
I00
sg87
I159
sg88
(lp2445
I0
aI1
aI1
aI0
aI0
aI0
aI0
asg90
g732
sg92
I2
sg93
I10
sg94
S'M'
sg95
I0
sg96
S'Dracoknight'
p2446
sg98
I0
sg99
S'enemy'
p2447
sg101
Nsa(dp2448
g7
S'Pursue'
p2449
sg9
(lp2450
I105
aI60
aI15
aI45
aI40
aI35
aI35
aI25
asg11
I00
sg12
(lp2451
(dp2452
g15
Nsg16
I00
sg17
I00
sg18
I30
sg19
I00
sg20
I160
sg22
S'Steel Lance'
p2453
sasg32
(lp2454
I40
aI80
aI20
aI60
aI20
aI80
aI80
aI0
asg34
I21
sg42
(lp2455
(I21
I0
tp2456
a(I9
I0
tp2457
a(I1
I0
tp2458
a(I6
I0
tp2459
a(I6
I0
tp2460
a(I2
I0
tp2461
a(I7
I0
tp2462
a(I2
I0
tp2463
a(I7
I0
tp2464
a(I6
I0
tp2465
asg54
S'wr3_1'
p2466
sg56
g726
sg58
g727
sg60
(lp2467
g2233
asg63
(lp2468
(dp2469
g66
Nsg67
Nsg68
Nsg69
(lp2470
sg71
Nsg72
Nsg73
Nsg22
g2237
sa(dp2471
g66
Nsg67
Nsg68
Nsg69
(lp2472
sg71
Nsg72
Nsg73
Nsg22
g2240
sasg81
(dp2473
g657
I0
sg658
I0
sg659
I0
ssg86
I00
sg87
I160
sg88
(lp2474
I0
aI16
aI1
aI0
aI0
aI0
aI0
asg90
g732
sg92
I2
sg93
I9
sg94
S'M'
sg95
I0
sg96
S'Dracoknight'
p2475
sg98
I0
sg99
S'enemy'
p2476
sg101
Nsa(dp2477
g7
S'Pursue'
p2478
sg9
(lp2479
I105
aI60
aI15
aI45
aI40
aI35
aI35
aI25
asg11
I00
sg12
(lp2480
(dp2481
g15
Nsg16
I00
sg17
I00
sg18
I45
sg19
I00
sg20
I161
sg22
S'Iron Axe'
p2482
sasg32
(lp2483
I40
aI80
aI20
aI60
aI20
aI80
aI80
aI0
asg34
I21
sg42
(lp2484
(I21
I0
tp2485
a(I9
I0
tp2486
a(I1
I0
tp2487
a(I6
I0
tp2488
a(I6
I0
tp2489
a(I2
I0
tp2490
a(I7
I0
tp2491
a(I2
I0
tp2492
a(I7
I0
tp2493
a(I6
I0
tp2494
asg54
S'wr3_2'
p2495
sg56
g726
sg58
g727
sg60
(lp2496
g2233
asg63
(lp2497
(dp2498
g66
Nsg67
Nsg68
Nsg69
(lp2499
sg71
Nsg72
Nsg73
Nsg22
g2237
sa(dp2500
g66
Nsg67
Nsg68
Nsg69
(lp2501
sg71
Nsg72
Nsg73
Nsg22
g2240
sasg81
(dp2502
g657
I0
sg658
I0
sg659
I0
ssg86
I00
sg87
I161
sg88
(lp2503
I0
aI1
aI1
aI0
aI0
aI0
aI0
asg90
g732
sg92
I2
sg93
I9
sg94
S'M'
sg95
I0
sg96
S'Dracoknight'
p2504
sg98
I0
sg99
S'enemy'
p2505
sg101
Nsa(dp2506
g7
S'Pursue'
p2507
sg9
(lp2508
I105
aI60
aI15
aI45
aI40
aI35
aI35
aI25
asg11
I00
sg12
(lp2509
(dp2510
g15
Nsg16
I00
sg17
I00
sg18
I20
sg19
I00
sg20
I162
sg22
S'Javelin'
p2511
sasg32
(lp2512
I40
aI80
aI20
aI60
aI20
aI80
aI80
aI0
asg34
I21
sg42
(lp2513
(I21
I0
tp2514
a(I9
I0
tp2515
a(I1
I0
tp2516
a(I6
I0
tp2517
a(I6
I0
tp2518
a(I2
I0
tp2519
a(I7
I0
tp2520
a(I2
I0
tp2521
a(I7
I0
tp2522
a(I6
I0
tp2523
asg54
S'wr3_3'
p2524
sg56
g726
sg58
g727
sg60
(lp2525
g2233
asg63
(lp2526
(dp2527
g66
Nsg67
Nsg68
Nsg69
(lp2528
sg71
Nsg72
Nsg73
Nsg22
g2237
sa(dp2529
g66
Nsg67
Nsg68
Nsg69
(lp2530
sg71
Nsg72
Nsg73
Nsg22
g2240
sasg81
(dp2531
g657
I0
sg658
I0
sg659
I0
ssg86
I00
sg87
I162
sg88
(lp2532
I0
aI1
aI1
aI0
aI0
aI0
aI0
asg90
g732
sg92
I2
sg93
I9
sg94
S'M'
sg95
I0
sg96
S'Dracoknight'
p2533
sg98
I0
sg99
S'enemy'
p2534
sg101
Nsa(dp2535
g7
S'Pursue'
p2536
sg9
(lp2537
I105
aI60
aI15
aI45
aI40
aI35
aI35
aI25
asg11
I00
sg12
(lp2538
(dp2539
g15
Nsg16
I00
sg17
I00
sg18
I45
sg19
I00
sg20
I163
sg22
S'Iron Axe'
p2540
sasg32
(lp2541
I40
aI80
aI20
aI60
aI20
aI80
aI80
aI0
asg34
I21
sg42
(lp2542
(I21
I0
tp2543
a(I9
I0
tp2544
a(I1
I0
tp2545
a(I6
I0
tp2546
a(I6
I0
tp2547
a(I2
I0
tp2548
a(I7
I0
tp2549
a(I2
I0
tp2550
a(I7
I0
tp2551
a(I6
I0
tp2552
asg54
S'wr3_4'
p2553
sg56
g726
sg58
g727
sg60
(lp2554
g2233
asg63
(lp2555
(dp2556
g66
Nsg67
Nsg68
Nsg69
(lp2557
sg71
Nsg72
Nsg73
Nsg22
g2237
sa(dp2558
g66
Nsg67
Nsg68
Nsg69
(lp2559
sg71
Nsg72
Nsg73
Nsg22
g2240
sasg81
(dp2560
g657
I0
sg658
I0
sg659
I0
ssg86
I00
sg87
I163
sg88
(lp2561
I0
aI1
aI1
aI0
aI0
aI0
aI0
asg90
g732
sg92
I2
sg93
I9
sg94
S'M'
sg95
I0
sg96
S'Dracoknight'
p2562
sg98
I0
sg99
S'enemy'
p2563
sg101
NsasS'convoy'
p2564
(lp2565
(dp2566
g15
Nsg16
I00
sg17
I00
sg18
I3
sg19
I00
sg20
I0
sg22
S'Spiritbane'
p2567
sa(dp2568
g15
Nsg16
I00
sg17
I00
sg18
I1
sg19
I00
sg20
I0
sg22
S'Secret Book'
p2569
sa(dp2570
g15
Nsg16
I00
sg17
I00
sg18
I1
sg19
I00
sg20
I0
sg22
S'Angelic Robe'
p2571
sa(dp2572
g15
Nsg16
I00
sg17
I00
sg18
I1
sg19
I00
sg20
I0
sg22
S'Mana Ring'
p2573
sa(dp2574
g15
Nsg16
I00
sg17
I00
sg18
I1
sg19
I00
sg20
I0
sg22
S'Talisman'
p2575
sa(dp2576
g15
Nsg16
I00
sg17
I00
sg18
I10
sg19
I00
sg20
I0
sg22
S'Windwall'
p2577
sa(dp2578
g15
Nsg16
I00
sg17
I00
sg18
I15
sg19
I00
sg20
I0
sg22
S'Magebane Sword'
p2579
sa(dp2580
g15
Nsg16
I00
sg17
I00
sg18
I1
sg19
I00
sg20
I0
sg22
S'Energy Ring'
p2581
sa(dp2582
g15
Nsg16
I00
sg17
I00
sg18
I1
sg19
I00
sg20
I0
sg22
S'Speedwings'
p2583
sa(dp2584
g15
Nsg16
I00
sg17
I00
sg18
I10
sg19
I00
sg20
I0
sg22
S'Fly'
p2585
sa(dp2586
g15
Nsg16
I00
sg17
I00
sg18
I2
sg19
I00
sg20
I0
sg22
S'Spiritbane'
p2587
sa(dp2588
g15
Nsg16
I00
sg17
I00
sg18
I3
sg19
I00
sg20
I0
sg22
S'Barkskin'
p2589
sa(dp2590
g15
Nsg16
I00
sg17
I00
sg18
I15
sg19
I00
sg20
I0
sg22
S'Nyx'
p2591
sa(dp2592
g15
Nsg16
I00
sg17
I00
sg18
I1
sg19
I00
sg20
I0
sg22
S'Energy Ring'
p2593
sa(dp2594
g15
Nsg16
I00
sg17
I00
sg18
I7
sg19
I00
sg20
I0
sg22
S'Javelin'
p2595
sa(dp2596
g15
Nsg16
I00
sg17
I00
sg18
I14
sg19
I00
sg20
I0
sg22
S'Hand Axe'
p2597
sa(dp2598
g15
Nsg16
I00
sg17
I00
sg18
I25
sg19
I00
sg20
I0
sg22
S'Hatchet'
p2599
sa(dp2600
g15
Nsg16
I00
sg17
I00
sg18
I45
sg19
I00
sg20
I0
sg22
S'Iron Lance'
p2601
sa(dp2602
g15
Nsg16
I00
sg17
I00
sg18
I14
sg19
I00
sg20
I0
sg22
S'Fire'
p2603
sasS'groups'
p2604
(dp2605
S'Soldier'
p2606
(g732
g726
g727
tp2607
ssS'allreinforcements'
p2608
(dp2609
S'Nia'
p2610
(g199
g238
tp2611
sS'Eliza'
p2612
(g436
g475
tp2613
sS'Theo'
p2614
(g388
g430
tp2615
sS'Althea'
p2616
(g244
g289
tp2617
sg2553
(I163
(I25
I23
ttp2618
sg1881
(I140
(I0
I21
ttp2619
sg1910
(I141
(I0
I22
ttp2620
sg1939
(I142
(I1
I23
ttp2621
sg1968
(I143
(I2
I23
ttp2622
sS'Kayla'
p2623
(g525
g565
tp2624
sS'Coyote'
p2625
(g571
g613
tp2626
sg2495
(I161
(I27
I21
ttp2627
sg2524
(I162
(I26
I23
ttp2628
sg2466
(I160
(I27
I22
ttp2629
sg637
(g619
g664
tp2630
sS'Joel'
p2631
(g154
g193
tp2632
sS'Renae'
p2633
(g340
g382
tp2634
sS'Drake'
p2635
(g295
g334
tp2636
sg2115
(I148
(I27
I22
ttp2637
sg2086
(I147
(I0
I2
ttp2638
sg2173
(I150
(I26
I23
ttp2639
sg2144
(I149
(I27
I21
ttp2640
sg1997
(I144
(I1
I0
ttp2641
sg2057
(I146
(I0
I1
ttp2642
sg2028
(I145
(I2
I0
ttp2643
sg2408
(I158
(I27
I1
ttp2644
sg2379
(I157
(I25
I0
ttp2645
sg2350
(I156
(I26
I0
ttp2646
sS'Ophie'
p2647
(g21
g102
tp2648
sg2202
(I151
(I25
I23
ttp2649
sg2437
(I159
(I27
I2
ttp2650
sS'Prim'
p2651
(g108
g148
tp2652
sS'Sam'
p2653
(g481
g519
tp2654
sg2321
(I155
(I0
I2
ttp2655
sg686
(g670
(I2
I21
ttp2656
sg2231
(I152
(I1
I0
ttp2657
sg2263
(I153
(I2
I0
ttp2658
sg2292
(I154
(I0
I1
ttp2659
ssS'base_conversations'
p2660
(dp2661
S'Theo Sphinx, Pt. IV'
p2662
I00
ssS'playtime'
p2663
I34632301
sS'message'
p2664
(lp2665
S'Data/Level7/turnChangeScript.txt'
p2666
asS'unlocked_lore'
p2667
(lp2668
S'Sam'
p2669
aS'Joel'
p2670
aS'Prim'
p2671
aS'Ophie'
p2672
aS'Althea'
p2673
aS'Drake'
p2674
aS'Nia'
p2675
aS'Renae'
p2676
aS'Theo'
p2677
aS'Kerala'
p2678
aS'Empire'
p2679
aS'Eliza'
p2680
aS'Podoma'
p2681
aS'Rajas'
p2682
aS'Ulver'
p2683
aS'Vagnius'
p2684
aS'CFS'
p2685
aS'Kayla'
p2686
aS'CFS'
p2687
aS'Kayla'
p2688
aS'Tyrana'
p2689
aS'Coyote'
p2690
asS'statistics'
p2691
(lp2692
g35
(cCode.CustomObjects
LevelStatistic
p2693
g37
NtRp2694
(dp2695
S'turncount'
p2696
I4
sg42
(dp2697
g91
(dp2698
S'damage'
p2699
I13
sS'kills'
p2700
I2
sS'healing'
p2701
I0
ssg145
(dp2702
g2699
I8
sg2700
I0
sg2701
I7
sssg90
S'Prologue'
p2703
sbag35
(g2693
g37
NtRp2704
(dp2705
g2696
I4
sg42
(dp2706
g91
(dp2707
g2699
I39
sg2700
I4
sg2701
I0
ssg190
(dp2708
g2699
I48
sg2700
I1
sg2701
I0
ssg235
(dp2709
g2699
I30
sg2700
I2
sg2701
I0
ssg145
(dp2710
g2699
I8
sg2700
I2
sg2701
I12
sssg90
S'Chapter I'
p2711
sbag35
(g2693
g37
NtRp2712
(dp2713
g2696
I9
sg42
(dp2714
g286
(dp2715
S'damage'
p2716
I67
sS'kills'
p2717
I3
sS'healing'
p2718
I0
ssg145
(dp2719
S'damage'
p2720
I4
sS'kills'
p2721
I0
sS'healing'
p2722
I43
ssg190
(dp2723
g2720
I52
sg2721
I4
sg2722
I0
ssg235
(dp2724
g2720
I14
sg2721
I2
sg2722
I0
ssg331
(dp2725
g2716
I44
sg2717
I3
sg2718
I0
ssg91
(dp2726
g2720
I21
sg2721
I3
sg2722
I0
sssg90
S'Chapter II'
p2727
sbag35
(g2693
g37
NtRp2728
(dp2729
g2696
I15
sg42
(dp2730
g427
(dp2731
S'damage'
p2732
I81
sS'kills'
p2733
I1
sS'healing'
p2734
I0
ssg286
(dp2735
S'damage'
p2736
I45
sS'kills'
p2737
I5
sS'healing'
p2738
I0
ssg145
(dp2739
g2736
I16
sg2737
I0
sg2738
I61
ssg190
(dp2740
g2736
I64
sg2737
I3
sg2738
I0
ssg235
(dp2741
g2736
I58
sg2737
I3
sg2738
I0
ssg379
(dp2742
g2732
I8
sg2733
I3
sg2734
I0
ssg331
(dp2743
g2736
I35
sg2737
I2
sg2738
I0
ssg91
(dp2744
g2736
I70
sg2737
I6
sg2738
I0
sssg90
S'Chapter III'
p2745
sbag35
(g2693
g37
NtRp2746
(dp2747
g2696
I9
sg42
(dp2748
g427
(dp2749
S'damage'
p2750
I61
sS'kills'
p2751
I4
sS'healing'
p2752
I0
ssg286
(dp2753
g2750
I125
sg2751
I8
sg2752
I0
ssg145
(dp2754
g2750
I5
sg2751
I0
sg2752
I44
ssg190
(dp2755
g2750
I47
sg2751
I2
sg2752
I0
ssg235
(dp2756
g2750
I51
sg2751
I2
sg2752
I0
ssg379
(dp2757
g2750
I54
sg2751
I5
sg2752
I0
ssg331
(dp2758
g2750
I58
sg2751
I2
sg2752
I0
ssg91
(dp2759
g2750
I47
sg2751
I5
sg2752
I0
ssg472
(dp2760
S'damage'
p2761
I52
sS'kills'
p2762
I7
sS'healing'
p2763
I0
sssg90
S'Chapter IV'
p2764
sbag35
(g2693
g37
NtRp2765
(dp2766
g2696
I14
sg42
(dp2767
g427
(dp2768
S'damage'
p2769
I49
sS'kills'
p2770
I2
sS'healing'
p2771
I0
ssg286
(dp2772
g2769
I43
sg2770
I4
sg2771
I0
ssg145
(dp2773
g2769
I11
sg2770
I1
sg2771
I63
ssg516
(dp2774
S'damage'
p2775
I18
sS'kills'
p2776
I0
sS'healing'
p2777
I23
ssg190
(dp2778
g2769
I27
sg2770
I1
sg2771
I0
ssg235
(dp2779
g2769
I30
sg2770
I3
sg2771
I0
ssg379
(dp2780
g2769
I52
sg2770
I3
sg2771
I0
ssg331
(dp2781
g2769
I68
sg2770
I2
sg2771
I0
ssg562
(dp2782
g2775
I82
sg2776
I6
sg2777
I0
ssg91
(dp2783
g2769
I117
sg2770
I8
sg2771
I0
ssg472
(dp2784
g2769
I17
sg2770
I2
sg2771
I0
sssg90
S'Chapter V'
p2785
sbag35
(g2693
g37
NtRp2786
(dp2787
g2696
I20
sg42
(dp2788
g427
(dp2789
S'damage'
p2790
I117
sS'kills'
p2791
I4
sS'healing'
p2792
I0
ssg286
(dp2793
g2790
I131
sg2791
I7
sg2792
I0
ssg145
(dp2794
g2790
I22
sg2791
I1
sg2792
I126
ssg516
(dp2795
g2790
I59
sg2791
I6
sg2792
I72
ssg190
(dp2796
g2790
I130
sg2791
I4
sg2792
I0
ssg235
(dp2797
g2790
I194
sg2791
I9
sg2792
I0
ssg379
(dp2798
g2790
I61
sg2791
I3
sg2792
I0
ssg331
(dp2799
g2790
I96
sg2791
I4
sg2792
I0
ssg562
(dp2800
g2790
I105
sg2791
I4
sg2792
I0
ssg610
(dp2801
S'damage'
p2802
I82
sS'kills'
p2803
I6
sS'healing'
p2804
I0
ssg91
(dp2805
g2790
I48
sg2791
I4
sg2792
I0
ssg472
(dp2806
g2790
I74
sg2791
I9
sg2792
I0
sssg90
S'Chapter VI'
p2807
sbasS'market_items'
p2808
c__builtin__
set
p2809
((lp2810
S'Nyx'
p2811
aS'Glimmer'
p2812
aS'Great Axe'
p2813
aS'Great Bow'
p2814
aS'Mend'
p2815
aS'Spiritbane'
p2816
aS'Potion'
p2817
aS'Fire'
p2818
aS'Heal'
p2819
aS'Great Lance'
p2820
aS'Water'
p2821
aS'Hand Axe'
p2822
aS'Iron Sword'
p2823
aS'Shine'
p2824
aS'Iron Lance'
p2825
aS'Hatchet'
p2826
aS'Vulnerary'
p2827
aS'Willow Bow'
p2828
aS'Barkskin'
p2829
aS'Flux'
p2830
aS'Slim Lance'
p2831
aS'Wind'
p2832
aS'Steel Lance'
p2833
aS'Longbow'
p2834
aS'Iron Knife'
p2835
aS'Scathe'
p2836
aS'Oak Bow'
p2837
aS'Steel Sword'
p2838
aS'Javelin'
p2839
aS'Steel Axe'
p2840
aS'Earth'
p2841
aS'Great Sword'
p2842
aS'Iron Axe'
p2843
atRp2844
sS'support'
p2845
NsS'event_triggers'
p2846
(lp2847
sS'objective'
p2848
(S'Seize Fort'
p2849
S'Seize the fort.'
p2850
S'Ophie dies OR Sam dies,OR,Party size falls below 5. Currently {gameStateObj.get_total_party_members()}'
p2851
tp2852
sS'metaDataObj_changes'
p2853
(lp2854
sS'counters'
p2855
(dp2856
S'Dead_Wagons'
p2857
I12
sS'line_cross'
p2858
I13
sS'level'
p2859
I7
sS'money'
p2860
I10030
sS'switches'
p2861
I2
sS'Civ_Escape'
p2862
I5
sS'Escaped_Wagons'
p2863
I0
ssS'map'
p2864
(dp2865
S'HP'
p2866
(lp2867
sS'command_list'
p2868
(lp2869
ssS'state_list'
p2870
((lp2871
S'free'
p2872
aS'status'
p2873
aS'phase_change'
p2874
aS'dialogue'
p2875
aS'prep_main'
p2876
a(ltp2877
sS'prefabs'
p2878
(dp2879
S'w2'
p2880
(lp2881
S'enemy'
p2882
aS'2'
ag2880
aS'Dracoknight'
p2883
aS'Mithril Lance'
p2884
aS'0,0'
p2885
aS'Pursue'
p2886
aS'Soldier'
p2887
aS'Void_Curse'
p2888
asS'w1'
p2889
(lp2890
S'enemy'
p2891
aS'2'
ag2889
aS'Dracoknight'
p2892
aS'Mithril Axe'
p2893
aS'0,0'
p2894
aS'Pursue'
p2895
aS'Soldier'
p2896
aS'Void_Curse'
p2897
assS'phase_info'
p2898
(I0
I3
tp2899
sg2696
I1
sS'game_constants'
p2900
(lp2901
S'Convoy'
p2902
as.