(dp1
S'metaDataObj_changes'
p2
(lp3
sS'map'
p4
NsS'allunits'
p5
(lp6
(dp7
S'ai'
p8
S'None'
p9
sS'growths'
p10
(lp11
I65
aI10
aI30
aI45
aI50
aI50
aI40
aI65
asS'dead'
p12
I00
sS'growth_points'
p13
(lp14
I0
aI0
aI0
aI0
aI0
aI0
aI0
aI0
asS'desc'
p15
S"The resistance's leader. Ambitious and inquisitive."
p16
sS'currenthp'
p17
ccopy_reg
_reconstructor
p18
(cCode.UnitObject
Stat
p19
c__builtin__
object
p20
NtRp21
(dp22
S'bonuses'
p23
I0
sS'base_stat'
p24
I27
sbsS'stats'
p25
(lp26
(I18
I0
tp27
a(I2
I0
tp28
a(I7
I0
tp29
a(I8
I0
tp30
a(I8
I0
tp31
a(I6
I0
tp32
a(I3
I0
tp33
a(I7
I0
tp34
a(I6
I0
tp35
a(I5
I0
tp36
asS'event_id'
p37
S'Sam'
p38
sS'tags'
p39
(lp40
sS'TRV'
p41
I0
sS'faction'
p42
S'Resistance'
p43
sS'team'
p44
S'player'
p45
sS'status_effects'
p46
(lp47
(dp48
S'count'
p49
NsS'time_left'
p50
NsS'upkeep_sc_count'
p51
NsS'id'
p52
S'Inspiration'
p53
sS'charge'
p54
NsS'rhythm_sc_count'
p55
NsS'children'
p56
(lp57
sa(dp58
g49
Nsg50
Nsg51
Nsg52
S'Skill_Aura'
p59
sg54
Nsg55
Nsg56
(lp60
sasS'records'
p61
(dp62
S'damage'
p63
I0
sS'kills'
p64
I0
sS'healing'
p65
I0
ssS'finished'
p66
I00
sS'u_id'
p67
S'Sam'
p68
sS'wexp'
p69
(lp70
I0
aI0
aI0
aI0
aI36
aI0
aI0
asS'movement_group'
p71
I3
sS'name'
p72
S'Sam'
p73
sS'level'
p74
I7
sS'items'
p75
(lp76
(dp77
S'c_uses'
p78
NsS'locked'
p79
I00
sS'droppable'
p80
I00
sS'uses'
p81
I10
sS'event_combat'
p82
I00
sS'owner'
p83
g68
sg52
S'Fortune'
p84
sa(dp85
g78
Nsg79
I00
sg80
I00
sg81
I14
sg82
I00
sg83
g68
sg52
S'Mend'
p86
sa(dp87
g78
Nsg79
I00
sg80
I00
sg81
I19
sg82
I00
sg83
g68
sg52
S'Shine'
p88
sasS'klass'
p89
S'Tactician'
p90
sS'exp'
p91
I75
sS'gender'
p92
S'M'
sS'position'
p93
Nsa(dp94
g8
S'None'
p95
sg10
(lp96
I50
aI5
aI65
aI50
aI45
aI30
aI40
aI50
asg12
I00
sg13
(lp97
I80
aI10
aI0
aI80
aI70
aI50
aI60
aI80
asg15
S'A scheming diplomat from the Confederacy.'
p98
sg17
g18
(g19
g20
NtRp99
(dp100
g23
I0
sg24
I28
sbsg25
(lp101
(I18
I0
tp102
a(I1
I0
tp103
a(I10
I0
tp104
a(I8
I0
tp105
a(I7
I0
tp106
a(I6
I0
tp107
a(I4
I0
tp108
a(I7
I0
tp109
a(I4
I0
tp110
a(I4
I0
tp111
asg37
S'Kayla'
p112
sg39
(lp113
sg41
I0
sg42
S'Resistance'
p114
sg44
S'player'
p115
sg46
(lp116
(dp117
g49
Nsg50
Nsg51
Nsg52
S'Hex'
p118
sg54
Nsg55
Nsg56
(lp119
sa(dp120
g49
Nsg50
Nsg51
Nsg52
S'Empowered'
p121
sg54
Nsg55
Nsg56
(lp122
sasg61
(dp123
g63
I0
sg64
I0
sg65
I0
ssg66
I00
sg67
S'Kayla'
p124
sg69
(lp125
I0
aI0
aI0
aI0
aI0
aI0
aI46
asg71
I3
sg72
S'Kayla'
p126
sg74
I9
sg75
(lp127
(dp128
g78
Nsg79
I00
sg80
I00
sg81
I5
sg82
I00
sg83
g124
sg52
S'Scathe'
p129
sa(dp130
g78
Nsg79
I00
sg80
I00
sg81
I20
sg82
I00
sg83
g124
sg52
S'Nyx'
p131
sa(dp132
g78
Nsg79
I00
sg80
I00
sg81
I3
sg82
I00
sg83
g124
sg52
S'Spiritbane'
p133
sasg89
S'Shaman'
p134
sg91
I26
sg92
S'F'
sg93
Nsa(dp135
g8
S'None'
p136
sg10
(lp137
I70
aI65
aI20
aI70
aI80
aI60
aI40
aI30
asg12
I00
sg13
(lp138
I60
aI0
aI80
aI60
aI20
aI40
aI60
aI0
asg15
S'A moody but hopeful soldier.'
p139
sg17
g18
(g19
g20
NtRp140
(dp141
g23
I0
sg24
I23
sbsg25
(lp142
(I15
I0
tp143
a(I7
I0
tp144
a(I0
I0
tp145
a(I8
I0
tp146
a(I10
I0
tp147
a(I9
I0
tp148
a(I5
I0
tp149
a(I5
I0
tp150
a(I4
I3
tp151
a(I5
I0
tp152
asg37
S'0'
sg39
(lp153
sg41
I0
sg42
S'Resistance'
p154
sg44
S'player'
p155
sg46
(lp156
(dp157
g49
Nsg50
Nsg51
Nsg52
S'Synergy'
p158
sg54
Nsg55
Nsg56
(lp159
sa(dp160
g49
Nsg50
Nsg51
Nsg52
S'Underdog'
p161
sg54
Nsg55
Nsg56
(lp162
sa(dp163
g49
Nsg50
Nsg51
Nsg52
S'fConstitution +3'
p164
sg54
Nsg55
Nsg56
(lp165
sasg61
(dp166
g63
I0
sg64
I0
sg65
I0
ssg66
I00
sg67
S'Eliza'
p167
sg69
(lp168
I0
aI36
aI0
aI0
aI0
aI0
aI0
asg71
I4
sg72
S'Eliza'
p169
sg74
I7
sg75
(lp170
(dp171
g78
Nsg79
I00
sg80
I00
sg81
I30
sg82
I00
sg83
g167
sg52
S'Iron Lance'
p172
sa(dp173
g78
Nsg79
I00
sg80
I00
sg81
I16
sg82
I00
sg83
g167
sg52
S'Javelin'
p174
sa(dp175
g78
Nsg79
I00
sg80
I00
sg81
I28
sg82
I00
sg83
g167
sg52
S'Steel Lance'
p176
sa(dp177
g78
Nsg79
I00
sg80
I00
sg81
Nsg82
I00
sg83
I0
sg52
S"Prim's Charm"
p178
sasg89
S'Soldier'
p179
sg91
I6
sg92
S'F'
sg93
Nsa(dp180
g8
S'None'
p181
sg10
(lp182
I105
aI50
aI30
aI70
aI80
aI80
aI30
aI40
asg12
I00
sg13
(lp183
I60
aI80
aI0
aI60
aI20
aI20
aI0
aI60
asg15
S'A strong-hearted renegade who often acts before he thinks.'
p184
sg17
g18
(g19
g20
NtRp185
(dp186
g23
I0
sg24
I27
sbsg25
(lp187
(I18
I0
tp188
a(I6
I0
tp189
a(I3
I0
tp190
a(I9
I0
tp191
a(I10
I0
tp192
a(I6
I0
tp193
a(I4
I0
tp194
a(I2
I0
tp195
a(I4
I0
tp196
a(I5
I0
tp197
asg37
S'Ophie'
p198
sg39
(lp199
S'Lord'
p200
asg41
I0
sg42
S'Resistance'
p201
sg44
S'player'
p202
sg46
(lp203
(dp204
g49
Nsg50
Nsg51
Nsg52
S'Riposte'
p205
sg54
Nsg55
Nsg56
(lp206
sa(dp207
g49
Nsg50
Nsg51
Nsg52
S'Vantage'
p208
sg54
Nsg55
Nsg56
(lp209
sasg61
(dp210
g63
I0
sg64
I0
sg65
I0
ssg66
I00
sg67
S'Ophie'
p211
sg69
(lp212
I38
aI0
aI0
aI0
aI0
aI0
aI0
asg71
I0
sg72
S'Ophie'
p213
sg74
I7
sg75
(lp214
(dp215
g78
Nsg79
I00
sg80
I00
sg81
I17
sg82
I00
sg83
g211
sg52
S'Levin Sword'
p216
sa(dp217
g78
Nsg79
I00
sg80
I00
sg81
I24
sg82
I00
sg83
g211
sg52
S'Steel Sword'
p218
sa(dp219
g78
Nsg79
I00
sg80
I00
sg81
I3
sg82
I00
sg83
I0
sg52
S'Vulnerary'
p220
sa(dp221
g78
Nsg79
I00
sg80
I00
sg81
I10
sg82
I00
sg83
g211
sg52
S'Mage Shield'
p222
sa(dp223
g78
Nsg79
I00
sg80
I00
sg81
I25
sg82
I00
sg83
g211
sg52
S'Great Bow'
p224
sasg89
S'Myrmidon'
p225
sg91
I54
sg92
S'M'
sg93
Nsa(dp226
g8
S'None'
p227
sg10
(lp228
I65
aI10
aI65
aI40
aI50
aI80
aI20
aI80
asg12
I00
sg13
(lp229
I0
aI20
aI0
aI60
aI80
aI20
aI10
aI20
asg15
S'A shy but kind-hearted young woman. Has an affinity with the spiritual.'
p230
sg17
g18
(g19
g20
NtRp231
(dp232
g23
I0
sg24
I30
sbsg25
(lp233
(I20
I0
tp234
a(I0
I0
tp235
a(I7
I0
tp236
a(I7
I0
tp237
a(I8
I0
tp238
a(I8
I0
tp239
a(I2
I0
tp240
a(I8
I0
tp241
a(I3
I0
tp242
a(I5
I0
tp243
asg37
S'Prim'
p244
sg39
(lp245
sg41
I0
sg42
S'Resistance'
p246
sg44
S'player'
p247
sg46
(lp248
(dp249
g49
Nsg50
Nsg51
Nsg52
S'Healtouch'
p250
sg54
Nsg55
Nsg56
(lp251
sa(dp252
g49
I1
sg50
Nsg51
Nsg52
S'Miracle'
p253
sg54
Nsg55
Nsg56
(lp254
sasg61
(dp255
g63
I0
sg64
I0
sg65
I0
ssg66
I00
sg67
S'Prim'
p256
sg69
(lp257
I0
aI0
aI0
aI0
aI43
aI0
aI0
asg71
I3
sg72
S'Prim'
p258
sg74
I7
sg75
(lp259
(dp260
g78
Nsg79
I00
sg80
I00
sg81
I24
sg82
I00
sg83
g256
sg52
S'Glimmer'
p261
sa(dp262
g78
Nsg79
I00
sg80
I00
sg81
I28
sg82
I00
sg83
g256
sg52
S'Heal'
p263
sa(dp264
g78
Nsg79
I00
sg80
I00
sg81
I14
sg82
I00
sg83
g256
sg52
S'Mend'
p265
sasg89
S'Mystic'
p266
sg91
I42
sg92
S'F'
sg93
Nsa(dp267
g8
S'None'
p268
sg10
(lp269
I105
aI80
aI5
aI60
aI50
aI45
aI30
aI20
asg12
I00
sg13
(lp270
I0
aI0
aI50
aI50
aI0
aI50
aI50
aI50
asg15
S'A jovial former sailor. Always ready for a new adventure.'
p271
sg17
g18
(g19
g20
NtRp272
(dp273
g23
I0
sg24
I39
sbsg25
(lp274
(I26
I0
tp275
a(I9
I0
tp276
a(I0
I0
tp277
a(I6
I0
tp278
a(I6
I0
tp279
a(I4
I0
tp280
a(I4
I0
tp281
a(I0
I0
tp282
a(I7
I0
tp283
a(I5
I0
tp284
asg37
S'0'
sg39
(lp285
sg41
I0
sg42
S'Resistance'
p286
sg44
S'player'
p287
sg46
(lp288
(dp289
g49
Nsg50
Nsg51
Nsg52
S'Cleave'
p290
sg54
I0
sg55
Nsg56
(lp291
sa(dp292
g49
Nsg50
Nsg51
Nsg52
S'Shove'
p293
sg54
I0
sg55
Nsg56
(lp294
sasg61
(dp295
g63
I0
sg64
I0
sg65
I0
ssg66
I00
sg67
S'Joel'
p296
sg69
(lp297
I0
aI0
aI49
aI0
aI0
aI0
aI0
asg71
I4
sg72
S'Joel'
p298
sg74
I8
sg75
(lp299
(dp300
g78
Nsg79
I00
sg80
I00
sg81
I18
sg82
I00
sg83
g296
sg52
S'Iron Axe'
p301
sa(dp302
g78
Nsg79
I00
sg80
I00
sg81
I17
sg82
I00
sg83
g296
sg52
S'Hand Axe'
p303
sa(dp304
g78
Nsg79
I00
sg80
I00
sg81
I30
sg82
I00
sg83
I0
sg52
S'Hatchet'
p305
sa(dp306
g78
Nsg79
I00
sg80
I00
sg81
I2
sg82
I00
sg83
g296
sg52
S'Potion'
p307
sa(dp308
g78
Nsg79
I00
sg80
I00
sg81
I14
sg82
I00
sg83
g296
sg52
S'Lancereaver'
p309
sasg89
S'Fighter'
p310
sg91
I27
sg92
S'M'
sg93
Nsa(dp311
g8
S'None'
p312
sg10
(lp313
I80
aI50
aI30
aI65
aI80
aI40
aI20
aI40
asg12
I00
sg13
(lp314
I20
aI80
aI0
aI0
aI20
aI60
aI80
aI60
asg15
S'A quiet archer most at home in the wilderness.'
p315
sg17
g18
(g19
g20
NtRp316
(dp317
g23
I0
sg24
I26
sbsg25
(lp318
(I17
I0
tp319
a(I6
I0
tp320
a(I4
I0
tp321
a(I8
I0
tp322
a(I10
I0
tp323
a(I5
I0
tp324
a(I2
I0
tp325
a(I3
I0
tp326
a(I4
I0
tp327
a(I5
I0
tp328
asg37
S'0'
sg39
(lp329
sg41
I0
sg42
S'Resistance'
p330
sg44
S'player'
p331
sg46
(lp332
(dp333
g49
Nsg50
Nsg51
Nsg52
S'Prescience'
p334
sg54
Nsg55
Nsg56
(lp335
sa(dp336
g49
Nsg50
Nsg51
Nsg52
S'Critical'
p337
sg54
I0
sg55
Nsg56
(lp338
sasg61
(dp339
g63
I0
sg64
I0
sg65
I0
ssg66
I00
sg67
S'Nia'
p340
sg69
(lp341
I0
aI0
aI0
aI51
aI0
aI0
aI0
asg71
I0
sg72
S'Nia'
p342
sg74
I9
sg75
(lp343
(dp344
g78
Nsg79
I00
sg80
I00
sg81
I26
sg82
I00
sg83
g340
sg52
S'Oak Bow'
p345
sa(dp346
g78
Nsg79
I00
sg80
I00
sg81
I22
sg82
I00
sg83
g340
sg52
S'Willow Bow'
p347
sa(dp348
g78
Nsg79
I00
sg80
I00
sg81
I17
sg82
I00
sg83
g340
sg52
S'Longbow'
p349
sa(dp350
g78
Nsg79
I00
sg80
I00
sg81
I3
sg82
I00
sg83
I0
sg52
g220
sa(dp351
g78
Nsg79
I00
sg80
I00
sg81
I1
sg82
I00
sg83
g340
sg52
S'Speedwings'
p352
sasg89
S'Archer'
p353
sg91
I10
sg92
S'F'
sg93
Nsa(dp354
g8
S'None'
p355
sg10
(lp356
I60
aI10
aI85
aI40
aI60
aI60
aI20
aI50
asg12
I00
sg13
(lp357
I40
aI20
aI80
aI60
aI40
aI40
aI80
aI80
asg15
S'A forthright but elegant and refined sorceress.'
p358
sg17
g18
(g19
g20
NtRp359
(dp360
g23
I5
sg24
I22
sbsg25
(lp361
(I14
I5
tp362
a(I1
I0
tp363
a(I9
I0
tp364
a(I6
I0
tp365
a(I8
I-2
tp366
a(I8
I0
tp367
a(I2
I2
tp368
a(I6
I0
tp369
a(I3
I0
tp370
a(I5
I0
tp371
asg37
S'0'
sg39
(lp372
sg41
I0
sg42
S'Resistance'
p373
sg44
S'player'
p374
sg46
(lp375
(dp376
g49
Nsg50
Nsg51
Nsg52
S'Focus'
p377
sg54
Nsg55
Nsg56
(lp378
sa(dp379
g49
Nsg50
Nsg51
Nsg52
S'fMaximum HP +5'
p380
sg54
Nsg55
Nsg56
(lp381
sa(dp382
g49
Nsg50
Nsg51
Nsg52
S'Speed -2'
p383
sg54
Nsg55
Nsg56
(lp384
sa(dp385
g49
Nsg50
Nsg51
Nsg52
S'Defense +2'
p386
sg54
Nsg55
Nsg56
(lp387
sasg61
(dp388
g63
I0
sg64
I0
sg65
I0
ssg66
I00
sg67
S'Althea'
p389
sg69
(lp390
I0
aI0
aI0
aI0
aI0
aI37
aI0
asg71
I3
sg72
S'Althea'
p391
sg74
I8
sg75
(lp392
(dp393
g78
Nsg79
I00
sg80
I00
sg81
I30
sg82
I00
sg83
g389
sg52
S'Earth'
p394
sa(dp395
g78
Nsg79
I00
sg80
I00
sg81
I8
sg82
I00
sg83
g389
sg52
S'Fire'
p396
sa(dp397
g78
Nsg79
I00
sg80
I00
sg81
I2
sg82
I00
sg83
g389
sg52
S'Windwall'
p398
sa(dp399
g78
Nsg79
I00
sg80
I01
sg81
I8
sg82
I00
sg83
g389
sg52
S'Fly'
p400
sa(dp401
g78
Nsg79
I00
sg80
I00
sg81
I2
sg82
I00
sg83
g389
sg52
S'Vulnerary'
p402
sasg89
S'Mage'
p403
sg91
I71
sg92
S'F'
sg93
Nsa(dp404
g8
S'None'
p405
sg10
(lp406
I90
aI65
aI5
aI60
aI60
aI40
aI50
aI40
asg12
I00
sg13
(lp407
I80
aI0
aI20
aI80
aI80
aI20
aI60
aI20
asg15
S"A disgraced Imperial knight now in Althea's service."
p408
sg17
g18
(g19
g20
NtRp409
(dp410
g23
I0
sg24
I28
sbsg25
(lp411
(I18
I0
tp412
a(I7
I0
tp413
a(I0
I0
tp414
a(I6
I0
tp415
a(I6
I0
tp416
a(I7
I0
tp417
a(I5
I0
tp418
a(I3
I0
tp419
a(I7
I0
tp420
a(I7
I0
tp421
asg37
S'0'
sg39
(lp422
sg41
I0
sg42
S'Resistance'
p423
sg44
S'player'
p424
sg46
(lp425
(dp426
g49
Nsg50
Nsg51
Nsg52
S'Canto'
p427
sg54
Nsg55
Nsg56
(lp428
sa(dp429
g49
Nsg50
Nsg51
Nsg52
S'Savior'
p430
sg54
Nsg55
Nsg56
(lp431
sasg61
(dp432
g63
I0
sg64
I0
sg65
I0
ssg66
I00
sg67
S'Drake'
p433
sg69
(lp434
I14
aI32
aI0
aI0
aI0
aI0
aI0
asg71
I1
sg72
S'Drake'
p435
sg74
I7
sg75
(lp436
(dp437
g78
Nsg79
I00
sg80
I00
sg81
I26
sg82
I00
sg83
g433
sg52
S'Iron Sword'
p438
sa(dp439
g78
Nsg79
I00
sg80
I00
sg81
I1
sg82
I00
sg83
g433
sg52
S'Vulnerary'
p440
sasg89
S'Cavalier'
p441
sg91
I25
sg92
S'M'
sg93
Nsa(dp442
g8
S'None'
p443
sg10
(lp444
I90
aI40
aI20
aI50
aI90
aI65
aI30
aI25
asg12
I01
sg13
(lp445
I20
aI80
aI90
aI40
aI20
aI0
aI50
aI20
asg15
S'An energetic thief with a kleptomanic streak.'
p446
sg17
g18
(g19
g20
NtRp447
(dp448
g23
I0
sg24
I24
sbsg25
(lp449
(I16
I0
tp450
a(I4
I0
tp451
a(I2
I0
tp452
a(I6
I0
tp453
a(I11
I0
tp454
a(I5
I0
tp455
a(I3
I0
tp456
a(I1
I0
tp457
a(I4
I0
tp458
a(I5
I0
tp459
asg37
S'0'
sg39
(lp460
sg41
I0
sg42
S'Kerala'
p461
sg44
S'player'
p462
sg46
(lp463
(dp464
g49
Nsg50
Nsg51
Nsg52
S'Locktouch'
p465
sg54
Nsg55
Nsg56
(lp466
sa(dp467
g49
Nsg50
Nsg51
Nsg52
S'Steal'
p468
sg54
Nsg55
Nsg56
(lp469
sasg61
(dp470
g63
I0
sg64
I0
sg65
I0
ssg66
I00
sg67
S'Renae'
p471
sg69
(lp472
I36
aI0
aI0
aI0
aI0
aI0
aI0
asg71
I0
sg72
S'Renae'
p473
sg74
I7
sg75
(lp474
(dp475
g78
Nsg79
I00
sg80
I00
sg81
I11
sg82
I00
sg83
g471
sg52
S'Steel Knife'
p476
sa(dp477
g78
Nsg79
I00
sg80
I00
sg81
I1
sg82
I00
sg83
g471
sg52
S'Energy Ring'
p478
sasg89
S'Thief'
p479
sg91
I94
sg92
S'F'
sg93
Nsa(dp480
g8
S'None'
p481
sg10
(lp482
I120
aI50
aI25
aI40
aI40
aI45
aI70
aI40
asg12
I00
sg13
(lp483
I60
aI60
aI80
aI20
aI20
aI40
aI20
aI20
asg15
S'An avid scholar. Interested in esoteric philosophy.'
p484
sg17
g18
(g19
g20
NtRp485
(dp486
g23
I0
sg24
I30
sbsg25
(lp487
(I20
I0
tp488
a(I9
I0
tp489
a(I0
I0
tp490
a(I7
I0
tp491
a(I4
I0
tp492
a(I3
I0
tp493
a(I9
I0
tp494
a(I2
I0
tp495
a(I8
I0
tp496
a(I4
I0
tp497
asg37
S'0'
sg39
(lp498
sg41
I0
sg42
S'Resistance'
p499
sg44
S'player'
p500
sg46
(lp501
(dp502
g49
Nsg50
Nsg51
Nsg52
S'Provoke'
p503
sg54
Nsg55
Nsg56
(lp504
sa(dp505
g49
Nsg50
Nsg51
Nsg52
S'Shove'
p506
sg54
I0
sg55
Nsg56
(lp507
sasg61
(dp508
g63
I0
sg64
I0
sg65
I0
ssg66
I00
sg67
S'Theo'
p509
sg69
(lp510
I0
aI33
aI0
aI0
aI0
aI0
aI0
asg71
I1
sg72
S'Theo'
p511
sg74
I6
sg75
(lp512
(dp513
g78
Nsg79
I00
sg80
I00
sg81
I15
sg82
I00
sg83
g509
sg52
S'Short Spear'
p514
sa(dp515
g78
Nsg79
I00
sg80
I00
sg81
I27
sg82
I00
sg83
g509
sg52
S'Iron Lance'
p516
sa(dp517
g78
Nsg79
I00
sg80
I00
sg81
I2
sg82
I00
sg83
g509
sg52
g220
sasg89
S'Knight'
p518
sg91
I96
sg92
S'M'
sg93
NsasS'statistics'
p519
(lp520
g18
(cCode.CustomObjects
LevelStatistic
p521
g20
NtRp522
(dp523
S'turncount'
p524
I1
sS'stats'
p525
(dp526
g258
(dp527
S'damage'
p528
I0
sS'kills'
p529
I0
sS'healing'
p530
I0
ssg213
(dp531
g528
I0
sg529
I0
sg530
I0
sssS'name'
p532
S'Prologue'
p533
sbag18
(g521
g20
NtRp534
(dp535
g524
I7
sg525
(dp536
g258
(dp537
g528
I64
sg529
I0
sg530
I40
ssg298
(dp538
S'damage'
p539
I93
sS'kills'
p540
I3
sS'healing'
p541
I0
ssg342
(dp542
g539
I69
sg540
I2
sg541
I0
ssg213
(dp543
g528
I44
sg529
I6
sg530
I0
sssg532
S'Chapter I'
p544
sbag18
(g521
g20
NtRp545
(dp546
g524
I10
sg525
(dp547
g391
(dp548
S'damage'
p549
I27
sS'kills'
p550
I3
sS'healing'
p551
I0
ssg258
(dp552
g539
I85
sg540
I0
sg541
I78
ssg298
(dp553
g539
I58
sg540
I4
sg541
I0
ssg342
(dp554
g539
I93
sg540
I3
sg541
I0
ssg435
(dp555
g549
I54
sg550
I1
sg551
I0
ssg213
(dp556
g539
I65
sg540
I4
sg541
I0
sssg532
S'Chapter II'
p557
sbag18
(g521
g20
NtRp558
(dp559
g524
I17
sg525
(dp560
g511
(dp561
S'damage'
p562
I0
sS'kills'
p563
I0
sS'healing'
p564
I0
ssg391
(dp565
g562
I0
sg563
I0
sg564
I0
ssg258
(dp566
g562
I0
sg563
I0
sg564
I0
ssg298
(dp567
g562
I0
sg563
I0
sg564
I0
ssg342
(dp568
g562
I0
sg563
I0
sg564
I0
ssg473
(dp569
g562
I0
sg563
I0
sg564
I0
ssg435
(dp570
g562
I0
sg563
I0
sg564
I0
ssg213
(dp571
g562
I0
sg563
I0
sg564
I0
sssg532
S'Chapter III'
p572
sbag18
(g521
g20
NtRp573
(dp574
g524
I9
sg525
(dp575
g511
(dp576
g562
I114
sg563
I5
sg564
I0
ssg391
(dp577
g562
I121
sg563
I4
sg564
I0
ssg258
(dp578
g562
I58
sg563
I0
sg564
I42
ssg169
(dp579
S'damage'
p580
I62
sS'kills'
p581
I4
sS'healing'
p582
I0
ssg342
(dp583
g562
I116
sg563
I6
sg564
I0
ssg473
(dp584
S'damage'
p585
I0
sS'kills'
p586
I0
sS'healing'
p587
I0
ssg435
(dp588
g562
I79
sg563
I4
sg564
I0
ssg213
(dp589
g562
I85
sg563
I6
sg564
I0
ssg298
(dp590
g562
I130
sg563
I5
sg564
I0
sssg532
S'Chapter IV'
p591
sbag18
(g521
g20
NtRp592
(dp593
g524
I18
sg525
(dp594
g511
(dp595
S'damage'
p596
I21
sS'kills'
p597
I1
sS'healing'
p598
I0
ssg391
(dp599
g596
I83
sg597
I2
sg598
I0
ssg258
(dp600
g596
I18
sg597
I1
sg598
I93
ssg73
(dp601
g63
I52
sg64
I1
sg65
I17
ssg169
(dp602
g596
I112
sg597
I7
sg598
I0
ssg342
(dp603
g596
I125
sg597
I5
sg598
I0
ssg473
(dp604
g596
I131
sg597
I5
sg598
I0
ssg435
(dp605
g596
I13
sg597
I0
sg598
I0
ssg126
(dp606
g63
I144
sg64
I6
sg65
I0
ssg213
(dp607
g596
I112
sg597
I2
sg598
I0
ssg298
(dp608
g596
I47
sg597
I3
sg598
I0
sssg532
S'Chapter V'
p609
sbasS'convoy'
p610
(lp611
(dp612
g78
Nsg79
I00
sg80
I00
sg81
Nsg82
I00
sg83
I0
sg52
S'Ruby'
p613
sa(dp614
g78
Nsg79
I00
sg80
I00
sg81
I2
sg82
I00
sg83
I0
sg52
S'Vulnerary'
p615
sa(dp616
g78
Nsg79
I00
sg80
I00
sg81
I19
sg82
I00
sg83
I0
sg52
S'Willow Bow'
p617
sa(dp618
g78
Nsg79
I00
sg80
I00
sg81
I30
sg82
I00
sg83
I0
sg52
S'Steel Sword'
p619
sa(dp620
g78
Nsg79
I00
sg80
I00
sg81
I35
sg82
I00
sg83
I0
sg52
S'Hatchet'
p621
sa(dp622
g78
Nsg79
I00
sg80
I00
sg81
I16
sg82
I00
sg83
I0
sg52
S'Iron Knife'
p623
sa(dp624
g78
Nsg79
I00
sg80
I00
sg81
I20
sg82
I00
sg83
I0
sg52
S'Javelin'
p625
sa(dp626
g78
Nsg79
I00
sg80
I00
sg81
I25
sg82
I00
sg83
I0
sg52
S'Shine'
p627
sa(dp628
g78
Nsg79
I00
sg80
I00
sg81
I25
sg82
I00
sg83
I0
sg52
S'Great Lance'
p629
sa(dp630
g78
Nsg79
I00
sg80
I00
sg81
I2
sg82
I00
sg83
I0
sg52
S'Vulnerary'
p631
sa(dp632
g78
Nsg79
I00
sg80
I00
sg81
I38
sg82
I00
sg83
I0
sg52
S'Iron Sword'
p633
sa(dp634
g78
Nsg79
I00
sg80
I00
sg81
I28
sg82
I00
sg83
I0
sg52
S'Iron Lance'
p635
sa(dp636
g78
Nsg79
I00
sg80
I00
sg81
I20
sg82
I00
sg83
I0
sg52
S'Iron Knife'
p637
sa(dp638
g78
Nsg79
I00
sg80
I00
sg81
I27
sg82
I00
sg83
I0
sg52
S'Steel Axe'
p639
sa(dp640
g78
Nsg79
I00
sg80
I00
sg81
I3
sg82
I00
sg83
I0
sg52
S'Herbs'
p641
sa(dp642
g78
Nsg79
I00
sg80
I00
sg81
I2
sg82
I00
sg83
I0
sg52
S'Spiritbane'
p643
sa(dp644
g78
Nsg79
I00
sg80
I00
sg81
I15
sg82
I00
sg83
I0
sg52
S'Bull Aspect'
p645
sa(dp646
g78
Nsg79
I00
sg80
I00
sg81
Nsg82
I00
sg83
I0
sg52
S'Sapphire'
p647
sa(dp648
g78
Nsg79
I00
sg80
I00
sg81
I19
sg82
I00
sg83
I0
sg52
S'Mithril Lance'
p649
sa(dp650
g78
Nsg79
I00
sg80
I00
sg81
I30
sg82
I00
sg83
I0
sg52
S'Wind'
p651
sa(dp652
g78
Nsg79
I00
sg80
I00
sg81
I23
sg82
I00
sg83
I0
sg52
S'Nyx'
p653
sa(dp654
g78
Nsg79
I00
sg80
I00
sg81
I2
sg82
I00
sg83
I0
sg52
S'Vulnerary'
p655
sa(dp656
g78
Nsg79
I00
sg80
I00
sg81
I18
sg82
I00
sg83
I0
sg52
S'Wind'
p657
sa(dp658
g78
Nsg79
I00
sg80
I00
sg81
I35
sg82
I00
sg83
I0
sg52
S'Rapier'
p659
sa(dp660
g78
Nsg79
I00
sg80
I00
sg81
I15
sg82
I00
sg83
I0
sg52
S'Iron Sword'
p661
sa(dp662
g78
Nsg79
I00
sg80
I00
sg81
I3
sg82
I00
sg83
I0
sg52
S'Potion'
p663
sasS'prefabs'
p664
(lp665
sS'talk_options'
p666
(lp667
sS'market_items'
p668
c__builtin__
set
p669
((lp670
S'Rapier'
p671
aS'Potion'
p672
aS'Iron Lance'
p673
aS'Short Bow'
p674
aS'Fire'
p675
aS'Heal'
p676
aS'Willow Bow'
p677
aS'Steel Sword'
p678
aS'Slim Lance'
p679
aS'Wind'
p680
aS'Glimmer'
p681
aS'Vulnerary'
p682
aS'Steel Axe'
p683
aS'Steel Lance'
p684
aS'Hatchet'
p685
aS'Iron Axe'
p686
aS'Iron Sword'
p687
atRp688
sS'support'
p689
NsS'state_list'
p690
((lp691
S'turn_change'
p692
a(ltp693
sS'allreinforcements'
p694
(dp695
sS'event_triggers'
p696
(lp697
sS'base_conversations'
p698
(dp699
sS'phase_info'
p700
(I0
I3
tp701
sS'objective'
p702
NsS'playtime'
p703
I15861247
sS'message'
p704
(lp705
sS'turncount'
p706
I0
sS'unlocked_lore'
p707
(lp708
S'Sam'
p709
aS'Joel'
p710
aS'Prim'
p711
aS'Ophie'
p712
aS'Althea'
p713
aS'Drake'
p714
aS'Nia'
p715
aS'Renae'
p716
aS'Theo'
p717
aS'Kerala'
p718
aS'Empire'
p719
aS'Eliza'
p720
aS'Podoma'
p721
aS'Rajas'
p722
aS'Ulver'
p723
aS'Vagnius'
p724
aS'CFS'
p725
aS'Kayla'
p726
aS'CFS'
p727
aS'Kayla'
p728
asS'game_constants'
p729
(lp730
S'Convoy'
p731
asS'counters'
p732
(dp733
S'Dead_Wagons'
p734
I11
sS'level'
p735
I6
sS'money'
p736
I1520
sS'switches'
p737
I4
sS'turns'
p738
I5
sS'Escaped_Wagons'
p739
I1
ss.