(dp1
S'talk_options'
p2
(lp3
sS'allunits'
p4
(lp5
(dp6
S'ai'
p7
S'None'
p8
sS'growths'
p9
(lp10
I105
aI55
aI35
aI75
aI80
aI80
aI40
aI40
asS'dead'
p11
I00
sS'items'
p12
(lp13
(dp14
S'c_uses'
p15
NsS'locked'
p16
I00
sS'droppable'
p17
I00
sS'uses'
p18
I17
sS'event_combat'
p19
I00
sS'owner'
p20
S'Ophie'
p21
sS'id'
p22
S'Iron Knife'
p23
sa(dp24
g15
Nsg16
I00
sg17
I00
sg18
I39
sg19
I00
sg20
g21
sg22
S'Iron Sword'
p25
sa(dp26
g15
Nsg16
I00
sg17
I00
sg18
I28
sg19
I00
sg20
g21
sg22
S'Steel Sword'
p27
sa(dp28
g15
Nsg16
I00
sg17
I00
sg18
I2
sg19
I00
sg20
g21
sg22
S'Vulnerary'
p29
sa(dp30
g15
Nsg16
I00
sg17
I00
sg18
I30
sg19
I00
sg20
g21
sg22
S'Wind'
p31
sasS'growth_points'
p32
(lp33
I75
aI25
aI25
aI25
aI50
aI50
aI50
aI50
asS'currenthp'
p34
ccopy_reg
_reconstructor
p35
(cCode.UnitObject
Stat
p36
c__builtin__
object
p37
NtRp38
(dp39
S'bonuses'
p40
I0
sS'base_stat'
p41
I19
sbsS'stats'
p42
(lp43
(I19
I0
tp44
a(I8
I2
tp45
a(I3
I0
tp46
a(I11
I0
tp47
a(I13
I0
tp48
a(I8
I0
tp49
a(I4
I0
tp50
a(I4
I0
tp51
a(I5
I0
tp52
a(I5
I0
tp53
asS'event_id'
p54
S'Ophie'
p55
sS'faction'
p56
S'Resistance'
p57
sS'desc'
p58
S'A strong-hearted renegade who often acts before he thinks.'
p59
sS'tags'
p60
(lp61
S'Lord'
p62
asS'status_effects'
p63
(lp64
(dp65
S'count'
p66
NsS'time_left'
p67
NsS'upkeep_sc_count'
p68
NsS'children'
p69
(lp70
sS'parent_id'
p71
NsS'charge'
p72
NsS'rhythm_sc_count'
p73
Nsg22
S'Riposte'
p74
sa(dp75
g66
Nsg67
Nsg68
Nsg69
(lp76
sg71
Nsg72
Nsg73
Nsg22
S'Vantage'
p77
sa(dp78
g66
Nsg67
Nsg68
Nsg69
(lp79
sg71
Nsg72
Nsg73
Nsg22
S'fStrength +2'
p80
sasS'records'
p81
(dp82
S'damage'
p83
I0
sS'kills'
p84
I0
sS'healing'
p85
I0
ssS'finished'
p86
I00
sS'u_id'
p87
g21
sS'wexp'
p88
(lp89
I36
aI0
aI0
aI0
aI0
aI0
aI0
asS'name'
p90
S'Ophie'
p91
sS'movement_group'
p92
I0
sS'level'
p93
I8
sS'gender'
p94
S'M'
sS'TRV'
p95
I0
sS'klass'
p96
S'Myrmidon'
p97
sS'exp'
p98
I5
sS'team'
p99
S'player'
p100
sS'position'
p101
Nsa(dp102
g7
S'None'
p103
sg9
(lp104
I65
aI15
aI65
aI40
aI55
aI80
aI25
aI80
asg11
I00
sg12
(lp105
(dp106
g15
Nsg16
I00
sg17
I00
sg18
I21
sg19
I00
sg20
S'Prim'
p107
sg22
S'Heal'
p108
sa(dp109
g15
Nsg16
I00
sg17
I00
sg18
I24
sg19
I00
sg20
g107
sg22
S'Shine'
p110
sa(dp111
g15
Nsg16
I00
sg17
I00
sg18
I25
sg19
I00
sg20
g107
sg22
S'Glimmer'
p112
sasg32
(lp113
I45
aI95
aI45
aI70
aI15
aI90
aI25
aI90
asg34
g35
(g36
g37
NtRp114
(dp115
g40
I0
sg41
I14
sbsg42
(lp116
(I14
I0
tp117
a(I0
I0
tp118
a(I4
I0
tp119
a(I4
I0
tp120
a(I7
I0
tp121
a(I7
I0
tp122
a(I2
I0
tp123
a(I7
I0
tp124
a(I3
I0
tp125
a(I5
I0
tp126
asg54
S'Prim'
p127
sg56
S'Resistance'
p128
sg58
S'A shy but kind-hearted young woman. Has an affinity with the spiritual.'
p129
sg60
(lp130
sg63
(lp131
(dp132
g66
Nsg67
Nsg68
Nsg69
(lp133
sg71
Nsg72
Nsg73
Nsg22
S'Healtouch'
p134
sa(dp135
g66
I1
sg67
Nsg68
Nsg69
(lp136
sg71
Nsg72
Nsg73
Nsg22
S'Miracle'
p137
sasg81
(dp138
g83
I0
sg84
I0
sg85
I0
ssg86
I00
sg87
g107
sg88
(lp139
I0
aI0
aI0
aI0
aI41
aI0
aI0
asg90
S'Prim'
p140
sg92
I5
sg93
I5
sg94
S'F'
sg95
I0
sg96
S'Mystic'
p141
sg98
I92
sg99
S'player'
p142
sg101
Nsa(dp143
g7
S'None'
p144
sg9
(lp145
I105
aI80
aI5
aI60
aI55
aI45
aI35
aI20
asg11
I00
sg12
(lp146
(dp147
g15
Nsg16
I00
sg17
I00
sg18
I27
sg19
I00
sg20
S'Joel'
p148
sg22
S'Steel Axe'
p149
sa(dp150
g15
Nsg16
I00
sg17
I00
sg18
I27
sg19
I00
sg20
g148
sg22
S'Iron Axe'
p151
sa(dp152
g15
Nsg16
I00
sg17
I00
sg18
I31
sg19
I00
sg20
g148
sg22
S'Hatchet'
p153
sa(dp154
g15
Nsg16
I00
sg17
I00
sg18
I14
sg19
I00
sg20
g148
sg22
S'Hand Axe'
p155
sa(dp156
g15
Nsg16
I00
sg17
I00
sg18
I2
sg19
I00
sg20
g148
sg22
S'Potion'
p157
sasg32
(lp158
I65
aI90
aI65
aI30
aI15
aI85
aI55
aI10
asg34
g35
(g36
g37
NtRp159
(dp160
g40
I0
sg41
I25
sbsg42
(lp161
(I25
I0
tp162
a(I8
I0
tp163
a(I0
I0
tp164
a(I6
I0
tp165
a(I6
I0
tp166
a(I4
I0
tp167
a(I5
I0
tp168
a(I1
I0
tp169
a(I7
I0
tp170
a(I5
I0
tp171
asg54
S'0'
sg56
S'Resistance'
p172
sg58
S'A jovial former sailor. Always ready for a new adventure.'
p173
sg60
(lp174
sg63
(lp175
(dp176
g66
Nsg67
Nsg68
Nsg69
(lp177
sg71
Nsg72
I0
sg73
Nsg22
S'Cleave'
p178
sa(dp179
g66
Nsg67
Nsg68
Nsg69
(lp180
sg71
Nsg72
I0
sg73
Nsg22
S'Shove'
p181
sasg81
(dp182
g83
I0
sg84
I0
sg85
I0
ssg86
I00
sg87
g148
sg88
(lp183
I0
aI0
aI46
aI0
aI0
aI0
aI0
asg90
S'Joel'
p184
sg92
I4
sg93
I7
sg94
S'M'
sg95
I0
sg96
S'Fighter'
p185
sg98
I57
sg99
S'player'
p186
sg101
Nsa(dp187
g7
S'None'
p188
sg9
(lp189
I80
aI55
aI35
aI80
aI80
aI25
aI20
aI40
asg11
I00
sg12
(lp190
(dp191
g15
Nsg16
I00
sg17
I00
sg18
I40
sg19
I00
sg20
S'Nia'
p192
sg22
S'Willow Bow'
p193
sa(dp194
g15
Nsg16
I00
sg17
I00
sg18
I30
sg19
I00
sg20
g192
sg22
S'Oak Bow'
p195
sa(dp196
g15
Nsg16
I00
sg17
I00
sg18
I3
sg19
I00
sg20
g192
sg22
S'Vulnerary'
p197
sa(dp198
g15
Nsg16
I00
sg17
I00
sg18
I15
sg19
I00
sg20
g192
sg22
S'Lancereaver'
p199
sa(dp200
g15
Nsg16
I00
sg17
I00
sg18
I19
sg19
I00
sg20
g192
sg22
S'Mithril Lance'
p201
sasg32
(lp202
I90
aI15
aI55
aI90
aI90
aI25
aI10
aI70
asg34
g35
(g36
g37
NtRp203
(dp204
g40
I0
sg41
I16
sbsg42
(lp205
(I16
I0
tp206
a(I6
I0
tp207
a(I3
I0
tp208
a(I8
I0
tp209
a(I8
I0
tp210
a(I4
I0
tp211
a(I3
I0
tp212
a(I3
I0
tp213
a(I4
I0
tp214
a(I5
I0
tp215
asg54
S'0'
sg56
S'Resistance'
p216
sg58
S'A quiet archer most at home in the wilderness.'
p217
sg60
(lp218
sg63
(lp219
(dp220
g66
Nsg67
Nsg68
Nsg69
(lp221
sg71
Nsg72
Nsg73
Nsg22
S'Prescience'
p222
sa(dp223
g66
Nsg67
Nsg68
Nsg69
(lp224
sg71
Nsg72
I0
sg73
Nsg22
S'Critical'
p225
sasg81
(dp226
g83
I0
sg84
I0
sg85
I0
ssg86
I00
sg87
g192
sg88
(lp227
I0
aI0
aI0
aI41
aI0
aI0
aI0
asg90
S'Nia'
p228
sg92
I0
sg93
I7
sg94
S'F'
sg95
I0
sg96
S'Archer'
p229
sg98
I21
sg99
S'player'
p230
sg101
Nsa(dp231
g7
S'None'
p232
sg9
(lp233
I60
aI15
aI85
aI40
aI60
aI60
aI20
aI55
asg11
I00
sg12
(lp234
(dp235
g15
Nsg16
I00
sg17
I00
sg18
I21
sg19
I00
sg20
S'Althea'
p236
sg22
S'Wind'
p237
sa(dp238
g15
Nsg16
I00
sg17
I00
sg18
I29
sg19
I00
sg20
g236
sg22
S'Earth'
p239
sa(dp240
g15
Nsg16
I00
sg17
I00
sg18
I13
sg19
I00
sg20
g236
sg22
S'Fire'
p241
sa(dp242
g15
Nsg16
I00
sg17
I00
sg18
I21
sg19
I00
sg20
g236
sg22
S'Water'
p243
sa(dp244
g15
Nsg16
I00
sg17
I00
sg18
I3
sg19
I00
sg20
g236
sg22
S'Vulnerary'
p245
sasg32
(lp246
I50
aI25
aI75
aI50
aI50
aI50
aI50
aI25
asg34
g35
(g36
g37
NtRp247
(dp248
g40
I5
sg41
I16
sbsg42
(lp249
(I16
I5
tp250
a(I2
I0
tp251
a(I12
I2
tp252
a(I6
I0
tp253
a(I11
I2
tp254
a(I11
I0
tp255
a(I4
I0
tp256
a(I7
I0
tp257
a(I3
I0
tp258
a(I5
I0
tp259
asg54
S'0'
sg56
S'Resistance'
p260
sg58
S'A forthright but elegant and refined sorceress.'
p261
sg60
(lp262
sg63
(lp263
(dp264
g66
Nsg67
Nsg68
Nsg69
(lp265
sg71
Nsg72
Nsg73
Nsg22
S'Focus'
p266
sa(dp267
g66
Nsg67
Nsg68
Nsg69
(lp268
sg71
Nsg72
Nsg73
Nsg22
S'fMaximum HP +5'
p269
sa(dp270
g66
Nsg67
Nsg68
Nsg69
(lp271
sg71
Nsg72
Nsg73
Nsg22
S'fMagic +2'
p272
sa(dp273
g66
Nsg67
Nsg68
Nsg69
(lp274
sg71
Nsg72
Nsg73
Nsg22
S'Speed +2'
p275
sasg81
(dp276
g83
I0
sg84
I0
sg85
I0
ssg86
I00
sg87
g236
sg88
(lp277
I0
aI0
aI0
aI0
aI0
aI35
aI0
asg90
S'Althea'
p278
sg92
I5
sg93
I10
sg94
S'F'
sg95
I0
sg96
S'Mage'
p279
sg98
I0
sg99
S'player'
p280
sg101
Nsa(dp281
g7
S'None'
p282
sg9
(lp283
I95
aI65
aI5
aI60
aI60
aI40
aI55
aI40
asg11
I00
sg12
(lp284
(dp285
g15
Nsg16
I00
sg17
I00
sg18
I12
sg19
I00
sg20
S'Drake'
p286
sg22
S'Steel Knife'
p287
sa(dp288
g15
Nsg16
I00
sg17
I00
sg18
I43
sg19
I00
sg20
g286
sg22
S'Iron Sword'
p289
sa(dp290
g15
Nsg16
I00
sg17
I00
sg18
I30
sg19
I00
sg20
g286
sg22
S'Steel Sword'
p291
sa(dp292
g15
Nsg16
I00
sg17
I00
sg18
I23
sg19
I00
sg20
g286
sg22
S'Iron Lance'
p293
sa(dp294
g15
Nsg16
I00
sg17
I00
sg18
I1
sg19
I00
sg20
g286
sg22
S'Vulnerary'
p295
sasg32
(lp296
I45
aI15
aI55
aI10
aI10
aI90
aI5
aI90
asg34
g35
(g36
g37
NtRp297
(dp298
g40
I0
sg41
I19
sbsg42
(lp299
(I19
I0
tp300
a(I7
I0
tp301
a(I1
I0
tp302
a(I7
I0
tp303
a(I7
I0
tp304
a(I7
I0
tp305
a(I7
I0
tp306
a(I3
I0
tp307
a(I7
I0
tp308
a(I7
I0
tp309
asg54
S'0'
sg56
S'Resistance'
p310
sg58
S"A disgraced Imperial knight now in Althea's service."
p311
sg60
(lp312
sg63
(lp313
(dp314
g66
Nsg67
Nsg68
Nsg69
(lp315
sg71
Nsg72
Nsg73
Nsg22
S'Canto'
p316
sa(dp317
g66
Nsg67
Nsg68
Nsg69
(lp318
sg71
Nsg72
Nsg73
Nsg22
S'Savior'
p319
sasg81
(dp320
g83
I0
sg84
I0
sg85
I0
ssg86
I00
sg87
g286
sg88
(lp321
I24
aI23
aI0
aI0
aI0
aI0
aI0
asg90
S'Drake'
p322
sg92
I2
sg93
I7
sg94
S'M'
sg95
I0
sg96
S'Cavalier'
p323
sg98
I47
sg99
S'player'
p324
sg101
Nsa(dp325
g7
S'None'
p326
sg9
(lp327
I95
aI40
aI60
aI55
aI95
aI65
aI35
aI55
asg11
I00
sg12
(lp328
(dp329
g15
Nsg16
I00
sg17
I00
sg18
I16
sg19
I00
sg20
S'Renae'
p330
sg22
S'Levin Sword'
p331
sa(dp332
g15
Nsg16
I00
sg17
I00
sg18
I2
sg19
I00
sg20
g330
sg22
S'Steel Sword'
p333
sa(dp334
g15
Nsg16
I00
sg17
I00
sg18
I3
sg19
I00
sg20
g330
sg22
S'Vulnerary'
p335
sa(dp336
g15
Nsg16
I00
sg17
I00
sg18
I17
sg19
I00
sg20
g330
sg22
S'Longbow'
p337
sasg32
(lp338
I40
aI30
aI70
aI60
aI40
aI80
aI20
aI60
asg34
g35
(g36
g37
NtRp339
(dp340
g40
I5
sg41
I17
sbsg42
(lp341
(I17
I5
tp342
a(I6
I0
tp343
a(I5
I0
tp344
a(I6
I0
tp345
a(I13
I0
tp346
a(I6
I0
tp347
a(I5
I0
tp348
a(I4
I0
tp349
a(I4
I0
tp350
a(I6
I0
tp351
asg54
S'0'
sg56
S'Kerala'
p352
sg58
S'An energetic thief with a kleptomanic streak.'
p353
sg60
(lp354
sg63
(lp355
(dp356
g66
Nsg67
Nsg68
Nsg69
(lp357
sg71
Nsg72
Nsg73
Nsg22
S'Locktouch'
p358
sa(dp359
g66
Nsg67
Nsg68
Nsg69
(lp360
sg71
Nsg72
Nsg73
Nsg22
S'Steal'
p361
sa(dp362
g66
Nsg67
Nsg68
Nsg69
(lp363
sg71
Nsg72
Nsg73
Nsg22
S'fMaximum HP +5'
p364
sasg81
(dp365
g83
I0
sg84
I0
sg85
I0
ssg86
I00
sg87
g330
sg88
(lp366
I37
aI0
aI0
aI0
aI0
aI0
aI0
asg90
S'Renae'
p367
sg92
I0
sg93
I8
sg94
S'F'
sg95
I0
sg96
S'Thief'
p368
sg98
I27
sg99
S'player'
p369
sg101
Nsa(dp370
g7
S'None'
p371
sg9
(lp372
I120
aI55
aI25
aI40
aI40
aI45
aI75
aI40
asg11
I00
sg12
(lp373
(dp374
g15
Nsg16
I00
sg17
I00
sg18
I16
sg19
I00
sg20
S'Theo'
p375
sg22
S'Javelin'
p376
sa(dp377
g15
Nsg16
I00
sg17
I00
sg18
I25
sg19
I00
sg20
g375
sg22
S'Slim Lance'
p378
sa(dp379
g15
Nsg16
I00
sg17
I00
sg18
I45
sg19
I00
sg20
g375
sg22
S'Iron Lance'
p380
sa(dp381
g15
Nsg16
I00
sg17
I00
sg18
I3
sg19
I00
sg20
g375
sg22
S'Vulnerary'
p382
sa(dp383
g15
Nsg16
I00
sg17
I00
sg18
I30
sg19
I00
sg20
g375
sg22
S'Steel Lance'
p384
sasg32
(lp385
I90
aI60
aI0
aI30
aI30
aI40
aI0
aI30
asg34
g35
(g36
g37
NtRp386
(dp387
g40
I0
sg41
I22
sbsg42
(lp388
(I22
I0
tp389
a(I11
I0
tp390
a(I1
I0
tp391
a(I9
I0
tp392
a(I4
I0
tp393
a(I6
I0
tp394
a(I11
I0
tp395
a(I3
I0
tp396
a(I8
I0
tp397
a(I4
I1
tp398
asg54
S'0'
sg56
S'Resistance'
p399
sg58
S'An avid scholar. Interested in esoteric philosophy.'
p400
sg60
(lp401
sg63
(lp402
(dp403
g66
Nsg67
Nsg68
Nsg69
(lp404
sg71
Nsg72
Nsg73
Nsg22
S'Provoke'
p405
sa(dp406
g66
Nsg67
Nsg68
Nsg69
(lp407
sg71
Nsg72
I0
sg73
Nsg22
S'Shove'
p408
sa(dp409
g66
Nsg67
Nsg68
Nsg69
(lp410
sg71
Nsg72
Nsg73
Nsg22
S'fMovement +1'
p411
sasg81
(dp412
g83
I0
sg84
I0
sg85
I0
ssg86
I00
sg87
g375
sg88
(lp413
I0
aI35
aI0
aI0
aI0
aI0
aI0
asg90
S'Theo'
p414
sg92
I1
sg93
I8
sg94
S'M'
sg95
I0
sg96
S'Knight'
p415
sg98
I9
sg99
S'player'
p416
sg101
Nsa(dp417
g7
S'None'
p418
sg9
(lp419
I75
aI65
aI65
aI80
aI65
aI35
aI65
aI35
asg11
I00
sg12
(lp420
(dp421
g15
Nsg16
I00
sg17
I00
sg18
I42
sg19
I00
sg20
S'Eliza'
p422
sg22
S'Iron Lance'
p423
sa(dp424
g15
Nsg16
I00
sg17
I00
sg18
I18
sg19
I00
sg20
g422
sg22
S'Javelin'
p425
sa(dp426
g15
Nsg16
I00
sg17
I00
sg18
I15
sg19
I00
sg20
g422
sg22
S'Short Spear'
p427
sa(dp428
g15
Nsg16
I00
sg17
I00
sg18
I2
sg19
I00
sg20
g422
sg22
S'Vulnerary'
p429
sa(dp430
g15
Nsg16
I00
sg17
I00
sg18
Nsg19
I00
sg20
g422
sg22
S"Prim's Charm"
p431
sasg32
(lp432
I75
aI45
aI45
aI90
aI45
aI55
aI45
aI55
asg34
g35
(g36
g37
NtRp433
(dp434
g40
I0
sg41
I16
sbsg42
(lp435
(I16
I0
tp436
a(I6
I0
tp437
a(I3
I0
tp438
a(I7
I0
tp439
a(I9
I0
tp440
a(I4
I0
tp441
a(I6
I2
tp442
a(I3
I0
tp443
a(I5
I0
tp444
a(I5
I0
tp445
asg54
S'0'
sg56
S'Resistance'
p446
sg58
S'A moody, sarcastic soldier.'
p447
sg60
(lp448
sg63
(lp449
(dp450
g66
Nsg67
Nsg68
Nsg69
(lp451
sg71
Nsg72
Nsg73
Nsg22
S'Synergy'
p452
sa(dp453
g66
Nsg67
Nsg68
Nsg69
(lp454
sg71
Nsg72
Nsg73
Nsg22
S'Underdog'
p455
sa(dp456
g66
Nsg67
Nsg68
Nsg69
(lp457
sg71
Nsg72
Nsg73
Nsg22
S'fDefense +2'
p458
sasg81
(dp459
g83
I0
sg84
I0
sg85
I0
ssg86
I00
sg87
g422
sg88
(lp460
I0
aI33
aI0
aI0
aI0
aI0
aI0
asg90
S'Eliza'
p461
sg92
I4
sg93
I5
sg94
S'F'
sg95
I0
sg96
S'Soldier'
p462
sg98
I76
sg99
S'player'
p463
sg101
Nsa(dp464
g7
S'None'
p465
sg9
(lp466
I65
aI15
aI35
aI45
aI55
aI55
aI40
aI65
asg11
I00
sg12
(lp467
(dp468
g15
Nsg16
I00
sg17
I00
sg18
I16
sg19
I00
sg20
S'Sam'
p469
sg22
S'Shine'
p470
sa(dp471
g15
Nsg16
I00
sg17
I00
sg18
I10
sg19
I00
sg20
g469
sg22
S'Fortune'
p472
sa(dp473
g15
Nsg16
I00
sg17
I00
sg18
I14
sg19
I00
sg20
g469
sg22
S'Mend'
p474
sasg32
(lp475
I50
aI50
aI50
aI50
aI50
aI50
aI50
aI50
asg34
g35
(g36
g37
NtRp476
(dp477
g40
I5
sg41
I19
sbsg42
(lp478
(I19
I5
tp479
a(I3
I0
tp480
a(I7
I0
tp481
a(I8
I0
tp482
a(I10
I0
tp483
a(I7
I0
tp484
a(I4
I0
tp485
a(I7
I0
tp486
a(I4
I0
tp487
a(I5
I0
tp488
asg54
S'Sam'
p489
sg56
S'Resistance'
p490
sg58
S"The resistance's leader. Ambitious and inquisitive."
p491
sg60
(lp492
sg63
(lp493
(dp494
g66
Nsg67
Nsg68
Nsg69
(lp495
sg71
Nsg72
Nsg73
Nsg22
S'Inspiration'
p496
sa(dp497
g66
Nsg67
Nsg68
Nsg69
(lp498
sg71
Nsg72
Nsg73
Nsg22
S'Skill_Aura'
p499
sa(dp500
g66
Nsg67
Nsg68
Nsg69
(lp501
sg71
Nsg72
Nsg73
Nsg22
g364
sasg81
(dp502
g83
I0
sg84
I0
sg85
I0
ssg86
I00
sg87
g469
sg88
(lp503
I0
aI0
aI0
aI0
aI38
aI0
aI0
asg90
S'Sam'
p504
sg92
I5
sg93
I8
sg94
S'M'
sg95
I0
sg96
S'Tactician'
p505
sg98
I17
sg99
S'player'
p506
sg101
Nsa(dp507
g7
S'None'
p508
sg9
(lp509
I55
aI5
aI65
aI55
aI45
aI35
aI40
aI55
asg11
I00
sg12
(lp510
(dp511
g15
Nsg16
I00
sg17
I00
sg18
I9
sg19
I00
sg20
S'Kayla'
p512
sg22
S'Scathe'
p513
sa(dp514
g15
Nsg16
I00
sg17
I00
sg18
I31
sg19
I00
sg20
g512
sg22
S'Flux'
p515
sa(dp516
g15
Nsg16
I00
sg17
I00
sg18
I3
sg19
I00
sg20
g512
sg22
S'Spiritbane'
p517
sasg32
(lp518
I50
aI50
aI50
aI50
aI50
aI50
aI50
aI50
asg34
g35
(g36
g37
NtRp519
(dp520
g40
I0
sg41
I19
sbsg42
(lp521
(I19
I0
tp522
a(I1
I0
tp523
a(I9
I0
tp524
a(I8
I0
tp525
a(I5
I2
tp526
a(I6
I0
tp527
a(I5
I0
tp528
a(I7
I0
tp529
a(I5
I0
tp530
a(I4
I0
tp531
asg54
S'Kayla'
p532
sg56
S'Resistance'
p533
sg58
S'A scheming diplomat from the Confederacy.'
p534
sg60
(lp535
sg63
(lp536
(dp537
g66
Nsg67
Nsg68
Nsg69
(lp538
sg71
Nsg72
Nsg73
Nsg22
S'Hex'
p539
sa(dp540
g66
Nsg67
Nsg68
Nsg69
(lp541
sg71
Nsg72
Nsg73
Nsg22
S'Empowered'
p542
sa(dp543
g66
Nsg67
Nsg68
Nsg69
(lp544
sg71
Nsg72
Nsg73
Nsg22
S'fSpeed +2'
p545
sasg81
(dp546
g83
I0
sg84
I0
sg85
I0
ssg86
I00
sg87
g512
sg88
(lp547
I0
aI0
aI0
aI0
aI0
aI0
aI41
asg90
S'Kayla'
p548
sg92
I5
sg93
I8
sg94
S'F'
sg95
I0
sg96
S'Shaman'
p549
sg98
I48
sg99
S'player'
p550
sg101
NsasS'convoy'
p551
(lp552
(dp553
g15
Nsg16
I00
sg17
I00
sg18
I2
sg19
I00
sg20
I0
sg22
S'Spiritbane'
p554
sa(dp555
g15
Nsg16
I00
sg17
I00
sg18
I1
sg19
I00
sg20
I0
sg22
S'Secret Book'
p556
sa(dp557
g15
Nsg16
I00
sg17
I00
sg18
I1
sg19
I00
sg20
I0
sg22
S'Angelic Robe'
p558
sa(dp559
g15
Nsg16
I00
sg17
I00
sg18
I1
sg19
I00
sg20
I0
sg22
S'Mana Ring'
p560
sa(dp561
g15
Nsg16
I00
sg17
I00
sg18
I1
sg19
I00
sg20
I0
sg22
S'Talisman'
p562
sa(dp563
g15
Nsg16
I00
sg17
I00
sg18
I8
sg19
I00
sg20
I0
sg22
S'Heal'
p564
sa(dp565
g15
Nsg16
I00
sg17
I00
sg18
I34
sg19
I00
sg20
I0
sg22
S'Hatchet'
p566
sa(dp567
g15
Nsg16
I00
sg17
I00
sg18
I15
sg19
I00
sg20
I0
sg22
S'Magebane Sword'
p568
sa(dp569
g15
Nsg16
I00
sg17
I00
sg18
I7
sg19
I00
sg20
I0
sg22
S'Wyrmsfire'
p570
sa(dp571
g15
Nsg16
I00
sg17
I00
sg18
I15
sg19
I00
sg20
I0
sg22
S'Willow Bow'
p572
sa(dp573
g15
Nsg16
I00
sg17
I00
sg18
I25
sg19
I00
sg20
I0
sg22
S'Great Lance'
p574
sa(dp575
g15
Nsg16
I00
sg17
I00
sg18
I1
sg19
I00
sg20
I0
sg22
S'Speedwings'
p576
sa(dp577
g15
Nsg16
I00
sg17
I00
sg18
I5
sg19
I00
sg20
I0
sg22
S'Rescue'
p578
sa(dp579
g15
Nsg16
I00
sg17
I00
sg18
I15
sg19
I00
sg20
I0
sg22
S'Mend'
p580
sa(dp581
g15
Nsg16
I00
sg17
I00
sg18
I21
sg19
I00
sg20
I0
sg22
S'Nyx'
p582
sasS'groups'
p583
(dp584
sS'allreinforcements'
p585
(dp586
sS'base_conversations'
p587
(dp588
sS'playtime'
p589
I19879887
sS'message'
p590
(lp591
sS'unlocked_lore'
p592
(lp593
S'Sam'
p594
aS'Joel'
p595
aS'Prim'
p596
aS'Ophie'
p597
aS'Althea'
p598
aS'Drake'
p599
aS'Nia'
p600
aS'Renae'
p601
aS'Theo'
p602
aS'Kerala'
p603
aS'Empire'
p604
aS'Eliza'
p605
aS'Podoma'
p606
aS'Rajas'
p607
aS'Ulver'
p608
aS'Vagnius'
p609
aS'CFS'
p610
aS'Kayla'
p611
aS'CFS'
p612
aS'Kayla'
p613
asS'statistics'
p614
(lp615
g35
(cCode.CustomObjects
LevelStatistic
p616
g37
NtRp617
(dp618
S'turncount'
p619
I4
sg42
(dp620
g91
(dp621
S'damage'
p622
I13
sS'kills'
p623
I2
sS'healing'
p624
I0
ssg140
(dp625
g622
I8
sg623
I0
sg624
I7
sssg90
S'Prologue'
p626
sbag35
(g616
g37
NtRp627
(dp628
g619
I4
sg42
(dp629
g91
(dp630
g622
I39
sg623
I4
sg624
I0
ssg184
(dp631
g622
I48
sg623
I1
sg624
I0
ssg228
(dp632
g622
I30
sg623
I2
sg624
I0
ssg140
(dp633
g622
I8
sg623
I2
sg624
I12
sssg90
S'Chapter I'
p634
sbag35
(g616
g37
NtRp635
(dp636
g619
I9
sg42
(dp637
g278
(dp638
S'damage'
p639
I67
sS'kills'
p640
I3
sS'healing'
p641
I0
ssg140
(dp642
S'damage'
p643
I4
sS'kills'
p644
I0
sS'healing'
p645
I43
ssg184
(dp646
g643
I52
sg644
I4
sg645
I0
ssg228
(dp647
g643
I14
sg644
I2
sg645
I0
ssg322
(dp648
g639
I44
sg640
I3
sg641
I0
ssg91
(dp649
g643
I21
sg644
I3
sg645
I0
sssg90
S'Chapter II'
p650
sbag35
(g616
g37
NtRp651
(dp652
g619
I15
sg42
(dp653
g414
(dp654
S'damage'
p655
I81
sS'kills'
p656
I1
sS'healing'
p657
I0
ssg278
(dp658
S'damage'
p659
I45
sS'kills'
p660
I5
sS'healing'
p661
I0
ssg140
(dp662
g659
I16
sg660
I0
sg661
I61
ssg184
(dp663
g659
I64
sg660
I3
sg661
I0
ssg228
(dp664
g659
I58
sg660
I3
sg661
I0
ssg367
(dp665
g655
I8
sg656
I3
sg657
I0
ssg322
(dp666
g659
I35
sg660
I2
sg661
I0
ssg91
(dp667
g659
I70
sg660
I6
sg661
I0
sssg90
S'Chapter III'
p668
sbag35
(g616
g37
NtRp669
(dp670
g619
I9
sg42
(dp671
g414
(dp672
S'damage'
p673
I61
sS'kills'
p674
I4
sS'healing'
p675
I0
ssg278
(dp676
g673
I125
sg674
I8
sg675
I0
ssg140
(dp677
g673
I5
sg674
I0
sg675
I44
ssg184
(dp678
g673
I47
sg674
I2
sg675
I0
ssg228
(dp679
g673
I51
sg674
I2
sg675
I0
ssg367
(dp680
g673
I54
sg674
I5
sg675
I0
ssg322
(dp681
g673
I58
sg674
I2
sg675
I0
ssg91
(dp682
g673
I47
sg674
I5
sg675
I0
ssg461
(dp683
S'damage'
p684
I52
sS'kills'
p685
I7
sS'healing'
p686
I0
sssg90
S'Chapter IV'
p687
sbag35
(g616
g37
NtRp688
(dp689
g619
I15
sg42
(dp690
g414
(dp691
S'damage'
p692
I18
sS'kills'
p693
I3
sS'healing'
p694
I0
ssg278
(dp695
g692
I137
sg693
I7
sg694
I0
ssg140
(dp696
g692
I0
sg693
I0
sg694
I73
ssg504
(dp697
S'damage'
p698
I43
sS'kills'
p699
I2
sS'healing'
p700
I8
ssg184
(dp701
g692
I41
sg693
I0
sg694
I0
ssg228
(dp702
g692
I25
sg693
I3
sg694
I0
ssg367
(dp703
g692
I132
sg693
I6
sg694
I0
ssg322
(dp704
g692
I24
sg693
I1
sg694
I0
ssg548
(dp705
g698
I45
sg699
I1
sg700
I0
ssg91
(dp706
g692
I69
sg693
I5
sg694
I0
ssg461
(dp707
g692
I20
sg693
I3
sg694
I0
sssg90
S'Chapter V'
p708
sbasS'market_items'
p709
c__builtin__
set
p710
((lp711
S'Potion'
p712
aS'Iron Lance'
p713
aS'Fire'
p714
aS'Heal'
p715
aS'Willow Bow'
p716
aS'Steel Sword'
p717
aS'Slim Lance'
p718
aS'Iron Axe'
p719
aS'Glimmer'
p720
aS'Vulnerary'
p721
aS'Steel Axe'
p722
aS'Iron Sword'
p723
aS'Hatchet'
p724
aS'Wind'
p725
aS'Steel Lance'
p726
atRp727
sS'support'
p728
NsS'event_triggers'
p729
(lp730
sS'objective'
p731
NsS'metaDataObj_changes'
p732
(lp733
sS'counters'
p734
(dp735
S'switches'
p736
I3
sS'money'
p737
I16075
sS'level'
p738
I6
sS'Escaped_Wagons'
p739
I0
sS'Dead_Wagons'
p740
I12
ssS'map'
p741
NsS'state_list'
p742
((lp743
S'turn_change'
p744
a(ltp745
sS'prefabs'
p746
(lp747
sS'phase_info'
p748
(I0
I3
tp749
sg619
I0
sS'game_constants'
p750
(lp751
S'Convoy'
p752
as.