(dp1
S'map'
p2
NsS'allunits'
p3
(lp4
(dp5
S'ai'
p6
S'None'
p7
sS'growths'
p8
(lp9
I100
aI20
aI50
aI70
aI80
aI80
aI60
aI100
asS'dead'
p10
I00
sS'items'
p11
(lp12
(dp13
S'c_uses'
p14
NsS'locked'
p15
I00
sS'droppable'
p16
I00
sS'uses'
p17
I14
sS'event_combat'
p18
I00
sS'owner'
p19
S'Sam'
p20
sS'id'
p21
S'Mend'
p22
sa(dp23
g14
Nsg15
I00
sg16
I00
sg17
I20
sg18
I00
sg19
g20
sg21
S'Shine'
p24
sa(dp25
g14
Nsg15
I00
sg16
I00
sg17
I10
sg18
I00
sg19
g20
sg21
S'Fortune'
p26
sasS'growth_points'
p27
(lp28
I0
aI0
aI0
aI0
aI0
aI0
aI0
aI0
asS'currenthp'
p29
ccopy_reg
_reconstructor
p30
(cCode.UnitObject
Stat
p31
c__builtin__
object
p32
NtRp33
(dp34
S'bonuses'
p35
I0
sS'base_stat'
p36
I27
sbsS'stats'
p37
(lp38
(I27
I0
tp39
a(I4
I0
tp40
a(I11
I0
tp41
a(I12
I0
tp42
a(I13
I0
tp43
a(I10
I0
tp44
a(I5
I0
tp45
a(I11
I0
tp46
a(I9
I0
tp47
a(I11
I0
tp48
asS'event_id'
p49
S'Sam'
p50
sS'faction'
p51
S'Resistance'
p52
sS'desc'
p53
S"The resistance's leader. Ambitious and inquisitive."
p54
sS'tags'
p55
(lp56
sS'status_effects'
p57
(lp58
(dp59
S'count'
p60
NsS'time_left'
p61
NsS'upkeep_sc_count'
p62
NsS'children'
p63
(lp64
sS'charge'
p65
I0
sS'rhythm_sc_count'
p66
Nsg21
S'Refresh'
p67
sa(dp68
g60
Nsg61
Nsg62
Nsg63
(lp69
sg65
Nsg66
Nsg21
S'Skill_Aura'
p70
sasS'records'
p71
(dp72
S'damage'
p73
I0
sS'kills'
p74
I0
sS'healing'
p75
I0
ssS'finished'
p76
I00
sS'u_id'
p77
g20
sS'wexp'
p78
(lp79
I0
aI0
aI0
aI0
aI35
aI0
aI0
asS'name'
p80
S'Sam'
p81
sS'movement_group'
p82
I3
sS'level'
p83
I7
sS'gender'
p84
S'M'
sS'TRV'
p85
I0
sS'klass'
p86
S'Tactician'
p87
sS'exp'
p88
I85
sS'team'
p89
S'player'
p90
sS'position'
p91
Nsa(dp92
g6
S'None'
p93
sg8
(lp94
I80
aI10
aI100
aI80
aI70
aI50
aI60
aI80
asg10
I00
sg11
(lp95
(dp96
g14
Nsg15
I00
sg16
I00
sg17
I9
sg18
I00
sg19
S'Kayla'
p97
sg21
S'Scathe'
p98
sa(dp99
g14
Nsg15
I00
sg16
I00
sg17
I23
sg18
I00
sg19
g97
sg21
S'Nyx'
p100
sa(dp101
g14
Nsg15
I00
sg16
I00
sg17
I3
sg18
I00
sg19
g97
sg21
S'Spiritbane'
p102
sasg27
(lp103
I0
aI0
aI0
aI0
aI0
aI0
aI0
aI0
asg29
g30
(g31
g32
NtRp104
(dp105
g35
I0
sg36
I28
sbsg37
(lp106
(I28
I0
tp107
a(I2
I0
tp108
a(I14
I0
tp109
a(I12
I0
tp110
a(I11
I0
tp111
a(I9
I0
tp112
a(I7
I0
tp113
a(I11
I0
tp114
a(I6
I0
tp115
a(I9
I0
tp116
asg49
S'Kayla'
p117
sg51
S'Resistance'
p118
sg53
S'A scheming diplomat from the Confederacy.'
p119
sg55
(lp120
sg57
(lp121
(dp122
g60
Nsg61
Nsg62
Nsg63
(lp123
sg65
Nsg66
Nsg21
S'Hex'
p124
sa(dp125
g60
Nsg61
Nsg62
Nsg63
(lp126
sg65
Nsg66
Nsg21
S'Empowered'
p127
sasg71
(dp128
g73
I0
sg74
I0
sg75
I0
ssg76
I00
sg77
g97
sg78
(lp129
I0
aI0
aI0
aI0
aI0
aI0
aI39
asg80
S'Kayla'
p130
sg82
I3
sg83
I8
sg84
S'F'
sg85
I0
sg86
S'Shaman'
p131
sg88
I62
sg89
S'player'
p132
sg91
Nsa(dp133
g6
S'None'
p134
sg8
(lp135
I110
aI100
aI30
aI110
aI120
aI90
aI60
aI50
asg10
I00
sg11
(lp136
(dp137
g14
Nsg15
I00
sg16
I00
sg17
I18
sg18
I00
sg19
S'Eliza'
p138
sg21
S'Javelin'
p139
sa(dp140
g14
Nsg15
I00
sg16
I00
sg17
I37
sg18
I00
sg19
g138
sg21
S'Iron Lance'
p141
sa(dp142
g14
Nsg15
I00
sg16
I00
sg17
I28
sg18
I00
sg19
g138
sg21
S'Steel Lance'
p143
sa(dp144
g14
Nsg15
I00
sg16
I00
sg17
Nsg18
I00
sg19
I0
sg21
S"Prim's Charm"
p145
sa(dp146
g14
Nsg15
I00
sg16
I00
sg17
I2
sg18
I00
sg19
g138
sg21
S'Vulnerary'
p147
sasg27
(lp148
I40
aI0
aI20
aI40
aI80
aI60
aI40
aI0
asg29
g30
(g31
g32
NtRp149
(dp150
g35
I5
sg36
I21
sbsg37
(lp151
(I21
I5
tp152
a(I9
I0
tp153
a(I1
I0
tp154
a(I10
I0
tp155
a(I13
I0
tp156
a(I12
I0
tp157
a(I7
I0
tp158
a(I5
I0
tp159
a(I7
I0
tp160
a(I10
I0
tp161
asg49
S'0'
sg51
S'Resistance'
p162
sg53
S'A moody but hopeful soldier.'
p163
sg55
(lp164
sg57
(lp165
(dp166
g60
Nsg61
Nsg62
Nsg63
(lp167
sg65
Nsg66
Nsg21
S'Synergy'
p168
sa(dp169
g60
Nsg61
Nsg62
Nsg63
(lp170
sg65
Nsg66
Nsg21
S'Underdog'
p171
sa(dp172
g60
Nsg61
Nsg62
Nsg63
(lp173
sg65
Nsg66
Nsg21
S'fMaximum HP +5'
p174
sasg71
(dp175
g73
I0
sg74
I0
sg75
I0
ssg76
I00
sg77
g138
sg78
(lp176
I0
aI30
aI0
aI0
aI0
aI0
aI0
asg80
S'Eliza'
p177
sg82
I1
sg83
I5
sg84
S'F'
sg85
I0
sg86
S'Soldier'
p178
sg88
I5
sg89
S'player'
p179
sg91
Nsa(dp180
g6
S'None'
p181
sg8
(lp182
I160
aI80
aI50
aI110
aI120
aI120
aI50
aI60
asg10
I00
sg11
(lp183
(dp184
g14
Nsg15
I00
sg16
I00
sg17
I21
sg18
I00
sg19
S'Ophie'
p185
sg21
S'Levin Sword'
p186
sa(dp187
g14
Nsg15
I00
sg16
I00
sg17
I12
sg18
I00
sg19
g185
sg21
S'Iron Knife'
p188
sa(dp189
g14
Nsg15
I00
sg16
I00
sg17
I34
sg18
I00
sg19
g185
sg21
S'Iron Sword'
p190
sa(dp191
g14
Nsg15
I00
sg16
I00
sg17
I24
sg18
I00
sg19
g185
sg21
S'Steel Sword'
p192
sa(dp193
g14
Nsg15
I00
sg16
I00
sg17
I2
sg18
I00
sg19
I0
sg21
S'Vulnerary'
p194
sasg27
(lp195
I20
aI60
aI50
aI70
aI40
aI40
aI50
aI20
asg29
g30
(g31
g32
NtRp196
(dp197
g35
I0
sg36
I29
sbsg37
(lp198
(I29
I0
tp199
a(I10
I0
tp200
a(I5
I0
tp201
a(I15
I0
tp202
a(I17
I0
tp203
a(I11
I0
tp204
a(I6
I0
tp205
a(I5
I0
tp206
a(I7
I0
tp207
a(I11
I0
tp208
asg49
S'Ophie'
p209
sg51
S'Resistance'
p210
sg53
S'A strong-hearted renegade who often acts before he thinks.'
p211
sg55
(lp212
S'Lord'
p213
asg57
(lp214
(dp215
g60
Nsg61
Nsg62
Nsg63
(lp216
sg65
Nsg66
Nsg21
S'Riposte'
p217
sa(dp218
g60
Nsg61
Nsg62
Nsg63
(lp219
sg65
Nsg66
Nsg21
S'Vantage'
p220
sasg71
(dp221
g73
I0
sg74
I0
sg75
I0
ssg76
I00
sg77
g185
sg78
(lp222
I40
aI0
aI0
aI0
aI0
aI0
aI0
asg80
S'Ophie'
p223
sg82
I0
sg83
I8
sg84
S'M'
sg85
I0
sg86
S'Myrmidon'
p224
sg88
I11
sg89
S'player'
p225
sg91
Nsa(dp226
g6
S'None'
p227
sg8
(lp228
I100
aI20
aI100
aI60
aI80
aI120
aI35
aI120
asg10
I00
sg11
(lp229
(dp230
g14
Nsg15
I00
sg16
I00
sg17
I2
sg18
I00
sg19
S'Prim'
p231
sg21
S'Heal'
p232
sa(dp233
g14
Nsg15
I00
sg16
I00
sg17
I23
sg18
I00
sg19
g231
sg21
S'Shine'
p234
sa(dp235
g14
Nsg15
I00
sg16
I00
sg17
I24
sg18
I00
sg19
g231
sg21
S'Glimmer'
p236
sa(dp237
g14
Nsg15
I00
sg16
I00
sg17
I10
sg18
I00
sg19
g231
sg21
S'Mend'
p238
sa(dp239
g14
Nsg15
I00
sg16
I00
sg17
I10
sg18
I00
sg19
g231
sg21
S'Mage Shield'
p240
sasg27
(lp241
I0
aI40
aI0
aI20
aI60
aI40
aI45
aI40
asg29
g30
(g31
g32
NtRp242
(dp243
g35
I0
sg36
I24
sbsg37
(lp244
(I24
I0
tp245
a(I1
I0
tp246
a(I10
I0
tp247
a(I9
I0
tp248
a(I13
I0
tp249
a(I14
I0
tp250
a(I3
I0
tp251
a(I14
I0
tp252
a(I5
I0
tp253
a(I11
I0
tp254
asg49
S'Prim'
p255
sg51
S'Resistance'
p256
sg53
S'A shy but kind-hearted young woman. Has an affinity with the spiritual.'
p257
sg55
(lp258
sg57
(lp259
(dp260
g60
Nsg61
Nsg62
Nsg63
(lp261
sg65
Nsg66
Nsg21
S'Healtouch'
p262
sa(dp263
g60
I1
sg61
Nsg62
Nsg63
(lp264
sg65
Nsg66
Nsg21
S'Miracle'
p265
sasg71
(dp266
g73
I0
sg74
I0
sg75
I0
ssg76
I00
sg77
g231
sg78
(lp267
I0
aI0
aI0
aI0
aI44
aI0
aI0
asg80
S'Prim'
p268
sg82
I3
sg83
I8
sg84
S'F'
sg85
I0
sg86
S'Mystic'
p269
sg88
I26
sg89
S'player'
p270
sg91
Nsa(dp271
g6
S'None'
p272
sg8
(lp273
I160
aI120
aI10
aI90
aI80
aI70
aI50
aI30
asg10
I00
sg11
(lp274
(dp275
g14
Nsg15
I00
sg16
I00
sg17
I21
sg18
I00
sg19
S'Joel'
p276
sg21
S'Hatchet'
p277
sa(dp278
g14
Nsg15
I00
sg16
I00
sg17
I17
sg18
I00
sg19
g276
sg21
S'Hand Axe'
p279
sa(dp280
g14
Nsg15
I00
sg16
I00
sg17
I25
sg18
I00
sg19
g276
sg21
S'Steel Axe'
p281
sa(dp282
g14
Nsg15
I00
sg16
I00
sg17
I22
sg18
I00
sg19
I0
sg21
S'Iron Axe'
p283
sa(dp284
g14
Nsg15
I00
sg16
I00
sg17
I1
sg18
I00
sg19
I0
sg21
S'Potion'
p285
sasg27
(lp286
I60
aI20
aI60
aI40
aI80
aI20
aI0
aI80
asg29
g30
(g31
g32
NtRp287
(dp288
g35
I0
sg36
I40
sbsg37
(lp289
(I40
I0
tp290
a(I15
I0
tp291
a(I0
I0
tp292
a(I10
I0
tp293
a(I10
I0
tp294
a(I8
I0
tp295
a(I8
I0
tp296
a(I1
I0
tp297
a(I11
I0
tp298
a(I10
I0
tp299
asg49
S'0'
sg51
S'Resistance'
p300
sg53
S'A jovial former sailor. Always ready for a new adventure.'
p301
sg55
(lp302
sg57
(lp303
(dp304
g60
Nsg61
Nsg62
Nsg63
(lp305
sg65
I0
sg66
Nsg21
S'Cleave'
p306
sa(dp307
g60
Nsg61
Nsg62
Nsg63
(lp308
sg65
I0
sg66
Nsg21
S'Shove'
p309
sasg71
(dp310
g73
I0
sg74
I0
sg75
I0
ssg76
I00
sg77
g276
sg78
(lp311
I0
aI0
aI56
aI0
aI0
aI0
aI0
asg80
S'Joel'
p312
sg82
I1
sg83
I9
sg84
S'M'
sg85
I0
sg86
S'Fighter'
p313
sg88
I65
sg89
S'player'
p314
sg91
Nsa(dp315
g6
S'None'
p316
sg8
(lp317
I120
aI80
aI50
aI100
aI120
aI60
aI30
aI60
asg10
I00
sg11
(lp318
(dp319
g14
Nsg15
I00
sg16
I00
sg17
I29
sg18
I00
sg19
S'Nia'
p320
sg21
S'Willow Bow'
p321
sa(dp322
g14
Nsg15
I00
sg16
I00
sg17
I29
sg18
I00
sg19
g320
sg21
S'Oak Bow'
p323
sa(dp324
g14
Nsg15
I00
sg16
I00
sg17
I1
sg18
I00
sg19
I0
sg21
g194
sa(dp325
g14
Nsg15
I00
sg16
I00
sg17
I25
sg18
I00
sg19
g320
sg21
S'Great Bow'
p326
sa(dp327
g14
Nsg15
I00
sg16
I00
sg17
I22
sg18
I00
sg19
g320
sg21
S'Nyx'
p328
sasg27
(lp329
I80
aI20
aI0
aI0
aI80
aI40
aI20
aI40
asg29
g30
(g31
g32
NtRp330
(dp331
g35
I0
sg36
I23
sbsg37
(lp332
(I23
I0
tp333
a(I9
I0
tp334
a(I5
I0
tp335
a(I11
I0
tp336
a(I12
I0
tp337
a(I7
I0
tp338
a(I4
I0
tp339
a(I4
I0
tp340
a(I6
I0
tp341
a(I10
I0
tp342
asg49
S'0'
sg51
S'Resistance'
p343
sg53
S'A quiet archer most at home in the wilderness.'
p344
sg55
(lp345
sg57
(lp346
(dp347
g60
Nsg61
Nsg62
Nsg63
(lp348
sg65
Nsg66
Nsg21
S'Prescience'
p349
sa(dp350
g60
Nsg61
Nsg62
Nsg63
(lp351
sg65
I0
sg66
Nsg21
S'Critical'
p352
sasg71
(dp353
g73
I0
sg74
I0
sg75
I0
ssg76
I00
sg77
g320
sg78
(lp354
I0
aI0
aI0
aI44
aI0
aI0
aI0
asg80
S'Nia'
p355
sg82
I0
sg83
I7
sg84
S'F'
sg85
I0
sg86
S'Archer'
p356
sg88
I55
sg89
S'player'
p357
sg91
Nsa(dp358
g6
S'None'
p359
sg8
(lp360
I90
aI20
aI130
aI60
aI90
aI90
aI30
aI80
asg10
I00
sg11
(lp361
(dp362
g14
Nsg15
I00
sg16
I00
sg17
I11
sg18
I00
sg19
S'Althea'
p363
sg21
S'Fire'
p364
sa(dp365
g14
Nsg15
I00
sg16
I00
sg17
I19
sg18
I00
sg19
g363
sg21
S'Water'
p366
sa(dp367
g14
Nsg15
I00
sg16
I00
sg17
I28
sg18
I00
sg19
g363
sg21
S'Earth'
p368
sa(dp369
g14
Nsg15
I00
sg16
I00
sg17
I19
sg18
I00
sg19
g363
sg21
S'Wind'
p370
sa(dp371
g14
Nsg15
I00
sg16
I00
sg17
I2
sg18
I00
sg19
I0
sg21
S'Vulnerary'
p372
sasg27
(lp373
I30
aI40
aI10
aI20
aI30
aI30
aI10
aI60
asg29
g30
(g31
g32
NtRp374
(dp375
g35
I5
sg36
I23
sbsg37
(lp376
(I23
I5
tp377
a(I2
I0
tp378
a(I16
I0
tp379
a(I10
I0
tp380
a(I13
I0
tp381
a(I14
I0
tp382
a(I5
I0
tp383
a(I10
I0
tp384
a(I5
I0
tp385
a(I11
I0
tp386
asg49
S'0'
sg51
S'Resistance'
p387
sg53
S'A forthright but elegant and refined sorceress.'
p388
sg55
(lp389
sg57
(lp390
(dp391
g60
Nsg61
Nsg62
Nsg63
(lp392
sg65
Nsg66
Nsg21
S'Focus'
p393
sa(dp394
g60
Nsg61
Nsg62
Nsg63
(lp395
sg65
Nsg66
Nsg21
S'fMaximum HP +5'
p396
sasg71
(dp397
g73
I0
sg74
I0
sg75
I0
ssg76
I00
sg77
g363
sg78
(lp398
I0
aI0
aI0
aI0
aI0
aI35
aI0
asg80
S'Althea'
p399
sg82
I3
sg83
I9
sg84
S'F'
sg85
I0
sg86
S'Mage'
p400
sg88
I52
sg89
S'player'
p401
sg91
Nsa(dp402
g6
S'None'
p403
sg8
(lp404
I140
aI100
aI10
aI90
aI90
aI60
aI80
aI60
asg10
I00
sg11
(lp405
(dp406
g14
Nsg15
I00
sg16
I00
sg17
I24
sg18
I00
sg19
S'Drake'
p407
sg21
S'Iron Lance'
p408
sa(dp409
g14
Nsg15
I00
sg16
I00
sg17
I19
sg18
I00
sg19
g407
sg21
S'Javelin'
p410
sa(dp411
g14
Nsg15
I00
sg16
I00
sg17
I37
sg18
I00
sg19
g407
sg21
S'Iron Sword'
p412
sa(dp413
g14
Nsg15
I00
sg16
I00
sg17
I1
sg18
I00
sg19
I0
sg21
S'Vulnerary'
p414
sa(dp415
g14
Nsg15
I00
sg16
I00
sg17
I12
sg18
I00
sg19
g407
sg21
S'Lancereaver'
p416
sasg27
(lp417
I20
aI0
aI30
aI70
aI70
aI80
aI40
aI80
asg29
g30
(g31
g32
NtRp418
(dp419
g35
I0
sg36
I30
sbsg37
(lp420
(I30
I0
tp421
a(I12
I0
tp422
a(I1
I0
tp423
a(I11
I0
tp424
a(I10
I0
tp425
a(I11
I0
tp426
a(I9
I0
tp427
a(I5
I0
tp428
a(I11
I0
tp429
a(I14
I0
tp430
asg49
S'0'
sg51
S'Resistance'
p431
sg53
S"A disgraced Imperial knight now in Althea's service."
p432
sg55
(lp433
sg57
(lp434
(dp435
g60
Nsg61
Nsg62
Nsg63
(lp436
sg65
Nsg66
Nsg21
S'Canto'
p437
sa(dp438
g60
Nsg61
Nsg62
Nsg63
(lp439
sg65
Nsg66
Nsg21
S'Savior'
p440
sasg71
(dp441
g73
I0
sg74
I0
sg75
I0
ssg76
I00
sg77
g407
sg78
(lp442
I14
aI37
aI0
aI0
aI0
aI0
aI0
asg80
S'Drake'
p443
sg82
I2
sg83
I8
sg84
S'M'
sg85
I0
sg86
S'Cavalier'
p444
sg88
I10
sg89
S'player'
p445
sg91
Nsa(dp446
g6
S'None'
p447
sg8
(lp448
I140
aI60
aI30
aI80
aI140
aI100
aI50
aI40
asg10
I00
sg11
(lp449
(dp450
g14
Nsg15
I00
sg16
I00
sg17
I28
sg18
I00
sg19
S'Renae'
p451
sg21
S'Steel Sword'
p452
sa(dp453
g14
Nsg15
I00
sg16
I00
sg17
I25
sg18
I00
sg19
g451
sg21
S'Iron Sword'
p454
sa(dp455
g14
Nsg15
I00
sg16
I00
sg17
I10
sg18
I00
sg19
g451
sg21
S'Steel Knife'
p456
sa(dp457
g14
Nsg15
I00
sg16
I00
sg17
I1
sg18
I00
sg19
I0
sg21
S'Vulnerary'
p458
sa(dp459
g14
Nsg15
I00
sg16
I00
sg17
I2
sg18
I00
sg19
g451
sg21
S'Potion'
p460
sasg27
(lp461
I80
aI20
aI60
aI60
aI80
aI0
aI0
aI80
asg29
g30
(g31
g32
NtRp462
(dp463
g35
I0
sg36
I22
sbsg37
(lp464
(I22
I0
tp465
a(I6
I0
tp466
a(I4
I0
tp467
a(I9
I0
tp468
a(I15
I0
tp469
a(I7
I0
tp470
a(I5
I0
tp471
a(I1
I0
tp472
a(I6
I0
tp473
a(I11
I0
tp474
asg49
S'0'
sg51
S'Kerala'
p475
sg53
S'An energetic thief with a kleptomanic streak.'
p476
sg55
(lp477
sg57
(lp478
(dp479
g60
Nsg61
Nsg62
Nsg63
(lp480
sg65
Nsg66
Nsg21
S'Locktouch'
p481
sa(dp482
g60
Nsg61
Nsg62
Nsg63
(lp483
sg65
Nsg66
Nsg21
S'Steal'
p484
sasg71
(dp485
g73
I0
sg74
I0
sg75
I0
ssg76
I00
sg77
g451
sg78
(lp486
I30
aI0
aI0
aI0
aI0
aI0
aI0
asg80
S'Renae'
p487
sg82
I0
sg83
I6
sg84
S'F'
sg85
I0
sg86
S'Thief'
p488
sg88
I63
sg89
S'player'
p489
sg91
Nsa(dp490
g6
S'None'
p491
sg8
(lp492
I180
aI80
aI40
aI60
aI60
aI70
aI110
aI60
asg10
I00
sg11
(lp493
(dp494
g14
Nsg15
I00
sg16
I00
sg17
I33
sg18
I00
sg19
S'Theo'
p495
sg21
S'Iron Lance'
p496
sa(dp497
g14
Nsg15
I00
sg16
I00
sg17
I10
sg18
I00
sg19
g495
sg21
S'Short Spear'
p498
sa(dp499
g14
Nsg15
I00
sg16
I00
sg17
I30
sg18
I00
sg19
g495
sg21
S'Steel Lance'
p500
sa(dp501
g14
Nsg15
I00
sg16
I00
sg17
I1
sg18
I00
sg19
I0
sg21
g194
sasg27
(lp502
I80
aI80
aI40
aI60
aI60
aI70
aI10
aI60
asg29
g30
(g31
g32
NtRp503
(dp504
g35
I0
sg36
I28
sbsg37
(lp505
(I28
I0
tp506
a(I13
I0
tp507
a(I0
I0
tp508
a(I10
I0
tp509
a(I5
I0
tp510
a(I4
I0
tp511
a(I13
I0
tp512
a(I3
I0
tp513
a(I12
I0
tp514
a(I9
I0
tp515
asg49
S'0'
sg51
S'Resistance'
p516
sg53
S'An avid scholar. Interested in esoteric philosophy.'
p517
sg55
(lp518
sg57
(lp519
(dp520
g60
Nsg61
Nsg62
Nsg63
(lp521
sg65
Nsg66
Nsg21
S'Provoke'
p522
sa(dp523
g60
Nsg61
Nsg62
Nsg63
(lp524
sg65
I0
sg66
Nsg21
S'Shove'
p525
sasg71
(dp526
g73
I0
sg74
I0
sg75
I0
ssg76
I00
sg77
g495
sg78
(lp527
I0
aI32
aI0
aI0
aI0
aI0
aI0
asg80
S'Theo'
p528
sg82
I2
sg83
I5
sg84
S'M'
sg85
I0
sg86
S'Knight'
p529
sg88
I90
sg89
S'player'
p530
sg91
NsasS'statistics'
p531
(lp532
g30
(cCode.CustomObjects
LevelStatistic
p533
g32
NtRp534
(dp535
S'turncount'
p536
I1
sg37
(dp537
g223
(dp538
S'damage'
p539
I0
sS'kills'
p540
I0
sS'healing'
p541
I0
ssg268
(dp542
g539
I0
sg540
I0
sg541
I0
sssg80
S'Prologue'
p543
sbag30
(g533
g32
NtRp544
(dp545
g536
I7
sg37
(dp546
g223
(dp547
g539
I44
sg540
I6
sg541
I0
ssg312
(dp548
S'damage'
p549
I93
sS'kills'
p550
I3
sS'healing'
p551
I0
ssg355
(dp552
g549
I69
sg550
I2
sg551
I0
ssg268
(dp553
g539
I64
sg540
I0
sg541
I40
sssg80
S'Chapter I'
p554
sbag30
(g533
g32
NtRp555
(dp556
g536
I10
sg37
(dp557
g399
(dp558
S'damage'
p559
I27
sS'kills'
p560
I3
sS'healing'
p561
I0
ssg268
(dp562
g549
I85
sg550
I0
sg551
I78
ssg312
(dp563
g549
I58
sg550
I4
sg551
I0
ssg355
(dp564
g549
I93
sg550
I3
sg551
I0
ssg443
(dp565
g559
I54
sg560
I1
sg561
I0
ssg223
(dp566
g549
I65
sg550
I4
sg551
I0
sssg80
S'Chapter II'
p567
sbag30
(g533
g32
NtRp568
(dp569
g536
I17
sg37
(dp570
g528
(dp571
S'damage'
p572
I0
sS'kills'
p573
I0
sS'healing'
p574
I0
ssg399
(dp575
g572
I0
sg573
I0
sg574
I0
ssg268
(dp576
g572
I0
sg573
I0
sg574
I0
ssg312
(dp577
g572
I0
sg573
I0
sg574
I0
ssg355
(dp578
g572
I0
sg573
I0
sg574
I0
ssg487
(dp579
g572
I0
sg573
I0
sg574
I0
ssg443
(dp580
g572
I0
sg573
I0
sg574
I0
ssg223
(dp581
g572
I0
sg573
I0
sg574
I0
sssg80
S'Chapter III'
p582
sbag30
(g533
g32
NtRp583
(dp584
g536
I9
sg37
(dp585
g528
(dp586
g572
I69
sg573
I4
sg574
I0
ssg399
(dp587
g572
I106
sg573
I6
sg574
I0
ssg268
(dp588
g572
I21
sg573
I3
sg574
I116
ssg177
(dp589
S'damage'
p590
I63
sS'kills'
p591
I4
sS'healing'
p592
I0
ssg355
(dp593
g572
I89
sg573
I4
sg574
I0
ssg487
(dp594
g572
I20
sg573
I0
sg574
I0
ssg443
(dp595
g572
I98
sg573
I3
sg574
I0
ssg223
(dp596
g572
I119
sg573
I7
sg574
I0
ssg312
(dp597
g572
I182
sg573
I5
sg574
I0
sssg80
S'Chapter IV'
p598
sbag30
(g533
g32
NtRp599
(dp600
g536
I12
sg37
(dp601
g528
(dp602
S'damage'
p603
I0
sS'kills'
p604
I0
sS'healing'
p605
I0
ssg399
(dp606
g603
I177
sg604
I7
sg605
I0
ssg268
(dp607
g603
I33
sg604
I2
sg605
I147
ssg81
(dp608
g603
I41
sg604
I1
sg605
I36
ssg177
(dp609
g603
I48
sg604
I3
sg605
I0
ssg355
(dp610
g603
I65
sg604
I2
sg605
I0
ssg487
(dp611
g603
I64
sg604
I3
sg605
I0
ssg443
(dp612
g603
I38
sg604
I1
sg605
I0
ssg130
(dp613
g603
I20
sg604
I2
sg605
I0
ssg223
(dp614
g603
I104
sg604
I3
sg605
I0
ssg312
(dp615
g603
I107
sg604
I4
sg605
I0
sssg80
S'Chapter V'
p616
sbasS'convoy'
p617
(lp618
(dp619
g14
Nsg15
I00
sg16
I00
sg17
I3
sg18
I00
sg19
I0
sg21
S'Herbs'
p620
sa(dp621
g14
Nsg15
I00
sg16
I00
sg17
I2
sg18
I00
sg19
I0
sg21
S'Spiritbane'
p622
sa(dp623
g14
Nsg15
I00
sg16
I00
sg17
I1
sg18
I00
sg19
I0
sg21
S'Secret Book'
p624
sa(dp625
g14
Nsg15
I00
sg16
I00
sg17
I1
sg18
I00
sg19
I0
sg21
S'Angelic Robe'
p626
sa(dp627
g14
Nsg15
I00
sg16
I00
sg17
I1
sg18
I00
sg19
I0
sg21
S'Vulnerary'
p628
sa(dp629
g14
Nsg15
I00
sg16
I00
sg17
I1
sg18
I00
sg19
I0
sg21
S'Mana Ring'
p630
sa(dp631
g14
Nsg15
I00
sg16
I00
sg17
I19
sg18
I00
sg19
I0
sg21
S'Willow Bow'
p632
sa(dp633
g14
Nsg15
I00
sg16
I00
sg17
I10
sg18
I00
sg19
I0
sg21
S'Windwall'
p634
sa(dp635
g14
Nsg15
I00
sg16
I00
sg17
I35
sg18
I00
sg19
I0
sg21
S'Hatchet'
p636
sa(dp637
g14
Nsg15
I00
sg16
I00
sg17
I15
sg18
I00
sg19
I0
sg21
S'Bull Aspect'
p638
sa(dp639
g14
Nsg15
I00
sg16
I00
sg17
I25
sg18
I00
sg19
I0
sg21
S'Great Lance'
p640
sa(dp641
g14
Nsg15
I00
sg16
I00
sg17
I1
sg18
I00
sg19
I0
sg21
S'Talisman'
p642
sa(dp643
g14
Nsg15
I00
sg16
I00
sg17
I12
sg18
I00
sg19
I0
sg21
S'Iron Knife'
p644
sa(dp645
g14
Nsg15
I00
sg16
I00
sg17
I1
sg18
I00
sg19
I0
sg21
S'Speedwings'
p646
sa(dp647
g14
Nsg15
I00
sg16
I00
sg17
I20
sg18
I00
sg19
I0
sg21
S'Mithril Lance'
p648
sa(dp649
g14
Nsg15
I00
sg16
I00
sg17
I25
sg18
I00
sg19
I0
sg21
S'Great Sword'
p650
sa(dp651
g14
Nsg15
I00
sg16
I00
sg17
I19
sg18
I00
sg19
I0
sg21
S'Longbow'
p652
sa(dp653
g14
Nsg15
I00
sg16
I00
sg17
I9
sg18
I00
sg19
I0
sg21
S'Fly'
p654
sasS'prefabs'
p655
(lp656
sS'talk_options'
p657
(lp658
sS'market_items'
p659
c__builtin__
set
p660
((lp661
S'Rapier'
p662
aS'Potion'
p663
aS'Iron Lance'
p664
aS'Short Bow'
p665
aS'Fire'
p666
aS'Heal'
p667
aS'Willow Bow'
p668
aS'Steel Sword'
p669
aS'Slim Lance'
p670
aS'Iron Axe'
p671
aS'Glimmer'
p672
aS'Vulnerary'
p673
aS'Steel Axe'
p674
aS'Iron Sword'
p675
aS'Hatchet'
p676
aS'Wind'
p677
aS'Steel Lance'
p678
atRp679
sS'support'
p680
NsS'allreinforcements'
p681
(dp682
sS'event_triggers'
p683
(lp684
sg536
I0
sS'base_conversations'
p685
(dp686
sS'phase_info'
p687
(I0
I3
tp688
sS'playtime'
p689
I20674833
sS'objective'
p690
NsS'state_list'
p691
((lp692
S'turn_change'
p693
a(ltp694
sS'message'
p695
(lp696
sS'metaDataObj_changes'
p697
(lp698
sS'unlocked_lore'
p699
(lp700
S'Sam'
p701
aS'Joel'
p702
aS'Prim'
p703
aS'Ophie'
p704
aS'Althea'
p705
aS'Drake'
p706
aS'Nia'
p707
aS'Renae'
p708
aS'Theo'
p709
aS'Kerala'
p710
aS'Empire'
p711
aS'Eliza'
p712
aS'Podoma'
p713
aS'Rajas'
p714
aS'Ulver'
p715
aS'Vagnius'
p716
aS'CFS'
p717
aS'Kayla'
p718
aS'CFS'
p719
aS'Kayla'
p720
asS'game_constants'
p721
(lp722
S'Convoy'
p723
asS'counters'
p724
(dp725
S'Dead_Wagons'
p726
I12
sS'level'
p727
I6
sS'money'
p728
I9410
sS'switches'
p729
I4
sS'turns'
p730
I5
sS'Escaped_Wagons'
p731
I0
ss.