(dp1
S'map'
p2
(dp3
S'HP'
p4
(lp5
sS'command_list'
p6
(lp7
(lp8
S'change_tile_sprite'
p9
aS'4,11'
p10
aS'closed'
p11
aa(lp12
S'set_tile_info'
p13
aS'4,11'
p14
aa(lp15
S'replace_tile'
p16
aS'4,11'
p17
aS'1'
aa(lp18
S'change_tile_sprite'
p19
aS'7,17'
p20
aS'closed'
p21
aa(lp22
S'set_tile_info'
p23
aS'7,17'
p24
aa(lp25
S'replace_tile'
p26
aS'7,17'
p27
aS'1'
aassS'allunits'
p28
(lp29
(dp30
S'ai'
p31
S'SoftGuard'
p32
sS'growths'
p33
(lp34
I100
aI0
aI50
aI50
aI50
aI100
aI0
aI100
asS'dead'
p35
I00
sS'items'
p36
(lp37
(dp38
S'c_uses'
p39
NsS'locked'
p40
I00
sS'droppable'
p41
I00
sS'uses'
p42
I15
sS'event_combat'
p43
I00
sS'owner'
p44
S'Vagnius'
p45
sS'id'
p46
S'Ruin'
p47
sa(dp48
g39
Nsg40
I00
sg41
I01
sg42
I1
sg43
I00
sg44
g45
sg46
S'Mana Ring'
p49
sasS'growth_points'
p50
(lp51
I0
aI0
aI0
aI0
aI0
aI0
aI0
aI0
asS'currenthp'
p52
I51
sS'stats'
p53
(lp54
(I51
I0
tp55
a(I5
I0
tp56
a(I22
I2
tp57
a(I21
I0
tp58
a(I20
I0
tp59
a(I11
I0
tp60
a(I16
I0
tp61
a(I20
I0
tp62
a(I10
I0
tp63
a(I11
I0
tp64
asS'event_id'
p65
S'0'
sS'faction'
p66
S'Empire'
p67
sS'desc'
p68
S'Ruthless and cunning Imperial warlock.'
p69
sS'tags'
p70
(lp71
S'Boss'
p72
asS'status_effects'
p73
(lp74
(dp75
S'count'
p76
NsS'time_left'
p77
NsS'upkeep_sc_count'
p78
NsS'children'
p79
(lp80
sS'charge'
p81
NsS'rhythm_sc_count'
p82
Nsg46
S'Hex'
p83
sa(dp84
g76
Nsg77
Nsg78
Nsg79
(lp85
sg81
Nsg82
Nsg46
S'Empowered'
p86
sa(dp87
g76
Nsg77
Nsg78
Nsg79
(lp88
sg81
I0
sg82
Nsg46
S'Gate'
p89
sa(dp90
g76
Nsg77
Nsg78
Nsg79
(lp91
sg81
Nsg82
Nsg46
S'fMagic +2'
p92
sasS'records'
p93
(dp94
S'damage'
p95
I0
sS'kills'
p96
I0
sS'healing'
p97
I0
ssS'finished'
p98
I00
sS'u_id'
p99
g45
sS'wexp'
p100
(lp101
I0
aI0
aI0
aI0
aI0
aI0
aI76
asS'name'
p102
S'Vagnius'
p103
sS'movement_group'
p104
I3
sS'level'
p105
I18
sS'gender'
p106
S'M'
sS'TRV'
p107
I0
sS'klass'
p108
S'Warlock'
p109
sS'exp'
p110
I0
sS'team'
p111
S'enemy'
p112
sS'position'
p113
(I30
I19
tp114
sa(dp115
g31
S'HardGuard'
p116
sg33
(lp117
I140
aI70
aI0
aI80
aI0
aI0
aI30
aI40
asg35
I00
sg36
(lp118
(dp119
g39
Nsg40
I00
sg41
I00
sg42
I3
sg43
I00
sg44
I101
sg46
S'Ballista'
p120
sasg50
(lp121
I40
aI70
aI0
aI80
aI0
aI0
aI30
aI40
asg52
ccopy_reg
_reconstructor
p122
(cCode.UnitObject
Stat
p123
c__builtin__
object
p124
NtRp125
(dp126
S'bonuses'
p127
I0
sS'base_stat'
p128
I33
sbsg53
(lp129
(I33
I0
tp130
a(I11
I0
tp131
a(I0
I0
tp132
a(I14
I0
tp133
a(I0
I0
tp134
a(I0
I0
tp135
a(I6
I0
tp136
a(I4
I0
tp137
a(I20
I0
tp138
a(I0
I0
tp139
asg65
S'0'
sg66
S'Empire'
p140
sg68
S"The Empire's elite guard"
p141
sg70
(lp142
sg73
(lp143
sg93
(dp144
g95
I0
sg96
I0
sg97
I0
ssg98
I01
sg99
I101
sg100
(lp145
I0
aI0
aI0
aI1
aI0
aI0
aI0
asg102
S'Claw'
p146
sg104
I2
sg105
I12
sg106
S'M'
sg107
I0
sg108
S'Ballista'
p147
sg110
I0
sg111
S'enemy'
p148
sg113
(I22
I24
tp149
sa(dp150
g31
S'HardGuard'
p151
sg33
(lp152
I140
aI70
aI0
aI80
aI0
aI0
aI30
aI40
asg35
I00
sg36
(lp153
(dp154
g39
Nsg40
I00
sg41
I00
sg42
I5
sg43
I00
sg44
I102
sg46
S'Ballista'
p155
sasg50
(lp156
I60
aI80
aI0
aI20
aI0
aI0
aI20
aI60
asg52
I37
sg53
(lp157
(I37
I0
tp158
a(I13
I0
tp159
a(I0
I0
tp160
a(I17
I0
tp161
a(I0
I0
tp162
a(I0
I0
tp163
a(I7
I0
tp164
a(I5
I0
tp165
a(I20
I0
tp166
a(I0
I0
tp167
asg65
S'0'
sg66
S'Empire'
p168
sg68
S"The Empire's elite guard"
p169
sg70
(lp170
sg73
(lp171
sg93
(dp172
g95
I0
sg96
I0
sg97
I0
ssg98
I00
sg99
I102
sg100
(lp173
I0
aI0
aI0
aI1
aI0
aI0
aI0
asg102
S'Claw'
p174
sg104
I2
sg105
I15
sg106
S'M'
sg107
I0
sg108
S'Ballista'
p175
sg110
I0
sg111
S'enemy'
p176
sg113
(I25
I5
tp177
sa(dp178
g31
S'HardGuard'
p179
sg33
(lp180
I140
aI70
aI0
aI80
aI0
aI0
aI30
aI40
asg35
I00
sg36
(lp181
(dp182
g39
Nsg40
I00
sg41
I00
sg42
I3
sg43
I00
sg44
I103
sg46
S'Ballista'
p183
sasg50
(lp184
I40
aI70
aI0
aI80
aI0
aI0
aI30
aI40
asg52
g122
(g123
g124
NtRp185
(dp186
g127
I0
sg128
I33
sbsg53
(lp187
(I33
I0
tp188
a(I11
I0
tp189
a(I0
I0
tp190
a(I14
I0
tp191
a(I0
I0
tp192
a(I0
I0
tp193
a(I6
I0
tp194
a(I4
I0
tp195
a(I20
I0
tp196
a(I0
I0
tp197
asg65
S'0'
sg66
S'Empire'
p198
sg68
S"The Empire's elite guard"
p199
sg70
(lp200
sg73
(lp201
sg93
(dp202
g95
I0
sg96
I0
sg97
I0
ssg98
I01
sg99
I103
sg100
(lp203
I0
aI0
aI0
aI1
aI0
aI0
aI0
asg102
S'Claw'
p204
sg104
I2
sg105
I12
sg106
S'M'
sg107
I0
sg108
S'Ballista'
p205
sg110
I0
sg111
S'enemy'
p206
sg113
(I23
I23
tp207
sa(dp208
g31
S'Attack_1'
p209
sg33
(lp210
I150
aI70
aI10
aI80
aI56
aI60
aI30
aI30
asg35
I00
sg36
(lp211
(dp212
g39
Nsg40
I00
sg41
I00
sg42
I29
sg43
I00
sg44
I123
sg46
S'Steel Lance'
p213
sasg50
(lp214
I50
aI30
aI90
aI20
aI4
aI40
aI70
aI70
asg52
I4
sg53
(lp215
(I33
I0
tp216
a(I11
I0
tp217
a(I0
I0
tp218
a(I10
I0
tp219
a(I10
I0
tp220
a(I5
I0
tp221
a(I8
I0
tp222
a(I2
I0
tp223
a(I9
I0
tp224
a(I14
I0
tp225
asg65
S'0'
sg66
S'Empire'
p226
sg68
S"The Empire's elite guard"
p227
sg70
(lp228
sg73
(lp229
(dp230
g76
Nsg77
Nsg78
Nsg79
(lp231
sg81
Nsg82
Nsg46
S'Canto'
p232
sa(dp233
g76
Nsg77
Nsg78
Nsg79
(lp234
sg81
Nsg82
Nsg46
S'Savior'
p235
sasg93
(dp236
g95
I0
sg96
I0
sg97
I0
ssg98
I01
sg99
I123
sg100
(lp237
I1
aI16
aI0
aI0
aI0
aI0
aI0
asg102
S'Claw'
p238
sg104
I2
sg105
I10
sg106
S'M'
sg107
I0
sg108
S'Cavalier'
p239
sg110
I0
sg111
S'enemy'
p240
sg113
(I15
I14
tp241
sa(dp242
g31
S'Attack'
p243
sg33
(lp244
I130
aI60
aI40
aI60
aI40
aI60
aI30
aI50
asg35
I00
sg36
(lp245
(dp246
g39
Nsg40
I00
sg41
I00
sg42
I20
sg43
I00
sg44
I126
sg46
S'Yew Bow'
p247
sa(dp248
g39
Nsg40
I00
sg41
I00
sg42
I3
sg43
I00
sg44
I126
sg46
S'Elixir'
p249
sasg50
(lp250
I30
aI60
aI40
aI60
aI40
aI60
aI30
aI50
asg52
I35
sg53
(lp251
(I35
I0
tp252
a(I13
I0
tp253
a(I8
I0
tp254
a(I12
I0
tp255
a(I11
I0
tp256
a(I6
I0
tp257
a(I8
I0
tp258
a(I8
I0
tp259
a(I9
I0
tp260
a(I12
I0
tp261
asg65
S'0'
sg66
S'Empire'
p262
sg68
S"The Empire's elite guard"
p263
sg70
(lp264
sg73
(lp265
(dp266
g76
Nsg77
Nsg78
Nsg79
(lp267
sg81
Nsg82
Nsg46
S'Prescience'
p268
sa(dp269
g76
Nsg77
Nsg78
Nsg79
(lp270
sg81
I0
sg82
Nsg46
S'Critical'
p271
sa(dp272
g76
Nsg77
Nsg78
Nsg79
(lp273
sg81
Nsg82
Nsg46
S'Evasion'
p274
sasg93
(dp275
g95
I0
sg96
I0
sg97
I0
ssg98
I00
sg99
I126
sg100
(lp276
I0
aI0
aI0
aI41
aI0
aI0
aI0
asg102
S'Claw'
p277
sg104
I0
sg105
I12
sg106
S'M'
sg107
I0
sg108
S'Sniper'
p278
sg110
I0
sg111
S'enemy'
p279
sg113
(I22
I4
tp280
sa(dp281
g31
S'Attack'
p282
sg33
(lp283
I90
aI20
aI70
aI50
aI45
aI100
aI15
aI100
asg35
I00
sg36
(lp284
(dp285
g39
Nsg40
I00
sg41
I00
sg42
I25
sg43
I00
sg44
I127
sg46
S'Shine'
p286
sa(dp287
g39
Nsg40
I00
sg41
I00
sg42
I15
sg43
I00
sg44
I127
sg46
S'Physic'
p288
sasg50
(lp289
I90
aI20
aI70
aI50
aI95
aI0
aI65
aI0
asg52
I30
sg53
(lp290
(I30
I0
tp291
a(I2
I0
tp292
a(I11
I0
tp293
a(I10
I0
tp294
a(I8
I0
tp295
a(I11
I0
tp296
a(I4
I0
tp297
a(I20
I0
tp298
a(I6
I0
tp299
a(I13
I0
tp300
asg65
S'0'
sg66
S'Empire'
p301
sg68
S"The Empire's elite guard"
p302
sg70
(lp303
sg73
(lp304
(dp305
g76
Nsg77
Nsg78
Nsg79
(lp306
sg81
Nsg82
Nsg46
S'Healtouch'
p307
sa(dp308
g76
I1
sg77
Nsg78
Nsg79
(lp309
sg81
Nsg82
Nsg46
S'Miracle'
p310
sa(dp311
g76
Nsg77
Nsg78
Nsg79
(lp312
sg81
Nsg82
Nsg46
S'Futuresight'
p313
sasg93
(dp314
g95
I0
sg96
I0
sg97
I0
ssg98
I00
sg99
I127
sg100
(lp315
I0
aI0
aI0
aI0
aI41
aI0
aI1
asg102
S'Claw'
p316
sg104
I3
sg105
I12
sg106
S'M'
sg107
I0
sg108
S'Oracle'
p317
sg110
I0
sg111
S'enemy'
p318
sg113
(I23
I6
tp319
sa(dp320
g31
S'Attack_6'
p321
sg33
(lp322
I140
aI70
aI50
aI80
aI80
aI60
aI30
aI40
asg35
I00
sg36
(lp323
(dp324
g39
Nsg40
I00
sg41
I00
sg42
I30
sg43
I00
sg44
I129
sg46
S'Steel Sword'
p325
sasg50
(lp326
I60
aI30
aI50
aI20
aI20
aI40
aI70
aI60
asg52
I28
sg53
(lp327
(I28
I0
tp328
a(I10
I0
tp329
a(I6
I0
tp330
a(I16
I0
tp331
a(I17
I0
tp332
a(I5
I0
tp333
a(I4
I0
tp334
a(I4
I0
tp335
a(I7
I0
tp336
a(I11
I0
tp337
asg65
S'0'
sg66
S'Empire'
p338
sg68
S"The Empire's elite guard"
p339
sg70
(lp340
sg73
(lp341
(dp342
g76
Nsg77
Nsg78
Nsg79
(lp343
sg81
Nsg82
Nsg46
S'Riposte'
p344
sa(dp345
g76
Nsg77
Nsg78
Nsg79
(lp346
sg81
Nsg82
Nsg46
S'Vantage'
p347
sasg93
(dp348
g95
I0
sg96
I0
sg97
I0
ssg98
I00
sg99
I129
sg100
(lp349
I16
aI0
aI0
aI0
aI0
aI0
aI0
asg102
S'Claw'
p350
sg104
I0
sg105
I10
sg106
S'M'
sg107
I0
sg108
S'Myrmidon'
p351
sg110
I0
sg111
S'enemy'
p352
sg113
(I26
I11
tp353
sa(dp354
g31
S'Attack_6'
p355
sg33
(lp356
I140
aI70
aI50
aI80
aI80
aI60
aI30
aI40
asg35
I00
sg36
(lp357
(dp358
g39
Nsg40
I00
sg41
I00
sg42
I30
sg43
I00
sg44
I130
sg46
S'Steel Sword'
p359
sasg50
(lp360
I60
aI30
aI50
aI20
aI20
aI40
aI70
aI60
asg52
I28
sg53
(lp361
(I28
I0
tp362
a(I10
I0
tp363
a(I6
I0
tp364
a(I16
I0
tp365
a(I17
I0
tp366
a(I5
I0
tp367
a(I4
I0
tp368
a(I4
I0
tp369
a(I7
I0
tp370
a(I11
I0
tp371
asg65
S'0'
sg66
S'Empire'
p372
sg68
S"The Empire's elite guard"
p373
sg70
(lp374
sg73
(lp375
(dp376
g76
Nsg77
Nsg78
Nsg79
(lp377
sg81
Nsg82
Nsg46
g344
sa(dp378
g76
Nsg77
Nsg78
Nsg79
(lp379
sg81
Nsg82
Nsg46
g347
sasg93
(dp380
g95
I0
sg96
I0
sg97
I0
ssg98
I00
sg99
I130
sg100
(lp381
I16
aI0
aI0
aI0
aI0
aI0
aI0
asg102
S'Claw'
p382
sg104
I0
sg105
I10
sg106
S'M'
sg107
I0
sg108
S'Myrmidon'
p383
sg110
I0
sg111
S'enemy'
p384
sg113
(I26
I13
tp385
sa(dp386
g31
S'Attack_6'
p387
sg33
(lp388
I130
aI50
aI40
aI60
aI60
aI50
aI30
aI44
asg35
I00
sg36
(lp389
(dp390
g39
Nsg40
I00
sg41
I00
sg42
I10
sg43
I00
sg44
I131
sg46
S'Superior Edge'
p391
sa(dp392
g39
Nsg40
I00
sg41
I00
sg42
I15
sg43
I00
sg44
I131
sg46
S'Steel Knife'
p393
sasg50
(lp394
I60
aI0
aI80
aI20
aI20
aI0
aI60
aI28
asg52
I36
sg53
(lp395
(I36
I0
tp396
a(I12
I0
tp397
a(I8
I0
tp398
a(I18
I0
tp399
a(I19
I0
tp400
a(I6
I0
tp401
a(I8
I0
tp402
a(I8
I0
tp403
a(I9
I0
tp404
a(I13
I0
tp405
asg65
S'0'
sg66
S'Empire'
p406
sg68
S"The Empire's elite guard"
p407
sg70
(lp408
sg73
(lp409
(dp410
g76
Nsg77
Nsg78
Nsg79
(lp411
sg81
Nsg82
Nsg46
S'Swordbreaker'
p412
sa(dp413
g76
Nsg77
Nsg78
Nsg79
(lp414
sg81
Nsg82
Nsg46
g344
sa(dp415
g76
Nsg77
Nsg78
Nsg79
(lp416
sg81
Nsg82
Nsg46
g347
sa(dp417
g76
Nsg77
Nsg78
Nsg79
(lp418
sg81
I0
sg82
Nsg46
S'Critical'
p419
sasg93
(dp420
g95
I0
sg96
I0
sg97
I0
ssg98
I00
sg99
I131
sg100
(lp421
I41
aI0
aI0
aI0
aI0
aI0
aI0
asg102
S'Claw'
p422
sg104
I0
sg105
I13
sg106
S'M'
sg107
I0
sg108
S'Swordmaster'
p423
sg110
I0
sg111
S'enemy'
p424
sg113
(I27
I12
tp425
sa(dp426
g31
S'Attack_6'
p427
sg33
(lp428
I140
aI80
aI30
aI80
aI40
aI40
aI60
aI30
asg35
I00
sg36
(lp429
(dp430
g39
Nsg40
I00
sg41
I00
sg42
I30
sg43
I00
sg44
I132
sg46
S'Steel Axe'
p431
sa(dp432
g39
Nsg40
I00
sg41
I00
sg42
I15
sg43
I00
sg44
I132
sg46
S'Short Spear'
p433
sasg50
(lp434
I0
aI0
aI0
aI0
aI0
aI0
aI0
aI0
asg52
I38
sg53
(lp435
(I38
I0
tp436
a(I14
I0
tp437
a(I4
I0
tp438
a(I18
I0
tp439
a(I11
I0
tp440
a(I4
I0
tp441
a(I12
I0
tp442
a(I5
I0
tp443
a(I12
I3
tp444
a(I11
I1
tp445
asg65
S'0'
sg66
S'Empire'
p446
sg68
S"The Empire's elite guard"
p447
sg70
(lp448
sg73
(lp449
(dp450
g76
Nsg77
Nsg78
Nsg79
(lp451
sg81
Nsg82
Nsg46
S'Synergy'
p452
sa(dp453
g76
Nsg77
Nsg78
Nsg79
(lp454
sg81
Nsg82
Nsg46
S'fMovement +1'
p455
sa(dp456
g76
Nsg77
Nsg78
Nsg79
(lp457
sg81
Nsg82
Nsg46
S'fConstitution +3'
p458
sasg93
(dp459
g95
I0
sg96
I0
sg97
I0
ssg98
I00
sg99
I132
sg100
(lp460
I0
aI16
aI16
aI0
aI0
aI0
aI0
asg102
S'Claw'
p461
sg104
I2
sg105
I11
sg106
S'M'
sg107
I0
sg108
S'Halberdier'
p462
sg110
I0
sg111
S'enemy'
p463
sg113
(I27
I9
tp464
sa(dp465
g31
S'SoftGuard'
p466
sg33
(lp467
I90
aI20
aI70
aI50
aI45
aI100
aI15
aI100
asg35
I00
sg36
(lp468
(dp469
g39
Nsg40
I00
sg41
I00
sg42
I25
sg43
I00
sg44
I133
sg46
S'Shine'
p470
sa(dp471
g39
Nsg40
I00
sg41
I00
sg42
I5
sg43
I00
sg44
I133
sg46
S'Hex'
p472
sa(dp473
g39
Nsg40
I00
sg41
I00
sg42
I30
sg43
I00
sg44
I133
sg46
S'Heal'
p474
sasg50
(lp475
I90
aI20
aI70
aI50
aI95
aI0
aI65
aI0
asg52
I30
sg53
(lp476
(I30
I0
tp477
a(I2
I0
tp478
a(I11
I0
tp479
a(I10
I0
tp480
a(I8
I0
tp481
a(I11
I0
tp482
a(I4
I0
tp483
a(I20
I0
tp484
a(I6
I0
tp485
a(I13
I0
tp486
asg65
S'0'
sg66
S'Empire'
p487
sg68
S"The Empire's elite guard"
p488
sg70
(lp489
sg73
(lp490
(dp491
g76
Nsg77
Nsg78
Nsg79
(lp492
sg81
Nsg82
Nsg46
g307
sa(dp493
g76
I1
sg77
Nsg78
Nsg79
(lp494
sg81
Nsg82
Nsg46
g310
sa(dp495
g76
Nsg77
Nsg78
Nsg79
(lp496
sg81
Nsg82
Nsg46
g313
sasg93
(dp497
g95
I0
sg96
I0
sg97
I0
ssg98
I00
sg99
I133
sg100
(lp498
I0
aI0
aI0
aI0
aI16
aI0
aI16
asg102
S'Claw'
p499
sg104
I3
sg105
I12
sg106
S'M'
sg107
I0
sg108
S'Oracle'
p500
sg110
I0
sg111
S'enemy'
p501
sg113
(I28
I19
tp502
sa(dp503
g31
S'Pursue'
p504
sg33
(lp505
I160
aI90
aI20
aI70
aI60
aI50
aI50
aI35
asg35
I00
sg36
(lp506
(dp507
g39
Nsg40
I00
sg41
I00
sg42
I44
sg43
I00
sg44
I137
sg46
S'Iron Lance'
p508
sasg50
(lp509
I40
aI10
aI80
aI30
aI40
aI50
aI50
aI15
asg52
I22
sg53
(lp510
(I34
I0
tp511
a(I15
I0
tp512
a(I1
I0
tp513
a(I11
I0
tp514
a(I10
I0
tp515
a(I4
I0
tp516
a(I12
I0
tp517
a(I3
I0
tp518
a(I10
I0
tp519
a(I12
I0
tp520
asg65
S'd5_1'
p521
sg66
S'Empire'
p522
sg68
S"The Empire's elite guard"
p523
sg70
(lp524
S'Flying'
p525
asg73
(lp526
(dp527
g76
Nsg77
Nsg78
Nsg79
(lp528
sg81
Nsg82
Nsg46
S'Flying'
p529
sa(dp530
g76
Nsg77
Nsg78
Nsg79
(lp531
sg81
Nsg82
Nsg46
S'Empowered'
p532
sasg93
(dp533
g95
I0
sg96
I0
sg97
I0
ssg98
I01
sg99
I137
sg100
(lp534
I0
aI1
aI1
aI0
aI0
aI0
aI0
asg102
S'Claw'
p535
sg104
I2
sg105
I10
sg106
S'M'
sg107
I0
sg108
S'Dracoknight'
p536
sg110
I0
sg111
S'enemy'
p537
sg113
(I15
I23
tp538
sa(dp539
g31
S'Pursue'
p540
sg33
(lp541
I160
aI90
aI20
aI70
aI60
aI50
aI50
aI35
asg35
I00
sg36
(lp542
(dp543
g39
Nsg40
I00
sg41
I00
sg42
I44
sg43
I00
sg44
I138
sg46
S'Iron Lance'
p544
sasg50
(lp545
I40
aI10
aI80
aI30
aI40
aI50
aI50
aI15
asg52
I20
sg53
(lp546
(I34
I0
tp547
a(I15
I0
tp548
a(I1
I0
tp549
a(I11
I0
tp550
a(I10
I0
tp551
a(I4
I0
tp552
a(I12
I0
tp553
a(I3
I0
tp554
a(I10
I0
tp555
a(I12
I0
tp556
asg65
S'd5_2'
p557
sg66
S'Empire'
p558
sg68
S"The Empire's elite guard"
p559
sg70
(lp560
g525
asg73
(lp561
(dp562
g76
Nsg77
Nsg78
Nsg79
(lp563
sg81
Nsg82
Nsg46
g529
sa(dp564
g76
Nsg77
Nsg78
Nsg79
(lp565
sg81
Nsg82
Nsg46
g532
sasg93
(dp566
g95
I0
sg96
I0
sg97
I0
ssg98
I01
sg99
I138
sg100
(lp567
I0
aI1
aI1
aI0
aI0
aI0
aI0
asg102
S'Claw'
p568
sg104
I2
sg105
I10
sg106
S'M'
sg107
I0
sg108
S'Dracoknight'
p569
sg110
I0
sg111
S'enemy'
p570
sg113
(I20
I21
tp571
sa(dp572
g31
S'Pursue'
p573
sg33
(lp574
I150
aI80
aI20
aI60
aI40
aI40
aI40
aI35
asg35
I00
sg36
(lp575
(dp576
g39
Nsg40
I00
sg41
I00
sg42
I19
sg43
I00
sg44
I139
sg46
S'Mithril Lance'
p577
sasg50
(lp578
I50
aI80
aI20
aI60
aI40
aI40
aI40
aI85
asg52
I5
sg53
(lp579
(I41
I0
tp580
a(I17
I0
tp581
a(I3
I0
tp582
a(I13
I0
tp583
a(I11
I0
tp584
a(I4
I0
tp585
a(I14
I0
tp586
a(I5
I0
tp587
a(I12
I0
tp588
a(I14
I0
tp589
asg65
S'd5_3'
p590
sg66
S'Empire'
p591
sg68
S"The Empire's elite guard"
p592
sg70
(lp593
S'Flying'
p594
asg73
(lp595
(dp596
g76
Nsg77
Nsg78
Nsg79
(lp597
sg81
Nsg82
Nsg46
g529
sa(dp598
g76
Nsg77
Nsg78
Nsg79
(lp599
sg81
Nsg82
Nsg46
g532
sa(dp600
g76
Nsg77
Nsg78
Nsg79
(lp601
sg81
Nsg82
Nsg46
S'Defense_Aura'
p602
sasg93
(dp603
g95
I0
sg96
I0
sg97
I0
ssg98
I01
sg99
I139
sg100
(lp604
I0
aI41
aI1
aI0
aI0
aI0
aI0
asg102
S'Claw'
p605
sg104
I2
sg105
I12
sg106
S'M'
sg107
I0
sg108
S'Dracolord'
p606
sg110
I0
sg111
S'enemy'
p607
sg113
(I14
I22
tp608
sa(dp609
g31
S'Pursue'
p610
sg33
(lp611
I160
aI90
aI20
aI70
aI60
aI50
aI50
aI35
asg35
I00
sg36
(lp612
(dp613
g39
Nsg40
I00
sg41
I00
sg42
I30
sg43
I00
sg44
I140
sg46
S'Steel Lance'
p614
sasg50
(lp615
I40
aI10
aI80
aI30
aI40
aI50
aI50
aI15
asg52
I34
sg53
(lp616
(I34
I0
tp617
a(I15
I0
tp618
a(I1
I0
tp619
a(I11
I0
tp620
a(I10
I0
tp621
a(I4
I0
tp622
a(I12
I0
tp623
a(I3
I0
tp624
a(I10
I0
tp625
a(I12
I0
tp626
asg65
S'd7_1'
p627
sg66
S'Empire'
p628
sg68
S"The Empire's elite guard"
p629
sg70
(lp630
g525
asg73
(lp631
(dp632
g76
Nsg77
Nsg78
Nsg79
(lp633
sg81
Nsg82
Nsg46
g529
sa(dp634
g76
Nsg77
Nsg78
Nsg79
(lp635
sg81
Nsg82
Nsg46
g532
sasg93
(dp636
g95
I0
sg96
I0
sg97
I0
ssg98
I01
sg99
I140
sg100
(lp637
I0
aI16
aI1
aI0
aI0
aI0
aI0
asg102
S'Claw'
p638
sg104
I2
sg105
I10
sg106
S'M'
sg107
I0
sg108
S'Dracoknight'
p639
sg110
I0
sg111
S'enemy'
p640
sg113
(I25
I24
tp641
sa(dp642
g31
S'Pursue'
p643
sg33
(lp644
I160
aI90
aI20
aI70
aI60
aI50
aI50
aI35
asg35
I00
sg36
(lp645
(dp646
g39
Nsg40
I00
sg41
I00
sg42
I30
sg43
I00
sg44
I141
sg46
S'Steel Lance'
p647
sasg50
(lp648
I40
aI10
aI80
aI30
aI40
aI50
aI50
aI15
asg52
I34
sg53
(lp649
(I34
I0
tp650
a(I15
I0
tp651
a(I1
I0
tp652
a(I11
I0
tp653
a(I10
I0
tp654
a(I4
I0
tp655
a(I12
I0
tp656
a(I3
I0
tp657
a(I10
I0
tp658
a(I12
I0
tp659
asg65
S'd7_2'
p660
sg66
S'Empire'
p661
sg68
S"The Empire's elite guard"
p662
sg70
(lp663
g525
asg73
(lp664
(dp665
g76
Nsg77
Nsg78
Nsg79
(lp666
sg81
Nsg82
Nsg46
g529
sa(dp667
g76
Nsg77
Nsg78
Nsg79
(lp668
sg81
Nsg82
Nsg46
g532
sasg93
(dp669
g95
I0
sg96
I0
sg97
I0
ssg98
I01
sg99
I141
sg100
(lp670
I0
aI16
aI1
aI0
aI0
aI0
aI0
asg102
S'Claw'
p671
sg104
I2
sg105
I10
sg106
S'M'
sg107
I0
sg108
S'Dracoknight'
p672
sg110
I0
sg111
S'enemy'
p673
sg113
(I24
I25
tp674
sa(dp675
g31
S'Pursue'
p676
sg33
(lp677
I150
aI80
aI20
aI60
aI40
aI40
aI40
aI35
asg35
I00
sg36
(lp678
(dp679
g39
Nsg40
I00
sg41
I00
sg42
I20
sg43
I00
sg44
I142
sg46
S'Mithril Lance'
p680
sasg50
(lp681
I0
aI60
aI40
aI20
aI80
aI80
aI80
aI20
asg52
I43
sg53
(lp682
(I43
I0
tp683
a(I18
I0
tp684
a(I3
I0
tp685
a(I14
I0
tp686
a(I11
I0
tp687
a(I4
I0
tp688
a(I14
I0
tp689
a(I6
I0
tp690
a(I12
I0
tp691
a(I14
I0
tp692
asg65
S'd7_3'
p693
sg66
S'Empire'
p694
sg68
S"The Empire's elite guard"
p695
sg70
(lp696
g594
asg73
(lp697
(dp698
g76
Nsg77
Nsg78
Nsg79
(lp699
sg81
Nsg82
Nsg46
g529
sa(dp700
g76
Nsg77
Nsg78
Nsg79
(lp701
sg81
Nsg82
Nsg46
g532
sa(dp702
g76
Nsg77
Nsg78
Nsg79
(lp703
sg81
Nsg82
Nsg46
g602
sasg93
(dp704
g95
I0
sg96
I0
sg97
I0
ssg98
I01
sg99
I142
sg100
(lp705
I0
aI41
aI1
aI0
aI0
aI0
aI0
asg102
S'Claw'
p706
sg104
I2
sg105
I13
sg106
S'M'
sg107
I0
sg108
S'Dracolord'
p707
sg110
I0
sg111
S'enemy'
p708
sg113
(I24
I24
tp709
sa(dp710
g31
S'Pursue'
p711
sg33
(lp712
I160
aI90
aI20
aI70
aI60
aI50
aI50
aI35
asg35
I00
sg36
(lp713
(dp714
g39
Nsg40
I00
sg41
I00
sg42
I30
sg43
I00
sg44
I143
sg46
S'Steel Lance'
p715
sasg50
(lp716
I40
aI10
aI80
aI30
aI40
aI50
aI50
aI15
asg52
I34
sg53
(lp717
(I34
I0
tp718
a(I15
I0
tp719
a(I1
I0
tp720
a(I11
I0
tp721
a(I10
I0
tp722
a(I4
I0
tp723
a(I12
I0
tp724
a(I3
I0
tp725
a(I10
I0
tp726
a(I12
I0
tp727
asg65
S'd9_1'
p728
sg66
S'Empire'
p729
sg68
S"The Empire's elite guard"
p730
sg70
(lp731
g525
asg73
(lp732
(dp733
g76
Nsg77
Nsg78
Nsg79
(lp734
sg81
Nsg82
Nsg46
g529
sa(dp735
g76
Nsg77
Nsg78
Nsg79
(lp736
sg81
Nsg82
Nsg46
g532
sasg93
(dp737
g95
I0
sg96
I0
sg97
I0
ssg98
I00
sg99
I143
sg100
(lp738
I0
aI16
aI1
aI0
aI0
aI0
aI0
asg102
S'Claw'
p739
sg104
I2
sg105
I10
sg106
S'M'
sg107
I0
sg108
S'Dracoknight'
p740
sg110
I0
sg111
S'enemy'
p741
sg113
Nsa(dp742
g31
S'Pursue'
p743
sg33
(lp744
I160
aI90
aI20
aI70
aI60
aI50
aI50
aI35
asg35
I00
sg36
(lp745
(dp746
g39
Nsg40
I00
sg41
I00
sg42
I30
sg43
I00
sg44
I144
sg46
S'Steel Lance'
p747
sasg50
(lp748
I40
aI10
aI80
aI30
aI40
aI50
aI50
aI15
asg52
I34
sg53
(lp749
(I34
I0
tp750
a(I15
I0
tp751
a(I1
I0
tp752
a(I11
I0
tp753
a(I10
I0
tp754
a(I4
I0
tp755
a(I12
I0
tp756
a(I3
I0
tp757
a(I10
I0
tp758
a(I12
I0
tp759
asg65
S'd9_2'
p760
sg66
S'Empire'
p761
sg68
S"The Empire's elite guard"
p762
sg70
(lp763
g525
asg73
(lp764
(dp765
g76
Nsg77
Nsg78
Nsg79
(lp766
sg81
Nsg82
Nsg46
g529
sa(dp767
g76
Nsg77
Nsg78
Nsg79
(lp768
sg81
Nsg82
Nsg46
g532
sasg93
(dp769
g95
I0
sg96
I0
sg97
I0
ssg98
I00
sg99
I144
sg100
(lp770
I0
aI16
aI1
aI0
aI0
aI0
aI0
asg102
S'Claw'
p771
sg104
I2
sg105
I10
sg106
S'M'
sg107
I0
sg108
S'Dracoknight'
p772
sg110
I0
sg111
S'enemy'
p773
sg113
Nsa(dp774
g31
S'Pursue'
p775
sg33
(lp776
I150
aI80
aI20
aI60
aI40
aI40
aI40
aI35
asg35
I00
sg36
(lp777
(dp778
g39
Nsg40
I00
sg41
I00
sg42
I20
sg43
I00
sg44
I145
sg46
S'Mithril Lance'
p779
sa(dp780
g39
Nsg40
I00
sg41
I00
sg42
I3
sg43
I00
sg44
I145
sg46
S'Potion'
p781
sasg50
(lp782
I50
aI40
aI60
aI80
aI20
aI20
aI20
aI55
asg52
I44
sg53
(lp783
(I44
I0
tp784
a(I19
I0
tp785
a(I3
I0
tp786
a(I14
I0
tp787
a(I12
I0
tp788
a(I5
I0
tp789
a(I15
I0
tp790
a(I6
I0
tp791
a(I12
I0
tp792
a(I14
I0
tp793
asg65
S'd9_3'
p794
sg66
S'Empire'
p795
sg68
S"The Empire's elite guard"
p796
sg70
(lp797
g594
asg73
(lp798
(dp799
g76
Nsg77
Nsg78
Nsg79
(lp800
sg81
Nsg82
Nsg46
g529
sa(dp801
g76
Nsg77
Nsg78
Nsg79
(lp802
sg81
Nsg82
Nsg46
g532
sa(dp803
g76
Nsg77
Nsg78
Nsg79
(lp804
sg81
Nsg82
Nsg46
g602
sasg93
(dp805
g95
I0
sg96
I0
sg97
I0
ssg98
I00
sg99
I145
sg100
(lp806
I0
aI41
aI1
aI0
aI0
aI0
aI0
asg102
S'Claw'
p807
sg104
I2
sg105
I14
sg106
S'M'
sg107
I0
sg108
S'Dracolord'
p808
sg110
I0
sg111
S'enemy'
p809
sg113
Nsa(dp810
g31
S'Pursue'
p811
sg33
(lp812
I160
aI90
aI20
aI70
aI60
aI50
aI50
aI35
asg35
I00
sg36
(lp813
(dp814
g39
Nsg40
I00
sg41
I00
sg42
I30
sg43
I00
sg44
I146
sg46
S'Steel Lance'
p815
sasg50
(lp816
I40
aI10
aI80
aI30
aI40
aI50
aI50
aI15
asg52
I34
sg53
(lp817
(I34
I0
tp818
a(I15
I0
tp819
a(I1
I0
tp820
a(I11
I0
tp821
a(I10
I0
tp822
a(I4
I0
tp823
a(I12
I0
tp824
a(I3
I0
tp825
a(I10
I0
tp826
a(I12
I0
tp827
asg65
S'd11_1'
p828
sg66
S'Empire'
p829
sg68
S"The Empire's elite guard"
p830
sg70
(lp831
g525
asg73
(lp832
(dp833
g76
Nsg77
Nsg78
Nsg79
(lp834
sg81
Nsg82
Nsg46
g529
sa(dp835
g76
Nsg77
Nsg78
Nsg79
(lp836
sg81
Nsg82
Nsg46
g532
sasg93
(dp837
g95
I0
sg96
I0
sg97
I0
ssg98
I00
sg99
I146
sg100
(lp838
I0
aI16
aI1
aI0
aI0
aI0
aI0
asg102
S'Claw'
p839
sg104
I2
sg105
I10
sg106
S'M'
sg107
I0
sg108
S'Dracoknight'
p840
sg110
I0
sg111
S'enemy'
p841
sg113
Nsa(dp842
g31
S'Pursue'
p843
sg33
(lp844
I160
aI90
aI20
aI70
aI60
aI50
aI50
aI35
asg35
I00
sg36
(lp845
(dp846
g39
Nsg40
I00
sg41
I00
sg42
I30
sg43
I00
sg44
I147
sg46
S'Steel Lance'
p847
sasg50
(lp848
I40
aI10
aI80
aI30
aI40
aI50
aI50
aI15
asg52
I34
sg53
(lp849
(I34
I0
tp850
a(I15
I0
tp851
a(I1
I0
tp852
a(I11
I0
tp853
a(I10
I0
tp854
a(I4
I0
tp855
a(I12
I0
tp856
a(I3
I0
tp857
a(I10
I0
tp858
a(I12
I0
tp859
asg65
S'd11_2'
p860
sg66
S'Empire'
p861
sg68
S"The Empire's elite guard"
p862
sg70
(lp863
g525
asg73
(lp864
(dp865
g76
Nsg77
Nsg78
Nsg79
(lp866
sg81
Nsg82
Nsg46
g529
sa(dp867
g76
Nsg77
Nsg78
Nsg79
(lp868
sg81
Nsg82
Nsg46
g532
sasg93
(dp869
g95
I0
sg96
I0
sg97
I0
ssg98
I00
sg99
I147
sg100
(lp870
I0
aI16
aI1
aI0
aI0
aI0
aI0
asg102
S'Claw'
p871
sg104
I2
sg105
I10
sg106
S'M'
sg107
I0
sg108
S'Dracoknight'
p872
sg110
I0
sg111
S'enemy'
p873
sg113
Nsa(dp874
g31
S'Pursue'
p875
sg33
(lp876
I150
aI80
aI20
aI60
aI40
aI40
aI40
aI35
asg35
I00
sg36
(lp877
(dp878
g39
Nsg40
I00
sg41
I00
sg42
I20
sg43
I00
sg44
I148
sg46
S'Mithril Lance'
p879
sa(dp880
g39
Nsg40
I00
sg41
I00
sg42
I3
sg43
I00
sg44
I148
sg46
S'Potion'
p881
sasg50
(lp882
I0
aI20
aI80
aI40
aI60
aI60
aI60
aI90
asg52
I46
sg53
(lp883
(I46
I0
tp884
a(I20
I0
tp885
a(I3
I0
tp886
a(I15
I0
tp887
a(I12
I0
tp888
a(I5
I0
tp889
a(I15
I0
tp890
a(I6
I2
tp891
a(I12
I0
tp892
a(I14
I0
tp893
asg65
S'd11_3'
p894
sg66
S'Empire'
p895
sg68
S"The Empire's elite guard"
p896
sg70
(lp897
g594
asg73
(lp898
(dp899
g76
Nsg77
Nsg78
Nsg79
(lp900
sg81
Nsg82
Nsg46
g529
sa(dp901
g76
Nsg77
Nsg78
Nsg79
(lp902
sg81
Nsg82
Nsg46
g532
sa(dp903
g76
Nsg77
Nsg78
Nsg79
(lp904
sg81
Nsg82
Nsg46
g602
sa(dp905
g76
Nsg77
Nsg78
Nsg79
(lp906
sg81
Nsg82
Nsg46
S'fResistance +2'
p907
sasg93
(dp908
g95
I0
sg96
I0
sg97
I0
ssg98
I00
sg99
I148
sg100
(lp909
I0
aI41
aI1
aI0
aI0
aI0
aI0
asg102
S'Claw'
p910
sg104
I2
sg105
I15
sg106
S'M'
sg107
I0
sg108
S'Dracolord'
p911
sg110
I0
sg111
S'enemy'
p912
sg113
Nsa(dp913
g31
S'Pursue'
p914
sg33
(lp915
I100
aI30
aI100
aI65
aI60
aI40
aI40
aI80
asg35
I00
sg36
(lp916
(dp917
g39
Nsg40
I00
sg41
I00
sg42
I35
sg43
I00
sg44
I149
sg46
S'Flux'
p918
sasg50
(lp919
I0
aI70
aI0
aI85
aI40
aI60
aI60
aI20
asg52
I25
sg53
(lp920
(I25
I0
tp921
a(I3
I0
tp922
a(I12
I0
tp923
a(I6
I0
tp924
a(I7
I0
tp925
a(I3
I0
tp926
a(I5
I0
tp927
a(I12
I0
tp928
a(I7
I0
tp929
a(I9
I0
tp930
asg65
S's4_1'
p931
sg66
S'Empire'
p932
sg68
S"The Empire's elite guard"
p933
sg70
(lp934
sg73
(lp935
(dp936
g76
Nsg77
Nsg78
Nsg79
(lp937
sg81
Nsg82
Nsg46
g83
sa(dp938
g76
Nsg77
Nsg78
Nsg79
(lp939
sg81
Nsg82
Nsg46
g86
sasg93
(dp940
g95
I0
sg96
I0
sg97
I0
ssg98
I01
sg99
I149
sg100
(lp941
I0
aI0
aI0
aI0
aI0
aI0
aI1
asg102
S'Claw'
p942
sg104
I3
sg105
I10
sg106
S'M'
sg107
I0
sg108
S'Shaman'
p943
sg110
I0
sg111
S'enemy'
p944
sg113
(I26
I12
tp945
sa(dp946
g31
S'Pursue'
p947
sg33
(lp948
I100
aI30
aI100
aI65
aI60
aI40
aI40
aI80
asg35
I00
sg36
(lp949
(dp950
g39
Nsg40
I00
sg41
I00
sg42
I25
sg43
I00
sg44
I150
sg46
S'Nyx'
p951
sasg50
(lp952
I0
aI70
aI0
aI85
aI40
aI60
aI60
aI20
asg52
I25
sg53
(lp953
(I25
I0
tp954
a(I3
I0
tp955
a(I12
I0
tp956
a(I6
I0
tp957
a(I7
I0
tp958
a(I3
I0
tp959
a(I5
I0
tp960
a(I12
I0
tp961
a(I7
I0
tp962
a(I9
I0
tp963
asg65
S's4_2'
p964
sg66
S'Empire'
p965
sg68
S"The Empire's elite guard"
p966
sg70
(lp967
sg73
(lp968
(dp969
g76
Nsg77
Nsg78
Nsg79
(lp970
sg81
Nsg82
Nsg46
g83
sa(dp971
g76
Nsg77
Nsg78
Nsg79
(lp972
sg81
Nsg82
Nsg46
g86
sasg93
(dp973
g95
I0
sg96
I0
sg97
I0
ssg98
I01
sg99
I150
sg100
(lp974
I0
aI0
aI0
aI0
aI0
aI0
aI16
asg102
S'Claw'
p975
sg104
I3
sg105
I10
sg106
S'M'
sg107
I0
sg108
S'Shaman'
p976
sg110
I0
sg111
S'enemy'
p977
sg113
(I27
I14
tp978
sa(dp979
g31
S'Pursue'
p980
sg33
(lp981
I100
aI30
aI100
aI65
aI60
aI40
aI40
aI80
asg35
I00
sg36
(lp982
(dp983
g39
Nsg40
I00
sg41
I00
sg42
I35
sg43
I00
sg44
I151
sg46
S'Flux'
p984
sasg50
(lp985
I0
aI70
aI0
aI85
aI40
aI60
aI60
aI20
asg52
I25
sg53
(lp986
(I25
I0
tp987
a(I3
I0
tp988
a(I12
I0
tp989
a(I6
I0
tp990
a(I7
I0
tp991
a(I3
I0
tp992
a(I5
I0
tp993
a(I12
I0
tp994
a(I7
I0
tp995
a(I9
I0
tp996
asg65
S's4_3'
p997
sg66
S'Empire'
p998
sg68
S"The Empire's elite guard"
p999
sg70
(lp1000
sg73
(lp1001
(dp1002
g76
Nsg77
Nsg78
Nsg79
(lp1003
sg81
Nsg82
Nsg46
g83
sa(dp1004
g76
Nsg77
Nsg78
Nsg79
(lp1005
sg81
Nsg82
Nsg46
g86
sasg93
(dp1006
g95
I0
sg96
I0
sg97
I0
ssg98
I01
sg99
I151
sg100
(lp1007
I0
aI0
aI0
aI0
aI0
aI0
aI1
asg102
S'Claw'
p1008
sg104
I3
sg105
I10
sg106
S'M'
sg107
I0
sg108
S'Shaman'
p1009
sg110
I0
sg111
S'enemy'
p1010
sg113
(I27
I13
tp1011
sa(dp1012
g31
S'Pursue'
p1013
sg33
(lp1014
I100
aI30
aI100
aI65
aI60
aI40
aI40
aI80
asg35
I00
sg36
(lp1015
(dp1016
g39
Nsg40
I00
sg41
I00
sg42
I25
sg43
I00
sg44
I152
sg46
S'Nyx'
p1017
sasg50
(lp1018
I0
aI70
aI0
aI85
aI40
aI60
aI60
aI20
asg52
I25
sg53
(lp1019
(I25
I0
tp1020
a(I3
I0
tp1021
a(I12
I0
tp1022
a(I6
I0
tp1023
a(I7
I0
tp1024
a(I3
I0
tp1025
a(I5
I0
tp1026
a(I12
I0
tp1027
a(I7
I0
tp1028
a(I9
I0
tp1029
asg65
S's6_1'
p1030
sg66
S'Empire'
p1031
sg68
S"The Empire's elite guard"
p1032
sg70
(lp1033
sg73
(lp1034
(dp1035
g76
Nsg77
Nsg78
Nsg79
(lp1036
sg81
Nsg82
Nsg46
g83
sa(dp1037
g76
Nsg77
Nsg78
Nsg79
(lp1038
sg81
Nsg82
Nsg46
g86
sasg93
(dp1039
g95
I0
sg96
I0
sg97
I0
ssg98
I00
sg99
I152
sg100
(lp1040
I0
aI0
aI0
aI0
aI0
aI0
aI16
asg102
S'Claw'
p1041
sg104
I3
sg105
I10
sg106
S'M'
sg107
I0
sg108
S'Shaman'
p1042
sg110
I0
sg111
S'enemy'
p1043
sg113
(I30
I16
tp1044
sa(dp1045
g31
S'Pursue'
p1046
sg33
(lp1047
I100
aI30
aI100
aI65
aI60
aI40
aI40
aI80
asg35
I00
sg36
(lp1048
(dp1049
g39
Nsg40
I00
sg41
I00
sg42
I15
sg43
I00
sg44
I153
sg46
S'Ruin'
p1050
sasg50
(lp1051
I0
aI70
aI0
aI85
aI40
aI60
aI60
aI20
asg52
I25
sg53
(lp1052
(I25
I0
tp1053
a(I3
I0
tp1054
a(I12
I0
tp1055
a(I6
I0
tp1056
a(I7
I0
tp1057
a(I3
I0
tp1058
a(I5
I0
tp1059
a(I12
I0
tp1060
a(I7
I0
tp1061
a(I9
I0
tp1062
asg65
S's6_2'
p1063
sg66
S'Empire'
p1064
sg68
S"The Empire's elite guard"
p1065
sg70
(lp1066
sg73
(lp1067
(dp1068
g76
Nsg77
Nsg78
Nsg79
(lp1069
sg81
Nsg82
Nsg46
g83
sa(dp1070
g76
Nsg77
Nsg78
Nsg79
(lp1071
sg81
Nsg82
Nsg46
g86
sasg93
(dp1072
g95
I0
sg96
I0
sg97
I0
ssg98
I00
sg99
I153
sg100
(lp1073
I0
aI0
aI0
aI0
aI0
aI0
aI41
asg102
S'Claw'
p1074
sg104
I3
sg105
I10
sg106
S'M'
sg107
I0
sg108
S'Shaman'
p1075
sg110
I0
sg111
S'enemy'
p1076
sg113
(I30
I17
tp1077
sa(dp1078
g31
S'Pursue'
p1079
sg33
(lp1080
I100
aI30
aI100
aI65
aI60
aI40
aI40
aI80
asg35
I00
sg36
(lp1081
(dp1082
g39
Nsg40
I00
sg41
I00
sg42
I25
sg43
I00
sg44
I154
sg46
S'Nyx'
p1083
sasg50
(lp1084
I0
aI70
aI0
aI85
aI40
aI60
aI60
aI20
asg52
I25
sg53
(lp1085
(I25
I0
tp1086
a(I3
I0
tp1087
a(I12
I0
tp1088
a(I6
I0
tp1089
a(I7
I0
tp1090
a(I3
I0
tp1091
a(I5
I0
tp1092
a(I12
I0
tp1093
a(I7
I0
tp1094
a(I9
I0
tp1095
asg65
S's6_3'
p1096
sg66
S'Empire'
p1097
sg68
S"The Empire's elite guard"
p1098
sg70
(lp1099
sg73
(lp1100
(dp1101
g76
Nsg77
Nsg78
Nsg79
(lp1102
sg81
Nsg82
Nsg46
g83
sa(dp1103
g76
Nsg77
Nsg78
Nsg79
(lp1104
sg81
Nsg82
Nsg46
g86
sasg93
(dp1105
g95
I0
sg96
I0
sg97
I0
ssg98
I00
sg99
I154
sg100
(lp1106
I0
aI0
aI0
aI0
aI0
aI0
aI16
asg102
S'Claw'
p1107
sg104
I3
sg105
I10
sg106
S'M'
sg107
I0
sg108
S'Shaman'
p1108
sg110
I0
sg111
S'enemy'
p1109
sg113
(I30
I18
tp1110
sa(dp1111
g31
S'Pursue'
p1112
sg33
(lp1113
I100
aI30
aI100
aI65
aI60
aI40
aI40
aI80
asg35
I00
sg36
(lp1114
(dp1115
g39
Nsg40
I00
sg41
I00
sg42
I25
sg43
I00
sg44
I155
sg46
S'Nyx'
p1116
sasg50
(lp1117
I0
aI70
aI0
aI85
aI40
aI60
aI60
aI20
asg52
I25
sg53
(lp1118
(I25
I0
tp1119
a(I3
I0
tp1120
a(I12
I0
tp1121
a(I6
I0
tp1122
a(I7
I0
tp1123
a(I3
I0
tp1124
a(I5
I0
tp1125
a(I12
I0
tp1126
a(I7
I0
tp1127
a(I9
I0
tp1128
asg65
S's8_1'
p1129
sg66
S'Empire'
p1130
sg68
S"The Empire's elite guard"
p1131
sg70
(lp1132
sg73
(lp1133
(dp1134
g76
Nsg77
Nsg78
Nsg79
(lp1135
sg81
Nsg82
Nsg46
g83
sa(dp1136
g76
Nsg77
Nsg78
Nsg79
(lp1137
sg81
Nsg82
Nsg46
g86
sasg93
(dp1138
g95
I0
sg96
I0
sg97
I0
ssg98
I00
sg99
I155
sg100
(lp1139
I0
aI0
aI0
aI0
aI0
aI0
aI16
asg102
S'Claw'
p1140
sg104
I3
sg105
I10
sg106
S'M'
sg107
I0
sg108
S'Shaman'
p1141
sg110
I0
sg111
S'enemy'
p1142
sg113
Nsa(dp1143
g31
S'Pursue'
p1144
sg33
(lp1145
I100
aI30
aI100
aI65
aI60
aI40
aI40
aI80
asg35
I00
sg36
(lp1146
(dp1147
g39
Nsg40
I00
sg41
I00
sg42
I15
sg43
I00
sg44
I156
sg46
S'Ruin'
p1148
sasg50
(lp1149
I0
aI70
aI0
aI85
aI40
aI60
aI60
aI20
asg52
I25
sg53
(lp1150
(I25
I0
tp1151
a(I3
I0
tp1152
a(I12
I0
tp1153
a(I6
I0
tp1154
a(I7
I0
tp1155
a(I3
I0
tp1156
a(I5
I0
tp1157
a(I12
I0
tp1158
a(I7
I0
tp1159
a(I9
I0
tp1160
asg65
S's8_2'
p1161
sg66
S'Empire'
p1162
sg68
S"The Empire's elite guard"
p1163
sg70
(lp1164
sg73
(lp1165
(dp1166
g76
Nsg77
Nsg78
Nsg79
(lp1167
sg81
Nsg82
Nsg46
g83
sa(dp1168
g76
Nsg77
Nsg78
Nsg79
(lp1169
sg81
Nsg82
Nsg46
g86
sasg93
(dp1170
g95
I0
sg96
I0
sg97
I0
ssg98
I00
sg99
I156
sg100
(lp1171
I0
aI0
aI0
aI0
aI0
aI0
aI41
asg102
S'Claw'
p1172
sg104
I3
sg105
I10
sg106
S'M'
sg107
I0
sg108
S'Shaman'
p1173
sg110
I0
sg111
S'enemy'
p1174
sg113
Nsa(dp1175
g31
S'Pursue'
p1176
sg33
(lp1177
I100
aI30
aI100
aI65
aI60
aI40
aI40
aI80
asg35
I00
sg36
(lp1178
(dp1179
g39
Nsg40
I00
sg41
I00
sg42
I25
sg43
I00
sg44
I157
sg46
S'Nyx'
p1180
sasg50
(lp1181
I0
aI70
aI0
aI85
aI40
aI60
aI60
aI20
asg52
I25
sg53
(lp1182
(I25
I0
tp1183
a(I3
I0
tp1184
a(I12
I0
tp1185
a(I6
I0
tp1186
a(I7
I0
tp1187
a(I3
I0
tp1188
a(I5
I0
tp1189
a(I12
I0
tp1190
a(I7
I0
tp1191
a(I9
I0
tp1192
asg65
S's8_3'
p1193
sg66
S'Empire'
p1194
sg68
S"The Empire's elite guard"
p1195
sg70
(lp1196
sg73
(lp1197
(dp1198
g76
Nsg77
Nsg78
Nsg79
(lp1199
sg81
Nsg82
Nsg46
g83
sa(dp1200
g76
Nsg77
Nsg78
Nsg79
(lp1201
sg81
Nsg82
Nsg46
g86
sasg93
(dp1202
g95
I0
sg96
I0
sg97
I0
ssg98
I00
sg99
I157
sg100
(lp1203
I0
aI0
aI0
aI0
aI0
aI0
aI16
asg102
S'Claw'
p1204
sg104
I3
sg105
I10
sg106
S'M'
sg107
I0
sg108
S'Shaman'
p1205
sg110
I0
sg111
S'enemy'
p1206
sg113
Nsa(dp1207
g31
S'Pursue'
p1208
sg33
(lp1209
I140
aI50
aI20
aI70
aI50
aI50
aI24
aI50
asg35
I00
sg36
(lp1210
(dp1211
g39
Nsg40
I00
sg41
I00
sg42
I19
sg43
I00
sg44
I158
sg46
S'Mithril Sword'
p1212
sasg50
(lp1213
I40
aI50
aI20
aI70
aI50
aI50
aI64
aI50
asg52
I27
sg53
(lp1214
(I38
I0
tp1215
a(I12
I0
tp1216
a(I5
I0
tp1217
a(I13
I0
tp1218
a(I16
I0
tp1219
a(I5
I0
tp1220
a(I10
I0
tp1221
a(I11
I0
tp1222
a(I11
I0
tp1223
a(I16
I0
tp1224
asg65
S'p4_1'
p1225
sg66
S'Empire'
p1226
sg68
S"The Empire's elite guard"
p1227
sg70
(lp1228
sg73
(lp1229
(dp1230
g76
Nsg77
Nsg78
Nsg79
(lp1231
sg81
Nsg82
Nsg46
g232
sa(dp1232
g76
Nsg77
Nsg78
Nsg79
(lp1233
sg81
Nsg82
Nsg46
g235
sa(dp1234
g76
Nsg77
Nsg78
Nsg79
(lp1235
sg81
Nsg82
Nsg46
S'Charisma'
p1236
sasg93
(dp1237
g95
I0
sg96
I0
sg97
I0
ssg98
I01
sg99
I158
sg100
(lp1238
I41
aI1
aI0
aI0
aI0
aI0
aI0
asg102
S'Claw'
p1239
sg104
I2
sg105
I12
sg106
S'M'
sg107
I0
sg108
S'Paladin'
p1240
sg110
I0
sg111
S'enemy'
p1241
sg113
(I14
I20
tp1242
sa(dp1243
g31
S'Pursue'
p1244
sg33
(lp1245
I140
aI50
aI20
aI70
aI50
aI50
aI24
aI50
asg35
I00
sg36
(lp1246
(dp1247
g39
Nsg40
I00
sg41
I00
sg42
I19
sg43
I00
sg44
I159
sg46
S'Mithril Lance'
p1248
sasg50
(lp1249
I40
aI50
aI20
aI70
aI50
aI50
aI64
aI50
asg52
I27
sg53
(lp1250
(I38
I0
tp1251
a(I12
I0
tp1252
a(I5
I0
tp1253
a(I13
I0
tp1254
a(I16
I0
tp1255
a(I5
I0
tp1256
a(I10
I0
tp1257
a(I11
I0
tp1258
a(I11
I0
tp1259
a(I16
I0
tp1260
asg65
S'p4_2'
p1261
sg66
S'Empire'
p1262
sg68
S"The Empire's elite guard"
p1263
sg70
(lp1264
sg73
(lp1265
(dp1266
g76
Nsg77
Nsg78
Nsg79
(lp1267
sg81
Nsg82
Nsg46
g232
sa(dp1268
g76
Nsg77
Nsg78
Nsg79
(lp1269
sg81
Nsg82
Nsg46
g235
sa(dp1270
g76
Nsg77
Nsg78
Nsg79
(lp1271
sg81
Nsg82
Nsg46
g1236
sasg93
(dp1272
g95
I0
sg96
I0
sg97
I0
ssg98
I01
sg99
I159
sg100
(lp1273
I1
aI41
aI0
aI0
aI0
aI0
aI0
asg102
S'Claw'
p1274
sg104
I2
sg105
I12
sg106
S'M'
sg107
I0
sg108
S'Paladin'
p1275
sg110
I0
sg111
S'enemy'
p1276
sg113
(I15
I19
tp1277
sa(dp1278
g31
S'Pursue'
p1279
sg33
(lp1280
I140
aI50
aI20
aI70
aI50
aI50
aI24
aI50
asg35
I00
sg36
(lp1281
(dp1282
g39
Nsg40
I00
sg41
I00
sg42
I20
sg43
I00
sg44
I160
sg46
S'Mithril Sword'
p1283
sasg50
(lp1284
I40
aI50
aI20
aI70
aI50
aI50
aI64
aI50
asg52
I38
sg53
(lp1285
(I38
I0
tp1286
a(I12
I0
tp1287
a(I5
I0
tp1288
a(I13
I0
tp1289
a(I16
I0
tp1290
a(I5
I0
tp1291
a(I10
I0
tp1292
a(I11
I0
tp1293
a(I11
I0
tp1294
a(I16
I0
tp1295
asg65
S'p6_1'
p1296
sg66
S'Empire'
p1297
sg68
S"The Empire's elite guard"
p1298
sg70
(lp1299
sg73
(lp1300
(dp1301
g76
Nsg77
Nsg78
Nsg79
(lp1302
sg81
Nsg82
Nsg46
g232
sa(dp1303
g76
Nsg77
Nsg78
Nsg79
(lp1304
sg81
Nsg82
Nsg46
g235
sa(dp1305
g76
Nsg77
Nsg78
Nsg79
(lp1306
sg81
Nsg82
Nsg46
g1236
sasg93
(dp1307
g95
I0
sg96
I0
sg97
I0
ssg98
I01
sg99
I160
sg100
(lp1308
I41
aI1
aI0
aI0
aI0
aI0
aI0
asg102
S'Claw'
p1309
sg104
I2
sg105
I12
sg106
S'M'
sg107
I0
sg108
S'Paladin'
p1310
sg110
I0
sg111
S'enemy'
p1311
sg113
(I19
I9
tp1312
sa(dp1313
g31
S'Pursue'
p1314
sg33
(lp1315
I140
aI50
aI20
aI70
aI50
aI50
aI24
aI50
asg35
I00
sg36
(lp1316
(dp1317
g39
Nsg40
I00
sg41
I00
sg42
I20
sg43
I00
sg44
I161
sg46
S'Mithril Lance'
p1318
sasg50
(lp1319
I40
aI50
aI20
aI70
aI50
aI50
aI64
aI50
asg52
I38
sg53
(lp1320
(I38
I0
tp1321
a(I12
I0
tp1322
a(I5
I0
tp1323
a(I13
I0
tp1324
a(I16
I0
tp1325
a(I5
I0
tp1326
a(I10
I0
tp1327
a(I11
I0
tp1328
a(I11
I0
tp1329
a(I16
I0
tp1330
asg65
S'p6_2'
p1331
sg66
S'Empire'
p1332
sg68
S"The Empire's elite guard"
p1333
sg70
(lp1334
sg73
(lp1335
(dp1336
g76
Nsg77
Nsg78
Nsg79
(lp1337
sg81
Nsg82
Nsg46
g232
sa(dp1338
g76
Nsg77
Nsg78
Nsg79
(lp1339
sg81
Nsg82
Nsg46
g235
sa(dp1340
g76
Nsg77
Nsg78
Nsg79
(lp1341
sg81
Nsg82
Nsg46
g1236
sasg93
(dp1342
g95
I0
sg96
I0
sg97
I0
ssg98
I01
sg99
I161
sg100
(lp1343
I1
aI41
aI0
aI0
aI0
aI0
aI0
asg102
S'Claw'
p1344
sg104
I2
sg105
I12
sg106
S'M'
sg107
I0
sg108
S'Paladin'
p1345
sg110
I0
sg111
S'enemy'
p1346
sg113
(I19
I10
tp1347
sa(dp1348
g31
S'Pursue'
p1349
sg33
(lp1350
I140
aI50
aI20
aI70
aI50
aI50
aI24
aI50
asg35
I00
sg36
(lp1351
(dp1352
g39
Nsg40
I00
sg41
I00
sg42
I20
sg43
I00
sg44
I162
sg46
S'Mithril Sword'
p1353
sasg50
(lp1354
I80
aI0
aI40
aI40
aI0
aI0
aI88
aI0
asg52
I39
sg53
(lp1355
(I39
I0
tp1356
a(I13
I0
tp1357
a(I5
I0
tp1358
a(I14
I0
tp1359
a(I17
I0
tp1360
a(I6
I0
tp1361
a(I10
I0
tp1362
a(I12
I0
tp1363
a(I11
I0
tp1364
a(I16
I0
tp1365
asg65
S'p8_1'
p1366
sg66
S'Empire'
p1367
sg68
S"The Empire's elite guard"
p1368
sg70
(lp1369
sg73
(lp1370
(dp1371
g76
Nsg77
Nsg78
Nsg79
(lp1372
sg81
Nsg82
Nsg46
g232
sa(dp1373
g76
Nsg77
Nsg78
Nsg79
(lp1374
sg81
Nsg82
Nsg46
g235
sa(dp1375
g76
Nsg77
Nsg78
Nsg79
(lp1376
sg81
Nsg82
Nsg46
g1236
sasg93
(dp1377
g95
I0
sg96
I0
sg97
I0
ssg98
I00
sg99
I162
sg100
(lp1378
I41
aI1
aI0
aI0
aI0
aI0
aI0
asg102
S'Claw'
p1379
sg104
I2
sg105
I13
sg106
S'M'
sg107
I0
sg108
S'Paladin'
p1380
sg110
I0
sg111
S'enemy'
p1381
sg113
(I14
I0
tp1382
sa(dp1383
g31
S'Pursue'
p1384
sg33
(lp1385
I140
aI50
aI20
aI70
aI50
aI50
aI24
aI50
asg35
I00
sg36
(lp1386
(dp1387
g39
Nsg40
I00
sg41
I00
sg42
I20
sg43
I00
sg44
I163
sg46
S'Mithril Lance'
p1388
sasg50
(lp1389
I80
aI0
aI40
aI40
aI0
aI0
aI88
aI0
asg52
I39
sg53
(lp1390
(I39
I0
tp1391
a(I13
I0
tp1392
a(I5
I0
tp1393
a(I14
I0
tp1394
a(I17
I0
tp1395
a(I6
I0
tp1396
a(I10
I0
tp1397
a(I12
I0
tp1398
a(I11
I0
tp1399
a(I16
I0
tp1400
asg65
S'p8_2'
p1401
sg66
S'Empire'
p1402
sg68
S"The Empire's elite guard"
p1403
sg70
(lp1404
sg73
(lp1405
(dp1406
g76
Nsg77
Nsg78
Nsg79
(lp1407
sg81
Nsg82
Nsg46
g232
sa(dp1408
g76
Nsg77
Nsg78
Nsg79
(lp1409
sg81
Nsg82
Nsg46
g235
sa(dp1410
g76
Nsg77
Nsg78
Nsg79
(lp1411
sg81
Nsg82
Nsg46
g1236
sasg93
(dp1412
g95
I0
sg96
I0
sg97
I0
ssg98
I00
sg99
I163
sg100
(lp1413
I1
aI41
aI0
aI0
aI0
aI0
aI0
asg102
S'Claw'
p1414
sg104
I2
sg105
I13
sg106
S'M'
sg107
I0
sg108
S'Paladin'
p1415
sg110
I0
sg111
S'enemy'
p1416
sg113
(I15
I0
tp1417
sa(dp1418
g31
S'Pursue'
p1419
sg33
(lp1420
I140
aI50
aI20
aI70
aI50
aI50
aI24
aI50
asg35
I00
sg36
(lp1421
(dp1422
g39
Nsg40
I00
sg41
I00
sg42
I20
sg43
I00
sg44
I164
sg46
S'Mithril Sword'
p1423
sasg50
(lp1424
I80
aI0
aI40
aI40
aI0
aI0
aI88
aI0
asg52
I39
sg53
(lp1425
(I39
I0
tp1426
a(I13
I0
tp1427
a(I5
I0
tp1428
a(I14
I0
tp1429
a(I17
I0
tp1430
a(I6
I0
tp1431
a(I10
I0
tp1432
a(I12
I0
tp1433
a(I11
I0
tp1434
a(I16
I0
tp1435
asg65
S'p10_1'
p1436
sg66
S'Empire'
p1437
sg68
S"The Empire's elite guard"
p1438
sg70
(lp1439
sg73
(lp1440
(dp1441
g76
Nsg77
Nsg78
Nsg79
(lp1442
sg81
Nsg82
Nsg46
g232
sa(dp1443
g76
Nsg77
Nsg78
Nsg79
(lp1444
sg81
Nsg82
Nsg46
g235
sa(dp1445
g76
Nsg77
Nsg78
Nsg79
(lp1446
sg81
Nsg82
Nsg46
g1236
sasg93
(dp1447
g95
I0
sg96
I0
sg97
I0
ssg98
I00
sg99
I164
sg100
(lp1448
I41
aI1
aI0
aI0
aI0
aI0
aI0
asg102
S'Claw'
p1449
sg104
I2
sg105
I13
sg106
S'M'
sg107
I0
sg108
S'Paladin'
p1450
sg110
I0
sg111
S'enemy'
p1451
sg113
Nsa(dp1452
g31
S'Pursue'
p1453
sg33
(lp1454
I140
aI50
aI20
aI70
aI50
aI50
aI24
aI50
asg35
I00
sg36
(lp1455
(dp1456
g39
Nsg40
I00
sg41
I00
sg42
I20
sg43
I00
sg44
I165
sg46
S'Mithril Lance'
p1457
sasg50
(lp1458
I80
aI0
aI40
aI40
aI0
aI0
aI88
aI0
asg52
I39
sg53
(lp1459
(I39
I0
tp1460
a(I13
I0
tp1461
a(I5
I0
tp1462
a(I14
I0
tp1463
a(I17
I0
tp1464
a(I6
I0
tp1465
a(I10
I0
tp1466
a(I12
I0
tp1467
a(I11
I0
tp1468
a(I16
I0
tp1469
asg65
S'p10_2'
p1470
sg66
S'Empire'
p1471
sg68
S"The Empire's elite guard"
p1472
sg70
(lp1473
sg73
(lp1474
(dp1475
g76
Nsg77
Nsg78
Nsg79
(lp1476
sg81
Nsg82
Nsg46
g232
sa(dp1477
g76
Nsg77
Nsg78
Nsg79
(lp1478
sg81
Nsg82
Nsg46
g235
sa(dp1479
g76
Nsg77
Nsg78
Nsg79
(lp1480
sg81
Nsg82
Nsg46
g1236
sasg93
(dp1481
g95
I0
sg96
I0
sg97
I0
ssg98
I00
sg99
I165
sg100
(lp1482
I1
aI41
aI0
aI0
aI0
aI0
aI0
asg102
S'Claw'
p1483
sg104
I2
sg105
I13
sg106
S'M'
sg107
I0
sg108
S'Paladin'
p1484
sg110
I0
sg111
S'enemy'
p1485
sg113
Nsa(dp1486
g31
S'Pursue'
p1487
sg33
(lp1488
I140
aI50
aI20
aI70
aI50
aI50
aI24
aI50
asg35
I00
sg36
(lp1489
(dp1490
g39
Nsg40
I00
sg41
I00
sg42
I20
sg43
I00
sg44
I166
sg46
S'Mithril Sword'
p1491
sasg50
(lp1492
I20
aI50
aI60
aI10
aI50
aI50
aI12
aI50
asg52
I41
sg53
(lp1493
(I41
I0
tp1494
a(I13
I0
tp1495
a(I5
I0
tp1496
a(I15
I0
tp1497
a(I17
I0
tp1498
a(I6
I0
tp1499
a(I11
I0
tp1500
a(I12
I0
tp1501
a(I11
I0
tp1502
a(I16
I0
tp1503
asg65
S'p12_1'
p1504
sg66
S'Empire'
p1505
sg68
S"The Empire's elite guard"
p1506
sg70
(lp1507
sg73
(lp1508
(dp1509
g76
Nsg77
Nsg78
Nsg79
(lp1510
sg81
Nsg82
Nsg46
g232
sa(dp1511
g76
Nsg77
Nsg78
Nsg79
(lp1512
sg81
Nsg82
Nsg46
g235
sa(dp1513
g76
Nsg77
Nsg78
Nsg79
(lp1514
sg81
Nsg82
Nsg46
g1236
sasg93
(dp1515
g95
I0
sg96
I0
sg97
I0
ssg98
I00
sg99
I166
sg100
(lp1516
I41
aI1
aI0
aI0
aI0
aI0
aI0
asg102
S'Claw'
p1517
sg104
I2
sg105
I14
sg106
S'M'
sg107
I0
sg108
S'Paladin'
p1518
sg110
I0
sg111
S'enemy'
p1519
sg113
Nsa(dp1520
g31
S'Pursue'
p1521
sg33
(lp1522
I140
aI50
aI20
aI70
aI50
aI50
aI24
aI50
asg35
I00
sg36
(lp1523
(dp1524
g39
Nsg40
I00
sg41
I00
sg42
I20
sg43
I00
sg44
I167
sg46
S'Mithril Lance'
p1525
sasg50
(lp1526
I20
aI50
aI60
aI10
aI50
aI50
aI12
aI50
asg52
I41
sg53
(lp1527
(I41
I0
tp1528
a(I13
I0
tp1529
a(I5
I0
tp1530
a(I15
I0
tp1531
a(I17
I0
tp1532
a(I6
I0
tp1533
a(I11
I0
tp1534
a(I12
I0
tp1535
a(I11
I0
tp1536
a(I16
I0
tp1537
asg65
S'p12_2'
p1538
sg66
S'Empire'
p1539
sg68
S"The Empire's elite guard"
p1540
sg70
(lp1541
sg73
(lp1542
(dp1543
g76
Nsg77
Nsg78
Nsg79
(lp1544
sg81
Nsg82
Nsg46
g232
sa(dp1545
g76
Nsg77
Nsg78
Nsg79
(lp1546
sg81
Nsg82
Nsg46
g235
sa(dp1547
g76
Nsg77
Nsg78
Nsg79
(lp1548
sg81
Nsg82
Nsg46
g1236
sasg93
(dp1549
g95
I0
sg96
I0
sg97
I0
ssg98
I00
sg99
I167
sg100
(lp1550
I1
aI41
aI0
aI0
aI0
aI0
aI0
asg102
S'Claw'
p1551
sg104
I2
sg105
I14
sg106
S'M'
sg107
I0
sg108
S'Paladin'
p1552
sg110
I0
sg111
S'enemy'
p1553
sg113
Nsa(dp1554
g31
S'Pursue'
p1555
sg33
(lp1556
I160
aI90
aI20
aI50
aI40
aI30
aI40
aI34
asg35
I00
sg36
(lp1557
(dp1558
g39
Nsg40
I00
sg41
I00
sg42
I29
sg43
I00
sg44
I168
sg46
S'Oak Bow'
p1559
sa(dp1560
g39
Nsg40
I00
sg41
I00
sg42
I18
sg43
I00
sg44
I168
sg46
S'Mithril Axe'
p1561
sasg50
(lp1562
I0
aI0
aI0
aI0
aI0
aI0
aI0
aI40
asg52
I16
sg53
(lp1563
(I44
I0
tp1564
a(I17
I0
tp1565
a(I3
I0
tp1566
a(I10
I0
tp1567
a(I10
I0
tp1568
a(I3
I0
tp1569
a(I9
I0
tp1570
a(I3
I0
tp1571
a(I16
I0
tp1572
a(I12
I0
tp1573
asg65
S'w6_1'
p1574
sg66
S'Empire'
p1575
sg68
S"The Empire's elite guard"
p1576
sg70
(lp1577
sg73
(lp1578
(dp1579
g76
Nsg77
Nsg78
Nsg79
(lp1580
sg81
I20
sg82
Nsg46
S'Cleave'
p1581
sa(dp1582
g76
Nsg77
Nsg78
Nsg79
(lp1583
sg81
I0
sg82
Nsg46
S'Shove'
p1584
sa(dp1585
g76
Nsg77
Nsg78
Nsg79
(lp1586
sg81
Nsg82
Nsg46
S'Heavy Hitter'
p1587
sasg93
(dp1588
g95
I0
sg96
I0
sg97
I0
ssg98
I01
sg99
I168
sg100
(lp1589
I0
aI0
aI41
aI16
aI0
aI0
aI0
asg102
S'Claw'
p1590
sg104
I1
sg105
I11
sg106
S'M'
sg107
I0
sg108
S'Warrior'
p1591
sg110
I0
sg111
S'enemy'
p1592
sg113
(I3
I12
tp1593
sa(dp1594
g31
S'Pursue'
p1595
sg33
(lp1596
I160
aI90
aI20
aI50
aI40
aI30
aI40
aI34
asg35
I00
sg36
(lp1597
(dp1598
g39
Nsg40
I00
sg41
I00
sg42
I29
sg43
I00
sg44
I170
sg46
S'Oak Bow'
p1599
sa(dp1600
g39
Nsg40
I00
sg41
I00
sg42
I20
sg43
I00
sg44
I170
sg46
S'Mithril Axe'
p1601
sasg50
(lp1602
I60
aI90
aI20
aI50
aI40
aI30
aI40
aI74
asg52
g122
(g123
g124
NtRp1603
(dp1604
g127
I0
sg128
I45
sbsg53
(lp1605
(I45
I0
tp1606
a(I17
I0
tp1607
a(I3
I0
tp1608
a(I10
I0
tp1609
a(I10
I0
tp1610
a(I3
I0
tp1611
a(I9
I0
tp1612
a(I3
I0
tp1613
a(I16
I0
tp1614
a(I12
I0
tp1615
asg65
S'w7_1'
p1616
sg66
S'Empire'
p1617
sg68
S"The Empire's elite guard"
p1618
sg70
(lp1619
sg73
(lp1620
(dp1621
g76
Nsg77
Nsg78
Nsg79
(lp1622
sg81
I10
sg82
Nsg46
g1581
sa(dp1623
g76
Nsg77
Nsg78
Nsg79
(lp1624
sg81
I0
sg82
Nsg46
g1584
sa(dp1625
g76
Nsg77
Nsg78
Nsg79
(lp1626
sg81
Nsg82
Nsg46
g1587
sasg93
(dp1627
g95
I0
sg96
I0
sg97
I0
ssg98
I01
sg99
I170
sg100
(lp1628
I0
aI0
aI41
aI16
aI0
aI0
aI0
asg102
S'Claw'
p1629
sg104
I1
sg105
I12
sg106
S'M'
sg107
I0
sg108
S'Warrior'
p1630
sg110
I0
sg111
S'enemy'
p1631
sg113
(I1
I12
tp1632
sa(dp1633
g31
S'Pursue'
p1634
sg33
(lp1635
I160
aI90
aI20
aI50
aI40
aI30
aI40
aI34
asg35
I00
sg36
(lp1636
(dp1637
g39
Nsg40
I00
sg41
I00
sg42
I19
sg43
I00
sg44
I171
sg46
S'Mithril Axe'
p1638
sa(dp1639
g39
Nsg40
I00
sg41
I00
sg42
I30
sg43
I00
sg44
I171
sg46
S'Oak Bow'
p1640
sasg50
(lp1641
I60
aI90
aI20
aI50
aI40
aI30
aI40
aI74
asg52
I21
sg53
(lp1642
(I45
I0
tp1643
a(I17
I0
tp1644
a(I3
I0
tp1645
a(I10
I0
tp1646
a(I10
I0
tp1647
a(I3
I0
tp1648
a(I9
I0
tp1649
a(I3
I0
tp1650
a(I16
I0
tp1651
a(I12
I0
tp1652
asg65
S'w7_2'
p1653
sg66
S'Empire'
p1654
sg68
S"The Empire's elite guard"
p1655
sg70
(lp1656
sg73
(lp1657
(dp1658
g76
Nsg77
Nsg78
Nsg79
(lp1659
sg81
I10
sg82
Nsg46
g1581
sa(dp1660
g76
Nsg77
Nsg78
Nsg79
(lp1661
sg81
I0
sg82
Nsg46
g1584
sa(dp1662
g76
Nsg77
Nsg78
Nsg79
(lp1663
sg81
Nsg82
Nsg46
g1587
sa(dp1664
g76
Nsg77
I2
sg78
Nsg79
(lp1665
sg81
Nsg82
Nsg46
S'Chill'
p1666
sasg93
(dp1667
g95
I0
sg96
I0
sg97
I0
ssg98
I01
sg99
I171
sg100
(lp1668
I0
aI0
aI41
aI16
aI0
aI0
aI0
asg102
S'Claw'
p1669
sg104
I1
sg105
I12
sg106
S'M'
sg107
I0
sg108
S'Warrior'
p1670
sg110
I0
sg111
S'enemy'
p1671
sg113
(I3
I15
tp1672
sa(dp1673
g31
S'Pursue'
p1674
sg33
(lp1675
I160
aI90
aI20
aI50
aI40
aI30
aI40
aI34
asg35
I00
sg36
(lp1676
(dp1677
g39
Nsg40
I00
sg41
I00
sg42
I25
sg43
I00
sg44
I172
sg46
S'Great Axe'
p1678
sa(dp1679
g39
Nsg40
I00
sg41
I00
sg42
I20
sg43
I00
sg44
I172
sg46
S'Yew Bow'
p1680
sasg50
(lp1681
I20
aI80
aI40
aI0
aI80
aI60
aI80
aI8
asg52
I47
sg53
(lp1682
(I47
I0
tp1683
a(I18
I0
tp1684
a(I3
I0
tp1685
a(I11
I0
tp1686
a(I10
I0
tp1687
a(I3
I0
tp1688
a(I9
I0
tp1689
a(I4
I0
tp1690
a(I16
I0
tp1691
a(I12
I0
tp1692
asg65
S'w8_1'
p1693
sg66
S'Empire'
p1694
sg68
S"The Empire's elite guard"
p1695
sg70
(lp1696
sg73
(lp1697
(dp1698
g76
Nsg77
Nsg78
Nsg79
(lp1699
sg81
I0
sg82
Nsg46
g1581
sa(dp1700
g76
Nsg77
Nsg78
Nsg79
(lp1701
sg81
I0
sg82
Nsg46
g1584
sa(dp1702
g76
Nsg77
Nsg78
Nsg79
(lp1703
sg81
Nsg82
Nsg46
g1587
sasg93
(dp1704
g95
I0
sg96
I0
sg97
I0
ssg98
I00
sg99
I172
sg100
(lp1705
I0
aI0
aI41
aI41
aI0
aI0
aI0
asg102
S'Claw'
p1706
sg104
I1
sg105
I13
sg106
S'M'
sg107
I0
sg108
S'Warrior'
p1707
sg110
I0
sg111
S'enemy'
p1708
sg113
Nsa(dp1709
g31
S'Pursue'
p1710
sg33
(lp1711
I160
aI90
aI20
aI50
aI40
aI30
aI40
aI34
asg35
I00
sg36
(lp1712
(dp1713
g39
Nsg40
I00
sg41
I00
sg42
I25
sg43
I00
sg44
I173
sg46
S'Great Axe'
p1714
sa(dp1715
g39
Nsg40
I00
sg41
I00
sg42
I20
sg43
I00
sg44
I173
sg46
S'Yew Bow'
p1716
sasg50
(lp1717
I20
aI80
aI40
aI0
aI80
aI60
aI80
aI8
asg52
I47
sg53
(lp1718
(I47
I0
tp1719
a(I18
I0
tp1720
a(I3
I0
tp1721
a(I11
I0
tp1722
a(I10
I0
tp1723
a(I3
I0
tp1724
a(I9
I0
tp1725
a(I4
I0
tp1726
a(I16
I0
tp1727
a(I12
I0
tp1728
asg65
S'w8_2'
p1729
sg66
S'Empire'
p1730
sg68
S"The Empire's elite guard"
p1731
sg70
(lp1732
sg73
(lp1733
(dp1734
g76
Nsg77
Nsg78
Nsg79
(lp1735
sg81
I0
sg82
Nsg46
g1581
sa(dp1736
g76
Nsg77
Nsg78
Nsg79
(lp1737
sg81
I0
sg82
Nsg46
g1584
sa(dp1738
g76
Nsg77
Nsg78
Nsg79
(lp1739
sg81
Nsg82
Nsg46
g1587
sasg93
(dp1740
g95
I0
sg96
I0
sg97
I0
ssg98
I00
sg99
I173
sg100
(lp1741
I0
aI0
aI41
aI41
aI0
aI0
aI0
asg102
S'Claw'
p1742
sg104
I1
sg105
I13
sg106
S'M'
sg107
I0
sg108
S'Warrior'
p1743
sg110
I0
sg111
S'enemy'
p1744
sg113
Nsa(dp1745
g31
S'Pursue'
p1746
sg33
(lp1747
I160
aI90
aI20
aI50
aI40
aI30
aI40
aI34
asg35
I00
sg36
(lp1748
(dp1749
g39
Nsg40
I00
sg41
I00
sg42
I20
sg43
I00
sg44
I174
sg46
S'Mithril Axe'
p1750
sa(dp1751
g39
Nsg40
I00
sg41
I00
sg42
I20
sg43
I00
sg44
I174
sg46
S'Yew Bow'
p1752
sasg50
(lp1753
I80
aI70
aI60
aI50
aI20
aI90
aI20
aI42
asg52
I48
sg53
(lp1754
(I48
I0
tp1755
a(I19
I0
tp1756
a(I3
I0
tp1757
a(I11
I0
tp1758
a(I11
I0
tp1759
a(I3
I0
tp1760
a(I10
I0
tp1761
a(I4
I0
tp1762
a(I16
I0
tp1763
a(I12
I0
tp1764
asg65
S'w9_1'
p1765
sg66
S'Empire'
p1766
sg68
S"The Empire's elite guard"
p1767
sg70
(lp1768
sg73
(lp1769
(dp1770
g76
Nsg77
Nsg78
Nsg79
(lp1771
sg81
I0
sg82
Nsg46
g1581
sa(dp1772
g76
Nsg77
Nsg78
Nsg79
(lp1773
sg81
I0
sg82
Nsg46
g1584
sa(dp1774
g76
Nsg77
Nsg78
Nsg79
(lp1775
sg81
Nsg82
Nsg46
g1587
sasg93
(dp1776
g95
I0
sg96
I0
sg97
I0
ssg98
I00
sg99
I174
sg100
(lp1777
I0
aI0
aI41
aI41
aI0
aI0
aI0
asg102
S'Claw'
p1778
sg104
I1
sg105
I14
sg106
S'M'
sg107
I0
sg108
S'Warrior'
p1779
sg110
I0
sg111
S'enemy'
p1780
sg113
Nsa(dp1781
g31
S'Pursue'
p1782
sg33
(lp1783
I160
aI90
aI20
aI50
aI40
aI30
aI40
aI34
asg35
I00
sg36
(lp1784
(dp1785
g39
Nsg40
I00
sg41
I00
sg42
I20
sg43
I00
sg44
I175
sg46
S'Mithril Axe'
p1786
sa(dp1787
g39
Nsg40
I00
sg41
I00
sg42
I20
sg43
I00
sg44
I175
sg46
S'Yew Bow'
p1788
sasg50
(lp1789
I80
aI70
aI60
aI50
aI20
aI90
aI20
aI42
asg52
I48
sg53
(lp1790
(I48
I0
tp1791
a(I19
I0
tp1792
a(I3
I0
tp1793
a(I11
I0
tp1794
a(I11
I0
tp1795
a(I3
I0
tp1796
a(I10
I0
tp1797
a(I4
I0
tp1798
a(I16
I0
tp1799
a(I12
I0
tp1800
asg65
S'w9_2'
p1801
sg66
S'Empire'
p1802
sg68
S"The Empire's elite guard"
p1803
sg70
(lp1804
sg73
(lp1805
(dp1806
g76
Nsg77
Nsg78
Nsg79
(lp1807
sg81
I0
sg82
Nsg46
g1581
sa(dp1808
g76
Nsg77
Nsg78
Nsg79
(lp1809
sg81
I0
sg82
Nsg46
g1584
sa(dp1810
g76
Nsg77
Nsg78
Nsg79
(lp1811
sg81
Nsg82
Nsg46
g1587
sasg93
(dp1812
g95
I0
sg96
I0
sg97
I0
ssg98
I00
sg99
I175
sg100
(lp1813
I0
aI0
aI41
aI41
aI0
aI0
aI0
asg102
S'Claw'
p1814
sg104
I1
sg105
I14
sg106
S'M'
sg107
I0
sg108
S'Warrior'
p1815
sg110
I0
sg111
S'enemy'
p1816
sg113
Nsa(dp1817
g31
S'Pursue'
p1818
sg33
(lp1819
I160
aI90
aI20
aI50
aI40
aI30
aI40
aI34
asg35
I00
sg36
(lp1820
(dp1821
g39
Nsg40
I00
sg41
I00
sg42
I20
sg43
I00
sg44
I176
sg46
S'Mithril Axe'
p1822
sa(dp1823
g39
Nsg40
I00
sg41
I00
sg42
I15
sg43
I00
sg44
I176
sg46
S'Oak Longbow'
p1824
sasg50
(lp1825
I40
aI60
aI80
aI0
aI60
aI20
aI60
aI76
asg52
I50
sg53
(lp1826
(I50
I0
tp1827
a(I20
I2
tp1828
a(I3
I0
tp1829
a(I12
I0
tp1830
a(I11
I0
tp1831
a(I4
I0
tp1832
a(I10
I0
tp1833
a(I4
I0
tp1834
a(I16
I0
tp1835
a(I12
I0
tp1836
asg65
S'w10_1'
p1837
sg66
S'Empire'
p1838
sg68
S"The Empire's elite guard"
p1839
sg70
(lp1840
sg73
(lp1841
(dp1842
g76
Nsg77
Nsg78
Nsg79
(lp1843
sg81
I0
sg82
Nsg46
g1581
sa(dp1844
g76
Nsg77
Nsg78
Nsg79
(lp1845
sg81
I0
sg82
Nsg46
g1584
sa(dp1846
g76
Nsg77
Nsg78
Nsg79
(lp1847
sg81
Nsg82
Nsg46
g1587
sa(dp1848
g76
Nsg77
Nsg78
Nsg79
(lp1849
sg81
Nsg82
Nsg46
S'fStrength +2'
p1850
sasg93
(dp1851
g95
I0
sg96
I0
sg97
I0
ssg98
I00
sg99
I176
sg100
(lp1852
I0
aI0
aI41
aI41
aI0
aI0
aI0
asg102
S'Claw'
p1853
sg104
I1
sg105
I15
sg106
S'M'
sg107
I0
sg108
S'Warrior'
p1854
sg110
I0
sg111
S'enemy'
p1855
sg113
Nsa(dp1856
g31
S'Pursue'
p1857
sg33
(lp1858
I160
aI90
aI20
aI50
aI40
aI30
aI40
aI34
asg35
I00
sg36
(lp1859
(dp1860
g39
Nsg40
I00
sg41
I00
sg42
I20
sg43
I00
sg44
I177
sg46
S'Mithril Axe'
p1861
sa(dp1862
g39
Nsg40
I00
sg41
I00
sg42
I15
sg43
I00
sg44
I177
sg46
S'Oak Longbow'
p1863
sasg50
(lp1864
I40
aI60
aI80
aI0
aI60
aI20
aI60
aI76
asg52
I50
sg53
(lp1865
(I50
I0
tp1866
a(I20
I0
tp1867
a(I3
I0
tp1868
a(I12
I3
tp1869
a(I11
I0
tp1870
a(I4
I0
tp1871
a(I10
I0
tp1872
a(I4
I0
tp1873
a(I16
I0
tp1874
a(I12
I0
tp1875
asg65
S'w10_2'
p1876
sg66
S'Empire'
p1877
sg68
S"The Empire's elite guard"
p1878
sg70
(lp1879
sg73
(lp1880
(dp1881
g76
Nsg77
Nsg78
Nsg79
(lp1882
sg81
I0
sg82
Nsg46
g1581
sa(dp1883
g76
Nsg77
Nsg78
Nsg79
(lp1884
sg81
I0
sg82
Nsg46
g1584
sa(dp1885
g76
Nsg77
Nsg78
Nsg79
(lp1886
sg81
Nsg82
Nsg46
g1587
sa(dp1887
g76
Nsg77
Nsg78
Nsg79
(lp1888
sg81
Nsg82
Nsg46
S'fSkill +3'
p1889
sasg93
(dp1890
g95
I0
sg96
I0
sg97
I0
ssg98
I00
sg99
I177
sg100
(lp1891
I0
aI0
aI41
aI41
aI0
aI0
aI0
asg102
S'Claw'
p1892
sg104
I1
sg105
I15
sg106
S'M'
sg107
I0
sg108
S'Warrior'
p1893
sg110
I0
sg111
S'enemy'
p1894
sg113
Nsa(dp1895
g31
S'Pursue'
p1896
sg33
(lp1897
I180
aI100
aI10
aI80
aI60
aI30
aI50
aI30
asg35
I00
sg36
(lp1898
(dp1899
g39
Nsg40
I00
sg41
I00
sg42
I35
sg43
I00
sg44
S'Coyote'
p1900
sg46
S'Hatchet'
p1901
sa(dp1902
g39
Nsg40
I00
sg41
I00
sg42
I20
sg43
I00
sg44
g1900
sg46
S'Mithril Sword'
p1903
sa(dp1904
g39
Nsg40
I00
sg41
I00
sg42
I20
sg43
I00
sg44
g1900
sg46
S'Steel Sword'
p1905
sa(dp1906
g39
Nsg40
I00
sg41
I00
sg42
I2
sg43
I00
sg44
g1900
sg46
S'Potion'
p1907
sa(dp1908
g39
Nsg40
I00
sg41
I00
sg42
I7
sg43
I00
sg44
g1900
sg46
S'Superior Edge'
p1909
sasg50
(lp1910
I80
aI0
aI10
aI80
aI60
aI30
aI50
aI30
asg52
g122
(g123
g124
NtRp1911
(dp1912
g127
I0
sg128
I42
sbsg53
(lp1913
(I42
I0
tp1914
a(I15
I0
tp1915
a(I0
I0
tp1916
a(I19
I0
tp1917
a(I16
I0
tp1918
a(I6
I0
tp1919
a(I11
I0
tp1920
a(I5
I0
tp1921
a(I12
I0
tp1922
a(I12
I0
tp1923
asg65
S'0'
sg66
S'Resistance'
p1924
sg68
S'A troubled wandererer with a mysterious past.'
p1925
sg70
(lp1926
sg73
(lp1927
(dp1928
g76
Nsg77
Nsg78
Nsg79
(lp1929
sg81
Nsg82
Nsg46
S'Initiative'
p1930
sa(dp1931
g76
Nsg77
Nsg78
Nsg79
(lp1932
sg81
Nsg82
Nsg46
S'Resist Status'
p1933
sa(dp1934
g76
Nsg77
Nsg78
Nsg79
(lp1935
sg81
Nsg82
Nsg46
S'Poise'
p1936
sasg93
(dp1937
S'damage'
p1938
I22
sS'kills'
p1939
I1
sS'healing'
p1940
I0
ssg98
I00
sg99
g1900
sg100
(lp1941
I69
aI0
aI1
aI0
aI0
aI0
aI0
asg102
S'Coyote'
p1942
sg104
I1
sg105
I11
sg106
S'M'
sg107
I0
sg108
S'Vanguard'
p1943
sg110
I76
sg111
S'player'
p1944
sg113
(I14
I21
tp1945
sa(dp1946
g31
S'None'
p1947
sg33
(lp1948
I100
aI20
aI50
aI70
aI80
aI80
aI60
aI100
asg35
I00
sg36
(lp1949
(dp1950
g39
Nsg40
I00
sg41
I00
sg42
I19
sg43
I00
sg44
S'Sam'
p1951
sg46
S'Heal'
p1952
sa(dp1953
g39
Nsg40
I00
sg41
I00
sg42
I2
sg43
I00
sg44
g1951
sg46
S'Mend'
p1954
sa(dp1955
g39
Nsg40
I00
sg41
I00
sg42
I9
sg43
I00
sg44
g1951
sg46
S'Shine'
p1956
sa(dp1957
g39
Nsg40
I00
sg41
I00
sg42
I21
sg43
I00
sg44
g1951
sg46
S'Glimmer'
p1958
sa(dp1959
g39
Nsg40
I00
sg41
I00
sg42
I9
sg43
I00
sg44
g1951
sg46
S'Fortune'
p1960
sasg50
(lp1961
I0
aI0
aI50
aI50
aI0
aI0
aI0
aI0
asg52
g122
(g123
g124
NtRp1962
(dp1963
g127
I0
sg128
I35
sbsg53
(lp1964
(I35
I0
tp1965
a(I5
I0
tp1966
a(I15
I0
tp1967
a(I16
I0
tp1968
a(I17
I0
tp1969
a(I14
I0
tp1970
a(I10
I0
tp1971
a(I19
I0
tp1972
a(I10
I0
tp1973
a(I13
I0
tp1974
asg65
S'Sam'
p1975
sg66
S'Resistance'
p1976
sg68
S"The resistance's leader. Ambitious and inquisitive."
p1977
sg70
(lp1978
sg73
(lp1979
(dp1980
g76
Nsg77
Nsg78
Nsg79
(lp1981
sg81
I0
sg82
Nsg46
S'Refresh'
p1982
sa(dp1983
g76
Nsg77
Nsg78
Nsg79
(lp1984
sg81
Nsg82
Nsg46
S'Skill_Aura'
p1985
sa(dp1986
g76
Nsg77
Nsg78
Nsg79
(lp1987
sg81
I90
sg82
Nsg46
S'Rally'
p1988
sasg93
(dp1989
g1938
I2
sg1939
I1
sg1940
I94
ssg98
I00
sg99
g1951
sg100
(lp1990
I0
aI0
aI0
aI0
aI76
aI0
aI0
asg102
S'Sam'
p1991
sg104
I3
sg105
I13
sg106
S'M'
sg107
I0
sg108
S'Strategist'
p1992
sg110
I4
sg111
S'player'
p1993
sg113
(I15
I21
tp1994
sa(dp1995
g31
S'None'
p1996
sg33
(lp1997
I80
aI10
aI100
aI80
aI70
aI50
aI60
aI80
asg35
I00
sg36
(lp1998
(dp1999
g39
Nsg40
I00
sg41
I00
sg42
I4
sg43
I00
sg44
S'Kayla'
p2000
sg46
S'Scathe'
p2001
sa(dp2002
g39
Nsg40
I00
sg41
I00
sg42
I21
sg43
I00
sg44
g2000
sg46
S'Nyx'
p2003
sa(dp2004
g39
Nsg40
I00
sg41
I00
sg42
I1
sg43
I00
sg44
g2000
sg46
S'Vulnerary'
p2005
sa(dp2006
g39
Nsg40
I00
sg41
I00
sg42
I35
sg43
I00
sg44
g2000
sg46
S'Flux'
p2007
sa(dp2008
g39
Nsg40
I00
sg41
I00
sg42
I2
sg43
I00
sg44
g2000
sg46
S'Potion'
p2009
sasg50
(lp2010
I40
aI30
aI0
aI40
aI10
aI50
aI80
aI40
asg52
I30
sg53
(lp2011
(I34
I0
tp2012
a(I2
I0
tp2013
a(I17
I0
tp2014
a(I16
I0
tp2015
a(I16
I0
tp2016
a(I10
I0
tp2017
a(I10
I0
tp2018
a(I15
I0
tp2019
a(I9
I0
tp2020
a(I11
I0
tp2021
asg65
S'Kayla'
p2022
sg66
S'Resistance'
p2023
sg68
S'A scheming diplomat from the Confederacy.'
p2024
sg70
(lp2025
sg73
(lp2026
(dp2027
g76
Nsg77
Nsg78
Nsg79
(lp2028
sg81
Nsg82
Nsg46
S'Hex'
p2029
sa(dp2030
g76
Nsg77
Nsg78
Nsg79
(lp2031
sg81
Nsg82
Nsg46
S'Empowered'
p2032
sa(dp2033
g76
Nsg77
Nsg78
Nsg79
(lp2034
sg81
I16
sg82
Nsg46
S'Gate'
p2035
sasg93
(dp2036
g1938
I108
sg1939
I2
sg1940
I0
ssg98
I00
sg99
g2000
sg100
(lp2037
I0
aI0
aI0
aI0
aI0
aI0
aI77
asg102
S'Kayla'
p2038
sg104
I3
sg105
I12
sg106
S'F'
sg107
I0
sg108
S'Warlock'
p2039
sg110
I44
sg111
S'player'
p2040
sg113
(I3
I16
tp2041
sa(dp2042
g31
S'None'
p2043
sg33
(lp2044
I110
aI100
aI30
aI110
aI120
aI90
aI60
aI50
asg35
I00
sg36
(lp2045
(dp2046
g39
Nsg40
I00
sg41
I00
sg42
I5
sg43
I00
sg44
S'Eliza'
p2047
sg46
S'Short Spear'
p2048
sa(dp2049
g39
Nsg40
I00
sg41
I00
sg42
I11
sg43
I00
sg44
g2047
sg46
S'Iron Lance'
p2050
sa(dp2051
g39
Nsg40
I00
sg41
I00
sg42
I9
sg43
I00
sg44
g2047
sg46
S'Hatchet'
p2052
sa(dp2053
g39
Nsg40
I00
sg41
I00
sg42
I10
sg43
I00
sg44
g2047
sg46
S'Axereaver'
p2054
sa(dp2055
g39
Nsg40
I00
sg41
I00
sg42
I3
sg43
I00
sg44
g2047
sg46
S'Elixir'
p2056
sasg50
(lp2057
I0
aI0
aI0
aI0
aI0
aI0
aI0
aI0
asg52
g122
(g123
g124
NtRp2058
(dp2059
g127
I5
sg128
I32
sbsg53
(lp2060
(I32
I5
tp2061
a(I17
I0
tp2062
a(I4
I0
tp2063
a(I19
I0
tp2064
a(I23
I0
tp2065
a(I18
I0
tp2066
a(I13
I2
tp2067
a(I10
I0
tp2068
a(I12
I0
tp2069
a(I11
I0
tp2070
asg65
S'0'
sg66
S'Resistance'
p2071
sg68
S'A moody but hopeful soldier.'
p2072
sg70
(lp2073
sg73
(lp2074
(dp2075
g76
Nsg77
Nsg78
Nsg79
(lp2076
sg81
Nsg82
Nsg46
S'Synergy'
p2077
sa(dp2078
g76
Nsg77
Nsg78
Nsg79
(lp2079
sg81
Nsg82
Nsg46
S'fMaximum HP +5'
p2080
sa(dp2081
g76
Nsg77
Nsg78
Nsg79
(lp2082
sg81
Nsg82
Nsg46
S'fDefense +2'
p2083
sasg93
(dp2084
g1938
I181
sg1939
I2
sg1940
I0
ssg98
I00
sg99
g2047
sg100
(lp2085
I0
aI65
aI2
aI0
aI0
aI0
aI0
asg102
S'Eliza'
p2086
sg104
I2
sg105
I12
sg106
S'F'
sg107
I0
sg108
S'Halberdier'
p2087
sg110
I68
sg111
S'player'
p2088
sg113
(I19
I21
tp2089
sa(dp2090
g31
S'None'
p2091
sg33
(lp2092
I160
aI80
aI50
aI110
aI120
aI120
aI50
aI60
asg35
I00
sg36
(lp2093
(dp2094
g39
Nsg40
I00
sg41
I00
sg42
I12
sg43
I00
sg44
S'Ophie'
p2095
sg46
S'Iron Sword'
p2096
sa(dp2097
g39
Nsg40
I00
sg41
I00
sg42
I25
sg43
I00
sg44
g2095
sg46
S'Great Sword'
p2098
sa(dp2099
g39
Nsg40
I00
sg41
I00
sg42
I17
sg43
I00
sg44
g2095
sg46
S'Mithril Sword'
p2100
sa(dp2101
g39
Nsg40
I00
sg41
I00
sg42
I15
sg43
I00
sg44
g2095
sg46
S'Levin Sword'
p2102
sa(dp2103
g39
Nsg40
I00
sg41
I00
sg42
I8
sg43
I00
sg44
g2095
sg46
S'Lancereaver'
p2104
sasg50
(lp2105
I60
aI80
aI50
aI10
aI20
aI20
aI50
aI60
asg52
g122
(g123
g124
NtRp2106
(dp2107
g127
I0
sg128
I40
sbsg53
(lp2108
(I40
I0
tp2109
a(I15
I2
tp2110
a(I8
I0
tp2111
a(I20
I0
tp2112
a(I22
I0
tp2113
a(I16
I0
tp2114
a(I10
I0
tp2115
a(I8
I0
tp2116
a(I9
I0
tp2117
a(I13
I0
tp2118
asg65
S'Ophie'
p2119
sg66
S'Resistance'
p2120
sg68
S'A strong-hearted renegade who often acts before he thinks.'
p2121
sg70
(lp2122
S'Lord'
p2123
asg73
(lp2124
(dp2125
g76
Nsg77
Nsg78
Nsg79
(lp2126
sg81
Nsg82
Nsg46
S'Riposte'
p2127
sa(dp2128
g76
Nsg77
Nsg78
Nsg79
(lp2129
sg81
Nsg82
Nsg46
S'Vantage'
p2130
sa(dp2131
g76
Nsg77
Nsg78
Nsg79
(lp2132
sg81
Nsg82
Nsg46
S'fStrength +2'
p2133
sa(dp2134
g76
Nsg77
Nsg78
Nsg79
(lp2135
sg81
I20
sg82
Nsg46
S'Critical'
p2136
sasg93
(dp2137
g1938
I104
sg1939
I3
sg1940
I0
ssg98
I00
sg99
g2095
sg100
(lp2138
I75
aI0
aI0
aI0
aI0
aI0
aI0
asg102
S'Ophie'
p2139
sg104
I0
sg105
I13
sg106
S'M'
sg107
I0
sg108
S'Swordmaster'
p2140
sg110
I81
sg111
S'player'
p2141
sg113
(I0
I13
tp2142
sa(dp2143
g31
S'None'
p2144
sg33
(lp2145
I100
aI20
aI100
aI60
aI80
aI120
aI35
aI120
asg35
I00
sg36
(lp2146
(dp2147
g39
Nsg40
I00
sg41
I00
sg42
I9
sg43
I00
sg44
S'Prim'
p2148
sg46
S'Physic'
p2149
sa(dp2150
g39
Nsg40
I00
sg41
I00
sg42
I7
sg43
I00
sg44
g2148
sg46
S'Mend'
p2151
sa(dp2152
g39
Nsg40
I00
sg41
I00
sg42
I20
sg43
I00
sg44
g2148
sg46
S'Flux'
p2153
sa(dp2154
g39
Nsg40
I00
sg41
I00
sg42
I10
sg43
I00
sg44
g2148
sg46
S'Restore'
p2155
sa(dp2156
g39
Nsg40
I00
sg41
I00
sg42
I15
sg43
I00
sg44
g2148
sg46
S'Shine'
p2157
sasg50
(lp2158
I0
aI0
aI0
aI0
aI0
aI0
aI50
aI0
asg52
I12
sg53
(lp2159
(I30
I0
tp2160
a(I2
I0
tp2161
a(I15
I0
tp2162
a(I13
I0
tp2163
a(I17
I0
tp2164
a(I18
I0
tp2165
a(I7
I0
tp2166
a(I20
I0
tp2167
a(I6
I0
tp2168
a(I13
I0
tp2169
asg65
S'Prim'
p2170
sg66
S'Resistance'
p2171
sg68
S'A shy but kind-hearted young woman. Has an affinity with the spiritual.'
p2172
sg70
(lp2173
sg73
(lp2174
(dp2175
g76
Nsg77
Nsg78
Nsg79
(lp2176
sg81
Nsg82
Nsg46
S'Healtouch'
p2177
sa(dp2178
g76
I1
sg77
Nsg78
Nsg79
(lp2179
sg81
Nsg82
Nsg46
S'Miracle'
p2180
sa(dp2181
g76
Nsg77
Nsg78
Nsg79
(lp2182
sg81
Nsg82
Nsg46
S'Futuresight'
p2183
sasg93
(dp2184
g1938
I22
sg1939
I0
sg1940
I66
ssg98
I00
sg99
g2148
sg100
(lp2185
I0
aI0
aI0
aI0
aI74
aI0
aI3
asg102
S'Prim'
p2186
sg104
I3
sg105
I12
sg106
S'F'
sg107
I0
sg108
S'Oracle'
p2187
sg110
I55
sg111
S'player'
p2188
sg113
(I15
I20
tp2189
sa(dp2190
g31
S'None'
p2191
sg33
(lp2192
I160
aI120
aI10
aI90
aI80
aI70
aI50
aI30
asg35
I00
sg36
(lp2193
(dp2194
g39
Nsg40
I00
sg41
I00
sg42
I17
sg43
I00
sg44
S'Joel'
p2195
sg46
S'Mithril Axe'
p2196
sa(dp2197
g39
Nsg40
I00
sg41
I00
sg42
I10
sg43
I00
sg44
g2195
sg46
S'Swordreaver'
p2198
sa(dp2199
g39
Nsg40
I00
sg41
I00
sg42
I25
sg43
I00
sg44
g2195
sg46
S'Great Axe'
p2200
sa(dp2201
g39
Nsg40
I00
sg41
I00
sg42
I16
sg43
I00
sg44
g2195
sg46
S'Hand Axe'
p2202
sa(dp2203
g39
Nsg40
I00
sg41
I00
sg42
I3
sg43
I00
sg44
g2195
sg46
S'Elixir'
p2204
sasg50
(lp2205
I40
aI80
aI90
aI10
aI20
aI30
aI50
aI70
asg52
g122
(g123
g124
NtRp2206
(dp2207
g127
I0
sg128
I48
sbsg53
(lp2208
(I48
I0
tp2209
a(I19
I0
tp2210
a(I0
I0
tp2211
a(I15
I0
tp2212
a(I13
I0
tp2213
a(I10
I0
tp2214
a(I12
I0
tp2215
a(I5
I0
tp2216
a(I16
I0
tp2217
a(I12
I0
tp2218
asg65
S'0'
sg66
S'Resistance'
p2219
sg68
S'A jovial former sailor. Always ready for a new adventure.'
p2220
sg70
(lp2221
sg73
(lp2222
(dp2223
g76
Nsg77
Nsg78
Nsg79
(lp2224
sg81
I20
sg82
Nsg46
S'Cleave'
p2225
sa(dp2226
g76
Nsg77
Nsg78
Nsg79
(lp2227
sg81
I0
sg82
Nsg46
S'Shove'
p2228
sa(dp2229
g76
Nsg77
Nsg78
Nsg79
(lp2230
sg81
Nsg82
Nsg46
S'Heavy Hitter'
p2231
sasg93
(dp2232
g1938
I141
sg1939
I4
sg1940
I0
ssg98
I00
sg99
g2195
sg100
(lp2233
I0
aI0
aI80
aI3
aI0
aI0
aI0
asg102
S'Joel'
p2234
sg104
I1
sg105
I13
sg106
S'M'
sg107
I0
sg108
S'Warrior'
p2235
sg110
I69
sg111
S'player'
p2236
sg113
(I16
I22
tp2237
sa(dp2238
g31
S'None'
p2239
sg33
(lp2240
I120
aI80
aI50
aI100
aI120
aI60
aI30
aI60
asg35
I00
sg36
(lp2241
(dp2242
g39
Nsg40
I00
sg41
I00
sg42
I14
sg43
I00
sg44
S'Nia'
p2243
sg46
S'Oak Bow'
p2244
sa(dp2245
g39
Nsg40
I00
sg41
I00
sg42
I19
sg43
I00
sg44
g2243
sg46
S'Yew Bow'
p2246
sa(dp2247
g39
Nsg40
I00
sg41
I00
sg42
I12
sg43
I00
sg44
g2243
sg46
S'Longbow'
p2248
sa(dp2249
g39
Nsg40
I00
sg41
I00
sg42
I21
sg43
I00
sg44
g2243
sg46
S'Great Bow'
p2250
sa(dp2251
g39
Nsg40
I00
sg41
I00
sg42
I1
sg43
I00
sg44
g2243
sg46
S'Vulnerary'
p2252
sasg50
(lp2253
I0
aI0
aI0
aI0
aI0
aI0
aI0
aI0
asg52
g122
(g123
g124
NtRp2254
(dp2255
g127
I0
sg128
I35
sbsg53
(lp2256
(I35
I0
tp2257
a(I17
I0
tp2258
a(I9
I0
tp2259
a(I19
I0
tp2260
a(I22
I0
tp2261
a(I11
I0
tp2262
a(I8
I0
tp2263
a(I11
I0
tp2264
a(I9
I0
tp2265
a(I12
I0
tp2266
asg65
S'0'
sg66
S'Resistance'
p2267
sg68
S'A quiet archer most at home in the wilderness.'
p2268
sg70
(lp2269
sg73
(lp2270
(dp2271
g76
Nsg77
Nsg78
Nsg79
(lp2272
sg81
Nsg82
Nsg46
S'Prescience'
p2273
sa(dp2274
g76
Nsg77
Nsg78
Nsg79
(lp2275
sg81
I21
sg82
Nsg46
S'Critical'
p2276
sa(dp2277
g76
Nsg77
Nsg78
Nsg79
(lp2278
sg81
Nsg82
Nsg46
S'Evasion'
p2279
sasg93
(dp2280
g1938
I103
sg1939
I4
sg1940
I0
ssg98
I00
sg99
g2243
sg100
(lp2281
I0
aI0
aI0
aI84
aI0
aI0
aI0
asg102
S'Nia'
p2282
sg104
I0
sg105
I14
sg106
S'F'
sg107
I0
sg108
S'Sniper'
p2283
sg110
I6
sg111
S'player'
p2284
sg113
(I10
I21
tp2285
sa(dp2286
g31
S'None'
p2287
sg33
(lp2288
I90
aI20
aI130
aI60
aI90
aI90
aI30
aI80
asg35
I00
sg36
(lp2289
(dp2290
g39
Nsg40
I00
sg41
I00
sg42
I19
sg43
I00
sg44
S'Althea'
p2291
sg46
S'Earth'
p2292
sa(dp2293
g39
Nsg40
I00
sg41
I00
sg42
I7
sg43
I00
sg44
g2291
sg46
S'Fire'
p2294
sa(dp2295
g39
Nsg40
I00
sg41
I00
sg42
I6
sg43
I00
sg44
g2291
sg46
S'Wind'
p2296
sa(dp2297
g39
Nsg40
I00
sg41
I00
sg42
I9
sg43
I00
sg44
g2291
sg46
S'Water'
p2298
sa(dp2299
g39
Nsg40
I00
sg41
I00
sg42
I1
sg43
I00
sg44
g2291
sg46
g2252
sasg50
(lp2300
I0
aI0
aI0
aI0
aI0
aI0
aI0
aI0
asg52
g122
(g123
g124
NtRp2301
(dp2302
g127
I5
sg128
I29
sbsg53
(lp2303
(I29
I5
tp2304
a(I3
I0
tp2305
a(I21
I0
tp2306
a(I13
I0
tp2307
a(I16
I-2
tp2308
a(I17
I0
tp2309
a(I9
I2
tp2310
a(I16
I0
tp2311
a(I6
I0
tp2312
a(I12
I0
tp2313
asg65
S'0'
sg66
S'Resistance'
p2314
sg68
S'A forthright but elegant and refined sorceress.'
p2315
sg70
(lp2316
sg73
(lp2317
(dp2318
g76
Nsg77
Nsg78
Nsg79
(lp2319
sg81
Nsg82
Nsg46
S'Focus'
p2320
sa(dp2321
g76
Nsg77
Nsg78
Nsg79
(lp2322
sg81
Nsg82
Nsg46
S'fMaximum HP +5'
p2323
sa(dp2324
g76
Nsg77
Nsg78
Nsg79
(lp2325
sg81
Nsg82
Nsg46
S'Conductance'
p2326
sa(dp2327
g76
Nsg77
Nsg78
Nsg79
(lp2328
sg81
Nsg82
Nsg46
S'Speed -2'
p2329
sa(dp2330
g76
Nsg77
Nsg78
Nsg79
(lp2331
sg81
Nsg82
Nsg46
S'Defense +2'
p2332
sasg93
(dp2333
g1938
I116
sg1939
I2
sg1940
I0
ssg98
I00
sg99
g2291
sg100
(lp2334
I0
aI0
aI0
aI0
aI0
aI69
aI0
asg102
S'Althea'
p2335
sg104
I3
sg105
I13
sg106
S'F'
sg107
I0
sg108
S'Sage'
p2336
sg110
I22
sg111
S'player'
p2337
sg113
(I14
I14
tp2338
sa(dp2339
g31
S'None'
p2340
sg33
(lp2341
I140
aI100
aI10
aI90
aI90
aI60
aI80
aI60
asg35
I00
sg36
(lp2342
(dp2343
g39
Nsg40
I00
sg41
I00
sg42
I13
sg43
I00
sg44
S'Drake'
p2344
sg46
S'Short Spear'
p2345
sa(dp2346
g39
Nsg40
I00
sg41
I00
sg42
I5
sg43
I00
sg44
g2344
sg46
S'Iron Knife'
p2347
sa(dp2348
g39
Nsg40
I00
sg41
I00
sg42
I23
sg43
I00
sg44
g2344
sg46
S'Iron Lance'
p2349
sa(dp2350
g39
Nsg40
I00
sg41
I00
sg42
I23
sg43
I00
sg44
g2344
sg46
S'Great Lance'
p2351
sa(dp2352
g39
Nsg40
I00
sg41
I00
sg42
I2
sg43
I00
sg44
g2344
sg46
S'Vulnerary'
p2353
sasg50
(lp2354
I80
aI0
aI70
aI30
aI30
aI20
aI60
aI20
asg52
I19
sg53
(lp2355
(I37
I0
tp2356
a(I17
I0
tp2357
a(I1
I0
tp2358
a(I16
I0
tp2359
a(I15
I0
tp2360
a(I14
I0
tp2361
a(I14
I0
tp2362
a(I9
I0
tp2363
a(I13
I0
tp2364
a(I16
I0
tp2365
asg65
S'0'
sg66
S'Resistance'
p2366
sg68
S"A disgraced Imperial knight now in Althea's service."
p2367
sg70
(lp2368
sg73
(lp2369
(dp2370
g76
Nsg77
Nsg78
Nsg79
(lp2371
sg81
Nsg82
Nsg46
S'Canto'
p2372
sa(dp2373
g76
Nsg77
Nsg78
Nsg79
(lp2374
sg81
Nsg82
Nsg46
S'Savior'
p2375
sa(dp2376
g76
Nsg77
Nsg78
Nsg79
(lp2377
sg81
Nsg82
Nsg46
S'Charisma'
p2378
sasg93
(dp2379
g1938
I84
sg1939
I3
sg1940
I0
ssg98
I00
sg99
g2344
sg100
(lp2380
I23
aI59
aI0
aI0
aI0
aI0
aI0
asg102
S'Drake'
p2381
sg104
I2
sg105
I13
sg106
S'M'
sg107
I0
sg108
S'Paladin'
p2382
sg110
I31
sg111
S'player'
p2383
sg113
(I15
I22
tp2384
sa(dp2385
g31
S'None'
p2386
sg33
(lp2387
I140
aI60
aI30
aI80
aI140
aI100
aI50
aI40
asg35
I00
sg36
(lp2388
(dp2389
g39
Nsg40
I00
sg41
I00
sg42
I25
sg43
I00
sg44
S'Renae'
p2390
sg46
S'Steel Sword'
p2391
sa(dp2392
g39
Nsg40
I00
sg41
I00
sg42
I22
sg43
I00
sg44
g2390
sg46
S'Iron Sword'
p2393
sa(dp2394
g39
Nsg40
I00
sg41
I00
sg42
I6
sg43
I00
sg44
g2390
sg46
S'Steel Knife'
p2395
sa(dp2396
g39
Nsg40
I00
sg41
I00
sg42
I1
sg43
I00
sg44
g2390
sg46
S'Vulnerary'
p2397
sa(dp2398
g39
Nsg40
I00
sg41
I00
sg42
Nsg43
I00
sg44
g2390
sg46
S"Prim's Charm"
p2399
sasg50
(lp2400
I0
aI0
aI50
aI0
aI0
aI0
aI50
aI0
asg52
g122
(g123
g124
NtRp2401
(dp2402
g127
I0
sg128
I27
sbsg53
(lp2403
(I27
I0
tp2404
a(I8
I0
tp2405
a(I5
I0
tp2406
a(I12
I0
tp2407
a(I20
I0
tp2408
a(I10
I0
tp2409
a(I6
I0
tp2410
a(I3
I0
tp2411
a(I6
I0
tp2412
a(I11
I0
tp2413
asg65
S'0'
sg66
S'Kerala'
p2414
sg68
S'An energetic thief with a kleptomanic streak.'
p2415
sg70
(lp2416
sg73
(lp2417
(dp2418
g76
Nsg77
Nsg78
Nsg79
(lp2419
sg81
Nsg82
Nsg46
S'Locktouch'
p2420
sa(dp2421
g76
Nsg77
Nsg78
Nsg79
(lp2422
sg81
Nsg82
Nsg46
S'Steal'
p2423
sa(dp2424
g76
Nsg77
Nsg78
Nsg79
(lp2425
sg81
Nsg82
Nsg46
S'Underdog'
p2426
sasg93
(dp2427
g1938
I4
sg1939
I0
sg1940
I0
ssg98
I00
sg99
g2390
sg100
(lp2428
I39
aI0
aI0
aI0
aI0
aI0
aI0
asg102
S'Renae'
p2429
sg104
I0
sg105
I9
sg106
S'F'
sg107
I0
sg108
S'Thief'
p2430
sg110
I93
sg111
S'player'
p2431
sg113
(I11
I20
tp2432
sa(dp2433
g31
S'None'
p2434
sg33
(lp2435
I180
aI80
aI40
aI60
aI60
aI70
aI110
aI60
asg35
I00
sg36
(lp2436
(dp2437
g39
Nsg40
I00
sg41
I00
sg42
I4
sg43
I00
sg44
S'Theo'
p2438
sg46
S'Mithril Lance'
p2439
sa(dp2440
g39
Nsg40
I00
sg41
I00
sg42
I5
sg43
I00
sg44
g2438
sg46
S'Javelin'
p2441
sa(dp2442
g39
Nsg40
I00
sg41
I00
sg42
I24
sg43
I00
sg44
g2438
sg46
S'Great Lance'
p2443
sa(dp2444
g39
Nsg40
I00
sg41
I00
sg42
I23
sg43
I00
sg44
g2438
sg46
S'Steel Lance'
p2445
sa(dp2446
g39
Nsg40
I00
sg41
I00
sg42
I2
sg43
I00
sg44
g2438
sg46
g2252
sasg50
(lp2447
I60
aI60
aI80
aI20
aI20
aI90
aI70
aI20
asg52
g122
(g123
g124
NtRp2448
(dp2449
g127
I0
sg128
I43
sbsg53
(lp2450
(I43
I0
tp2451
a(I20
I0
tp2452
a(I2
I0
tp2453
a(I16
I0
tp2454
a(I12
I0
tp2455
a(I8
I0
tp2456
a(I21
I0
tp2457
a(I10
I0
tp2458
a(I15
I0
tp2459
a(I11
I0
tp2460
asg65
S'0'
sg66
S'Resistance'
p2461
sg68
S'An avid scholar. Interested in esoteric philosophy.'
p2462
sg70
(lp2463
sg73
(lp2464
(dp2465
g76
Nsg77
Nsg78
Nsg79
(lp2466
I110
aI112
aI124
aI113
aI106
asg81
Nsg82
Nsg46
S'Provoke'
p2467
sa(dp2468
g76
Nsg77
Nsg78
Nsg79
(lp2469
sg81
I0
sg82
Nsg46
S'Shove'
p2470
sa(dp2471
g76
Nsg77
Nsg78
Nsg79
(lp2472
sg81
Nsg82
Nsg46
S'Slow'
p2473
sasg93
(dp2474
g1938
I167
sg1939
I4
sg1940
I0
ssg98
I00
sg99
g2438
sg100
(lp2475
I1
aI60
aI0
aI0
aI0
aI0
aI0
asg102
S'Theo'
p2476
sg104
I2
sg105
I12
sg106
S'M'
sg107
I0
sg108
S'General'
p2477
sg110
I37
sg111
S'player'
p2478
sg113
(I17
I21
tp2479
sasS'statistics'
p2480
(lp2481
g122
(cCode.CustomObjects
LevelStatistic
p2482
g124
NtRp2483
(dp2484
S'turncount'
p2485
I1
sg53
(dp2486
g2139
(dp2487
S'damage'
p2488
I0
sS'kills'
p2489
I0
sS'healing'
p2490
I0
ssg2186
(dp2491
g2488
I0
sg2489
I0
sg2490
I0
sssg102
S'Prologue'
p2492
sbag122
(g2482
g124
NtRp2493
(dp2494
g2485
I7
sg53
(dp2495
g2139
(dp2496
g2488
I44
sg2489
I6
sg2490
I0
ssg2234
(dp2497
S'damage'
p2498
I93
sS'kills'
p2499
I3
sS'healing'
p2500
I0
ssg2282
(dp2501
g2498
I69
sg2499
I2
sg2500
I0
ssg2186
(dp2502
g2488
I64
sg2489
I0
sg2490
I40
sssg102
S'Chapter I'
p2503
sbag122
(g2482
g124
NtRp2504
(dp2505
g2485
I10
sg53
(dp2506
g2335
(dp2507
S'damage'
p2508
I27
sS'kills'
p2509
I3
sS'healing'
p2510
I0
ssg2186
(dp2511
g2498
I85
sg2499
I0
sg2500
I78
ssg2234
(dp2512
g2498
I58
sg2499
I4
sg2500
I0
ssg2282
(dp2513
g2498
I93
sg2499
I3
sg2500
I0
ssg2381
(dp2514
g2508
I54
sg2509
I1
sg2510
I0
ssg2139
(dp2515
g2498
I65
sg2499
I4
sg2500
I0
sssg102
S'Chapter II'
p2516
sbag122
(g2482
g124
NtRp2517
(dp2518
g2485
I17
sg53
(dp2519
g2476
(dp2520
S'damage'
p2521
I0
sS'kills'
p2522
I0
sS'healing'
p2523
I0
ssg2335
(dp2524
g2521
I0
sg2522
I0
sg2523
I0
ssg2186
(dp2525
g2521
I0
sg2522
I0
sg2523
I0
ssg2234
(dp2526
g2521
I0
sg2522
I0
sg2523
I0
ssg2282
(dp2527
g2521
I0
sg2522
I0
sg2523
I0
ssg2429
(dp2528
g2521
I0
sg2522
I0
sg2523
I0
ssg2381
(dp2529
g2521
I0
sg2522
I0
sg2523
I0
ssg2139
(dp2530
g2521
I0
sg2522
I0
sg2523
I0
sssg102
S'Chapter III'
p2531
sbag122
(g2482
g124
NtRp2532
(dp2533
g2485
I9
sg53
(dp2534
g2476
(dp2535
g2521
I69
sg2522
I4
sg2523
I0
ssg2335
(dp2536
g2521
I106
sg2522
I6
sg2523
I0
ssg2186
(dp2537
g2521
I21
sg2522
I3
sg2523
I116
ssg2086
(dp2538
S'damage'
p2539
I63
sS'kills'
p2540
I4
sS'healing'
p2541
I0
ssg2282
(dp2542
g2521
I89
sg2522
I4
sg2523
I0
ssg2429
(dp2543
g2521
I20
sg2522
I0
sg2523
I0
ssg2381
(dp2544
g2521
I98
sg2522
I3
sg2523
I0
ssg2139
(dp2545
g2521
I119
sg2522
I7
sg2523
I0
ssg2234
(dp2546
g2521
I182
sg2522
I5
sg2523
I0
sssg102
S'Chapter IV'
p2547
sbag122
(g2482
g124
NtRp2548
(dp2549
g2485
I12
sg53
(dp2550
g2476
(dp2551
S'damage'
p2552
I0
sS'kills'
p2553
I0
sS'healing'
p2554
I0
ssg2335
(dp2555
g2552
I177
sg2553
I7
sg2554
I0
ssg2186
(dp2556
g2552
I33
sg2553
I2
sg2554
I147
ssg1991
(dp2557
g2552
I41
sg2553
I1
sg2554
I36
ssg2086
(dp2558
g2552
I48
sg2553
I3
sg2554
I0
ssg2282
(dp2559
g2552
I65
sg2553
I2
sg2554
I0
ssg2429
(dp2560
g2552
I64
sg2553
I3
sg2554
I0
ssg2381
(dp2561
g2552
I38
sg2553
I1
sg2554
I0
ssg2038
(dp2562
g2552
I20
sg2553
I2
sg2554
I0
ssg2139
(dp2563
g2552
I104
sg2553
I3
sg2554
I0
ssg2234
(dp2564
g2552
I107
sg2553
I4
sg2554
I0
sssg102
S'Chapter V'
p2565
sbag122
(g2482
g124
NtRp2566
(dp2567
g2485
I17
sg53
(dp2568
g2476
(dp2569
S'damage'
p2570
I115
sS'kills'
p2571
I6
sS'healing'
p2572
I0
ssg2335
(dp2573
g2570
I260
sg2571
I7
sg2572
I0
ssg2186
(dp2574
g2570
I43
sg2571
I2
sg2572
I126
ssg1991
(dp2575
g2570
I62
sg2571
I3
sg2572
I158
ssg2086
(dp2576
g2570
I278
sg2571
I7
sg2572
I0
ssg2282
(dp2577
g2570
I230
sg2571
I10
sg2572
I0
ssg2429
(dp2578
g2570
I23
sg2571
I1
sg2572
I0
ssg2381
(dp2579
g2570
I142
sg2571
I5
sg2572
I0
ssg2038
(dp2580
g2570
I179
sg2571
I5
sg2572
I0
ssg1942
(dp2581
S'damage'
p2582
I39
sS'kills'
p2583
I3
sS'healing'
p2584
I0
ssg2139
(dp2585
g2570
I171
sg2571
I8
sg2572
I0
ssg2234
(dp2586
g2570
I169
sg2571
I5
sg2572
I0
sssg102
S'Chapter VI'
p2587
sbag122
(g2482
g124
NtRp2588
(dp2589
g2485
I13
sg53
(dp2590
g2476
(dp2591
S'damage'
p2592
I85
sS'kills'
p2593
I6
sS'healing'
p2594
I0
ssg2335
(dp2595
g2592
I181
sg2593
I5
sg2594
I0
ssg2186
(dp2596
g2592
I45
sg2593
I3
sg2594
I107
ssg1991
(dp2597
g2592
I57
sg2593
I4
sg2594
I101
ssg2086
(dp2598
g2592
I182
sg2593
I5
sg2594
I0
ssg2282
(dp2599
g2592
I225
sg2593
I5
sg2594
I0
ssg2429
(dp2600
g2592
I31
sg2593
I5
sg2594
I0
ssg2381
(dp2601
g2592
I149
sg2593
I4
sg2594
I0
ssg2038
(dp2602
g2592
I169
sg2593
I2
sg2594
I0
ssg1942
(dp2603
g2592
I181
sg2593
I4
sg2594
I0
ssg2139
(dp2604
g2592
I177
sg2593
I7
sg2594
I0
ssg2234
(dp2605
g2592
I289
sg2593
I5
sg2594
I0
sssg102
S'Chapter VII'
p2606
sbasS'convoy'
p2607
(lp2608
(dp2609
g39
Nsg40
I00
sg41
I00
sg42
I3
sg43
I00
sg44
I0
sg46
S'Herbs'
p2610
sa(dp2611
g39
Nsg40
I00
sg41
I00
sg42
I2
sg43
I00
sg44
I0
sg46
S'Spiritbane'
p2612
sa(dp2613
g39
Nsg40
I00
sg41
I00
sg42
I1
sg43
I00
sg44
I0
sg46
S'Secret Book'
p2614
sa(dp2615
g39
Nsg40
I00
sg41
I00
sg42
I1
sg43
I00
sg44
I0
sg46
S'Angelic Robe'
p2616
sa(dp2617
g39
Nsg40
I00
sg41
I00
sg42
I1
sg43
I00
sg44
I0
sg46
S'Vulnerary'
p2618
sa(dp2619
g39
Nsg40
I00
sg41
I00
sg42
I1
sg43
I00
sg44
I0
sg46
S'Mana Ring'
p2620
sa(dp2621
g39
Nsg40
I00
sg41
I00
sg42
I10
sg43
I00
sg44
I0
sg46
S'Windwall'
p2622
sa(dp2623
g39
Nsg40
I00
sg41
I00
sg42
I1
sg43
I00
sg44
I0
sg46
S'Talisman'
p2624
sa(dp2625
g39
Nsg40
I00
sg41
I00
sg42
I1
sg43
I00
sg44
I0
sg46
S'Speedwings'
p2626
sa(dp2627
g39
Nsg40
I00
sg41
I00
sg42
I9
sg43
I00
sg44
I0
sg46
S'Fly'
p2628
sa(dp2629
g39
Nsg40
I00
sg41
I00
sg42
I1
sg43
I00
sg44
I0
sg46
S'Energy Ring'
p2630
sa(dp2631
g39
Nsg40
I00
sg41
I00
sg42
I3
sg43
I00
sg44
I0
sg46
S'Barkskin'
p2632
sa(dp2633
g39
Nsg40
I00
sg41
I00
sg42
I3
sg43
I00
sg44
I0
sg46
S'Spiritbane'
p2634
sa(dp2635
g39
Nsg40
I00
sg41
I00
sg42
I16
sg43
I00
sg44
I0
sg46
S'Javelin'
p2636
sa(dp2637
g39
Nsg40
I00
sg41
I00
sg42
I17
sg43
I00
sg44
I0
sg46
S'Willow Bow'
p2638
sa(dp2639
g39
Nsg40
I00
sg41
I00
sg42
I18
sg43
I00
sg44
I0
sg46
S'Iron Axe'
p2640
sa(dp2641
g39
Nsg40
I00
sg41
I00
sg42
I13
sg43
I00
sg44
I0
sg46
S'Short Axe'
p2642
sa(dp2643
g39
Nsg40
I00
sg41
I00
sg42
I3
sg43
I00
sg44
I0
sg46
S'Blizzard'
p2644
sa(dp2645
g39
Nsg40
I00
sg41
I00
sg42
I1
sg43
I00
sg44
I0
sg46
S'Secret Book'
p2646
sa(dp2647
g39
Nsg40
I00
sg41
I00
sg42
I17
sg43
I00
sg44
I0
sg46
S'Willow Bow'
p2648
sa(dp2649
g39
Nsg40
I00
sg41
I00
sg42
I20
sg43
I00
sg44
I0
sg46
S'Mithril Axe'
p2650
sa(dp2651
g39
Nsg40
I00
sg41
I00
sg42
I26
sg43
I00
sg44
I0
sg46
S'Iron Lance'
p2652
sa(dp2653
g39
Nsg40
I00
sg41
I00
sg42
I12
sg43
I00
sg44
I0
sg46
S'Iron Knife'
p2654
sa(dp2655
g39
Nsg40
I00
sg41
I00
sg42
I14
sg43
I00
sg44
I0
sg46
S'Iron Sword'
p2656
sa(dp2657
g39
Nsg40
I00
sg41
I00
sg42
I5
sg43
I00
sg44
I0
sg46
S'Mage Shield'
p2658
sa(dp2659
g39
Nsg40
I00
sg41
I00
sg42
I22
sg43
I00
sg44
I0
sg46
S'Nyx'
p2660
sa(dp2661
g39
Nsg40
I00
sg41
I00
sg42
I1
sg43
I00
sg44
I0
sg46
S'Vulnerary'
p2662
sa(dp2663
g39
Nsg40
I00
sg41
I00
sg42
I24
sg43
I00
sg44
I0
sg46
S'Great Lance'
p2664
sa(dp2665
g39
Nsg40
I00
sg41
I00
sg42
I20
sg43
I00
sg44
I0
sg46
S'Steel Axe'
p2666
sa(dp2667
g39
Nsg40
I00
sg41
I00
sg42
I1
sg43
I00
sg44
I0
sg46
S'Short Spear'
p2668
sa(dp2669
g39
Nsg40
I00
sg41
I00
sg42
I29
sg43
I00
sg44
I0
sg46
S'Steel Lance'
p2670
sa(dp2671
g39
Nsg40
I00
sg41
I00
sg42
I28
sg43
I00
sg44
I0
sg46
S'Brave Sword'
p2672
sa(dp2673
g39
Nsg40
I00
sg41
I00
sg42
I9
sg43
I00
sg44
I0
sg46
S'Scathe'
p2674
sa(dp2675
g39
Nsg40
I00
sg41
I00
sg42
I1
sg43
I00
sg44
I0
sg46
S'Talisman'
p2676
sa(dp2677
g39
Nsg40
I00
sg41
I00
sg42
I2
sg43
I00
sg44
I0
sg46
S'Vulnerary'
p2678
sa(dp2679
g39
Nsg40
I00
sg41
I00
sg42
I1
sg43
I00
sg44
I0
sg46
S'Mithril Mail'
p2680
sasS'prefabs'
p2681
(dp2682
S'i1'
p2683
(lp2684
S'enemy'
p2685
aS'2'
ag2683
aS'Warrior'
p2686
aS'Mithril Axe,Oak Bow'
p2687
aS'0,0'
p2688
aS'Pursue'
p2689
aS'Claw'
p2690
aS'Empire'
p2691
aS"The Empire's elite guard"
p2692
aS''
aS'Void_Curse'
p2693
asS'i3'
p2694
(lp2695
S'enemy'
p2696
aS'2'
ag2694
aS'Vanguard'
p2697
aS'Mithril Sword,Steel Axe'
p2698
aS'0,0'
p2699
aS'Pursue'
p2700
aS'Claw'
p2701
aS'Empire'
p2702
aS"The Empire's elite guard"
p2703
aS''
aS'Void_Curse'
p2704
asS'i2'
p2705
(lp2706
S'enemy'
p2707
aS'2'
ag2705
aS'Sniper'
p2708
aS'Yew Bow'
p2709
aS'0,0'
p2710
aS'Pursue'
p2711
aS'Claw'
p2712
aS'Empire'
p2713
aS"The Empire's elite guard"
p2714
aS''
aS'Void_Curse'
p2715
asS'i5'
p2716
(lp2717
S'enemy'
p2718
aS'2'
ag2716
aS'Oracle'
p2719
aS'Shine,Mend'
p2720
aS'0,0'
p2721
aS'Pursue'
p2722
aS'Claw'
p2723
aS'Empire'
p2724
aS"The Empire's elite guard"
p2725
aS''
aS'Void_Curse'
p2726
asS'i4'
p2727
(lp2728
S'enemy'
p2729
aS'2'
ag2727
aS'Sage'
p2730
aS'Fire,Water'
p2731
aS'0,0'
p2732
aS'Pursue'
p2733
aS'Claw'
p2734
aS'Empire'
p2735
aS"The Empire's elite guard"
p2736
aS''
aS'Void_Curse'
p2737
assS'talk_options'
p2738
(lp2739
sS'market_items'
p2740
c__builtin__
set
p2741
((lp2742
S'Nyx'
p2743
aS'Great Bow'
p2744
aS'Great Axe'
p2745
aS'Oak Longbow'
p2746
aS'Wyrmsfire'
p2747
aS'Glimmer'
p2748
aS'Mend'
p2749
aS'Spiritbane'
p2750
aS'Rapier'
p2751
aS'Potion'
p2752
aS'Fire'
p2753
aS'Heal'
p2754
aS'Great Lance'
p2755
aS'Water'
p2756
aS'Hand Axe'
p2757
aS'Ruin'
p2758
aS'Iron Sword'
p2759
aS'Shine'
p2760
aS'Short Spear'
p2761
aS'Iron Lance'
p2762
aS'Short Bow'
p2763
aS'Hatchet'
p2764
aS'Vulnerary'
p2765
aS'Willow Bow'
p2766
aS'Barkskin'
p2767
aS'Flux'
p2768
aS'Slim Lance'
p2769
aS'Short Axe'
p2770
aS'Wind'
p2771
aS'Steel Lance'
p2772
aS'Longbow'
p2773
aS'Iron Knife'
p2774
aS'Scathe'
p2775
aS'Oak Bow'
p2776
aS'Steel Sword'
p2777
aS'Javelin'
p2778
aS'Steel Axe'
p2779
aS'Earth'
p2780
aS'Great Sword'
p2781
aS'Steel Knife'
p2782
aS'Iron Axe'
p2783
atRp2784
sS'support'
p2785
NsS'allreinforcements'
p2786
(dp2787
g1063
(I153
g1077
tp2788
sg1096
(I154
g1110
tp2789
sg1030
(I152
g1044
tp2790
sg1470
(I165
(I15
I0
ttp2791
sg1436
(I164
(I14
I0
ttp2792
sS'Eliza'
p2793
(g2047
(I6
I13
ttp2794
sg794
(I145
(I29
I26
ttp2795
sg1193
(I157
(I30
I18
ttp2796
sg1538
(I167
(I15
I0
ttp2797
sg1837
(I176
(I0
I10
ttp2798
sS'Theo'
p2799
(g2438
(I7
I14
ttp2800
sS'd3_2'
p2801
(I135
(I28
I27
ttp2802
sS'Althea'
p2803
(g2291
(I5
I12
ttp2804
sg1876
(I177
(I0
I12
ttp2805
sg1331
(I161
(I15
I0
ttp2806
sg660
(I141
(I28
I27
tp2807
tp2808
sS'Nia'
p2809
(g2243
(I4
I15
ttp2810
sg1225
(I158
(I14
I0
ttp2811
sg1261
(I159
(I15
I0
ttp2812
sS'Kayla'
p2813
(g2000
(I6
I15
ttp2814
sg1296
(I160
(I14
I0
ttp2815
sg828
(I146
(I30
I25
ttp2816
sS'Coyote'
p2817
(g1900
(I8
I15
ttp2818
sS'Joel'
p2819
(g2195
(I4
I13
ttp2820
sg1366
(I162
g1382
tp2821
sg1129
(I155
(I30
I16
ttp2822
sg1161
(I156
(I30
I17
ttp2823
sg1401
(I163
g1417
tp2824
sS'w6_2'
p2825
(I169
(I0
I12
ttp2826
sg860
(I147
(I28
I27
ttp2827
sg728
(I143
(I30
I25
ttp2828
sg1574
(I168
(I0
I10
ttp2829
sg521
(I137
(I30
I25
ttp2830
sg557
(I138
(I28
I27
ttp2831
sg590
(I139
(I29
I26
ttp2832
sS'Renae'
p2833
(g2390
(I7
I12
ttp2834
sg1653
(I171
(I0
I12
tp2835
tp2836
sS'Drake'
p2837
(g2344
(I5
I14
ttp2838
sg1765
(I174
(I0
I10
ttp2839
sg1616
(I170
(I0
I10
tp2840
tp2841
sg760
(I144
(I28
I27
ttp2842
sg1801
(I175
(I0
I12
ttp2843
sS'Ophie'
p2844
(g2095
(I3
I12
ttp2845
sg693
(I142
(I29
I26
tp2846
tp2847
sg627
(I140
(I30
I25
tp2848
tp2849
sS'Prim'
p2850
(g2148
(I3
I14
ttp2851
sS'Sam'
p2852
(g1951
(I8
I13
ttp2853
sg1693
(I172
(I0
I10
ttp2854
sg1729
(I173
(I0
I12
ttp2855
sg1504
(I166
(I14
I0
ttp2856
sg894
(I148
(I29
I26
ttp2857
sS'd3_1'
p2858
(I134
(I30
I25
ttp2859
sS'd3_3'
p2860
(I136
(I29
I26
ttp2861
sg931
(I149
(I30
I16
ttp2862
sg964
(I150
(I30
I17
ttp2863
sg997
(I151
(I30
I18
ttp2864
ssS'event_triggers'
p2865
(lp2866
sg2485
I8
sS'base_conversations'
p2867
(dp2868
sS'phase_info'
p2869
(I0
I1
tp2870
sS'playtime'
p2871
I33596207
sS'objective'
p2872
(S'Defeat Boss'
p2873
S'Defeat Vagnius'
p2874
S'Ophie or Sam dies,OR,Party size falls below 5. Currently {gameStateObj.get_total_party_members()},OR,Village is destroyed'
p2875
tp2876
sS'state_list'
p2877
((lp2878
S'free'
p2879
aS'status'
p2880
aS'phase_change'
p2881
aS'battle_save'
p2882
a(ltp2883
sS'message'
p2884
(lp2885
sS'metaDataObj_changes'
p2886
(lp2887
sS'unlocked_lore'
p2888
(lp2889
S'Sam'
p2890
aS'Joel'
p2891
aS'Prim'
p2892
aS'Ophie'
p2893
aS'Althea'
p2894
aS'Drake'
p2895
aS'Nia'
p2896
aS'Renae'
p2897
aS'Theo'
p2898
aS'Kerala'
p2899
aS'Empire'
p2900
aS'Eliza'
p2901
aS'Podoma'
p2902
aS'Rajas'
p2903
aS'Ulver'
p2904
aS'Vagnius'
p2905
aS'CFS'
p2906
aS'Kayla'
p2907
aS'CFS'
p2908
aS'Kayla'
p2909
aS'Tyrana'
p2910
aS'Coyote'
p2911
asS'game_constants'
p2912
(lp2913
S'Convoy'
p2914
asS'counters'
p2915
(dp2916
S'Dead_Wagons'
p2917
I12
sS'line_cross'
p2918
I13
sS'level'
p2919
I8
sS'money'
p2920
I1902
sS'switches'
p2921
I2
sS'Civ_Escape'
p2922
I5
sS'turns'
p2923
I5
sS'Escaped_Wagons'
p2924
I0
ss.